                              1 ;--------------------------------------------------------
                              2 ; File Created by SDCC : free open source ANSI-C Compiler
                              3 ; Version 3.0.1 #6227 (Oct  2 2015) (Linux)
                              4 ; This file was generated Fri Oct  2 17:15:30 2015
                              5 ;--------------------------------------------------------
                              6 	.module _fsdiv
                              7 	.optsdcc -mmcs51 --model-small
                              8 	
                              9 ;--------------------------------------------------------
                             10 ; Public variables in this module
                             11 ;--------------------------------------------------------
                             12 ;--------------------------------------------------------
                             13 ; special function registers
                             14 ;--------------------------------------------------------
                             15 	.area RSEG    (ABS,DATA)
   0000                      16 	.org 0x0000
                             17 ;--------------------------------------------------------
                             18 ; special function bits
                             19 ;--------------------------------------------------------
                             20 	.area RSEG    (ABS,DATA)
   0000                      21 	.org 0x0000
                             22 ;--------------------------------------------------------
                             23 ; overlayable register banks
                             24 ;--------------------------------------------------------
                             25 	.area REG_BANK_0	(REL,OVR,DATA)
   0000                      26 	.ds 8
                             27 ;--------------------------------------------------------
                             28 ; internal ram data
                             29 ;--------------------------------------------------------
                             30 	.area DSEG    (DATA)
                             31 ;--------------------------------------------------------
                             32 ; overlayable items in internal ram 
                             33 ;--------------------------------------------------------
                             34 	.area OSEG    (OVR,DATA)
                             35 ;--------------------------------------------------------
                             36 ; indirectly addressable internal ram data
                             37 ;--------------------------------------------------------
                             38 	.area ISEG    (DATA)
                             39 ;--------------------------------------------------------
                             40 ; absolute internal ram data
                             41 ;--------------------------------------------------------
                             42 	.area IABS    (ABS,DATA)
                             43 	.area IABS    (ABS,DATA)
                             44 ;--------------------------------------------------------
                             45 ; bit data
                             46 ;--------------------------------------------------------
                             47 	.area BSEG    (BIT)
                             48 ;--------------------------------------------------------
                             49 ; paged external ram data
                             50 ;--------------------------------------------------------
                             51 	.area PSEG    (PAG,XDATA)
                             52 ;--------------------------------------------------------
                             53 ; external ram data
                             54 ;--------------------------------------------------------
                             55 	.area XSEG    (XDATA)
                             56 ;--------------------------------------------------------
                             57 ; absolute external ram data
                             58 ;--------------------------------------------------------
                             59 	.area XABS    (ABS,XDATA)
                             60 ;--------------------------------------------------------
                             61 ; external initialized ram data
                             62 ;--------------------------------------------------------
                             63 	.area XISEG   (XDATA)
                             64 	.area HOME    (CODE)
                             65 	.area GSINIT0 (CODE)
                             66 	.area GSINIT1 (CODE)
                             67 	.area GSINIT2 (CODE)
                             68 	.area GSINIT3 (CODE)
                             69 	.area GSINIT4 (CODE)
                             70 	.area GSINIT5 (CODE)
                             71 	.area GSINIT  (CODE)
                             72 	.area GSFINAL (CODE)
                             73 	.area CSEG    (CODE)
                             74 ;--------------------------------------------------------
                             75 ; global & static initialisations
                             76 ;--------------------------------------------------------
                             77 	.area HOME    (CODE)
                             78 	.area GSINIT  (CODE)
                             79 	.area GSFINAL (CODE)
                             80 	.area GSINIT  (CODE)
                             81 ;--------------------------------------------------------
                             82 ; Home
                             83 ;--------------------------------------------------------
                             84 	.area HOME    (CODE)
                             85 	.area HOME    (CODE)
                             86 ;--------------------------------------------------------
                             87 ; code
                             88 ;--------------------------------------------------------
                             89 	.area CSEG    (CODE)
                             90 ;------------------------------------------------------------
                             91 ;Allocation info for local variables in function 'dummy'
                             92 ;------------------------------------------------------------
                             93 ;------------------------------------------------------------
                             94 ;	_fsdiv.c:37: static void dummy(void) __naked
                             95 ;	-----------------------------------------
                             96 ;	 function dummy
                             97 ;	-----------------------------------------
   0000                      98 _dummy:
                             99 ;	naked function: no prologue.
                            100 ;	_fsdiv.c:229: inc	exp_a
                            101 	
                            102 	 .globl ___fsdiv
   0000                     103 	___fsdiv:
                            104 	
                            105 	
                            106 	
                            107 	
                            108 	
                            109 	
   0000 12s00r00            110 	 lcall fsgetargs
                            111 	
                            112 	
   0003 30 D5 02            113 	 jnb psw.5, 00001$
   0006 B2 D1               114 	 cpl psw.1
   0008                     115 	00001$:
                            116 	
                            117 	
   0008 BF 00 09            118 	 cjne r7, #0, 00003$
                            119 	
   000B BC 00 03            120 	 cjne r4, #0, 00002$
   000E 02s00r00            121 	 ljmp fs_return_nan
   0011                     122 	00002$:
                            123 	
   0011 02s00r00            124 	 ljmp fs_return_inf
   0014                     125 	00003$:
                            126 	
   0014 BC 00 03            127 	 cjne r4, #0, 00004$
   0017 02s00r00            128 	 ljmp fs_return_zero
   001A                     129 	00004$:
                            130 	
   001A E5 83               131 	 mov a, dph
   001C B4 FF 0B            132 	 cjne a, #0xFF, 00006$
                            133 	
   001F E5 82               134 	 mov a, dpl
   0021 B4 FF 03            135 	 cjne a, #0xFF, 00005$
   0024 02s00r00            136 	 ljmp fs_return_nan
   0027                     137 	00005$:
                            138 	
   0027 02s00r00            139 	 ljmp fs_return_zero
   002A                     140 	00006$:
                            141 	
   002A E5 82               142 	 mov a, dpl
   002C B4 FF 03            143 	 cjne a, #0xFF, 00007$
   002F 02s00r00            144 	 ljmp fs_return_inf
   0032                     145 	00007$:
                            146 	
                            147 	
   0032 C3                  148 	 clr c
   0033 95 83               149 	 subb a, dph
                            150 	
   0035 50 07               151 	 jnc 00008$
   0037 24 7F               152 	 add a, #127
   0039 40 0B               153 	 jc 00009$
   003B 02s00r00            154 	 ljmp fs_return_zero
                            155 	
   003E                     156 	00008$:
   003E 24 80               157 	 add a, #128
   0040 14                  158 	 dec a
   0041 50 03               159 	 jnc 00009$
   0043 02s00r00            160 	 ljmp fs_return_inf
                            161 	
   0046                     162 	00009$:
   0046 F5 82               163 	 mov dpl, a
                            164 	
                            165 	
                            166 	
   0048 C3                  167 	 clr c
   0049 ED                  168 	 mov a, r5
   004A 9A                  169 	 subb a, r2
   004B EE                  170 	 mov a, r6
   004C 9B                  171 	 subb a, r3
   004D EF                  172 	 mov a, r7
   004E 9C                  173 	 subb a, r4
   004F 40 11               174 	 jc 00010$
   0051 15 82               175 	 dec dpl
   0053 C3                  176 	 clr c
   0054 EA                  177 	 mov a, r2
   0055 33                  178 	 rlc a
   0056 F9                  179 	 mov r1, a
   0057 EB                  180 	 mov a, r3
   0058 33                  181 	 rlc a
   0059 FA                  182 	 mov r2, a
   005A EC                  183 	 mov a, r4
   005B 33                  184 	 rlc a
   005C FB                  185 	 mov r3, a
   005D E4                  186 	 clr a
   005E 33                  187 	 rlc a
   005F FC                  188 	 mov r4, a
   0060 80 05               189 	 sjmp 00011$
   0062                     190 	00010$:
                            191 	
   0062 E4                  192 	 clr a
   0063 CC                  193 	 xch a, r4
   0064 CB                  194 	 xch a, r3
   0065 CA                  195 	 xch a, r2
   0066 F9                  196 	 mov r1, a
   0067                     197 	00011$:
                            198 	
                            199 	
   0067 C0 82               200 	 push dpl
                            201 	
   0069 75 F0 19            202 	 mov b, #25
                            203 	
                            204 	
                            205 	
   006C                     206 	00012$:
                            207 	
   006C C3                  208 	 clr c
   006D E9                  209 	 mov a, r1
   006E 9D                  210 	 subb a, r5
   006F EA                  211 	 mov a, r2
   0070 9E                  212 	 subb a, r6
   0071 EB                  213 	 mov a, r3
   0072 9F                  214 	 subb a, r7
   0073 EC                  215 	 mov a, r4
   0074 94 00               216 	 subb a, #0
                            217 	
                            218 	
   0076 D5 F0 02            219 	 djnz b, 00013$
   0079 80 2D               220 	 sjmp 00015$
   007B                     221 	00013$:
                            222 	
   007B 40 0E               223 	 jc 00014$
                            224 	
   007D E9                  225 	 mov a, r1
   007E 9D                  226 	 subb a, r5
   007F F9                  227 	 mov r1, a
   0080 EA                  228 	 mov a, r2
   0081 9E                  229 	 subb a, r6
   0082 FA                  230 	 mov r2, a
   0083 EB                  231 	 mov a, r3
   0084 9F                  232 	 subb a, r7
   0085 FB                  233 	 mov r3, a
   0086 EC                  234 	 mov a, r4
   0087 94 00               235 	 subb a, #0
   0089 FC                  236 	 mov r4, a
   008A C3                  237 	 clr c
                            238 	
   008B                     239 	00014$:
                            240 	
   008B B3                  241 	 cpl c
   008C E8                  242 	 mov a, r0
   008D 33                  243 	 rlc a
   008E F8                  244 	 mov r0, a
   008F E5 82               245 	 mov a, dpl
   0091 33                  246 	 rlc a
   0092 F5 82               247 	 mov dpl, a
   0094 E5 83               248 	 mov a, dph
   0096 33                  249 	 rlc a
   0097 F5 83               250 	 mov dph, a
                            251 	
                            252 	
   0099 C3                  253 	 clr c
   009A E9                  254 	 mov a, r1
   009B 33                  255 	 rlc a
   009C F9                  256 	 mov r1, a
   009D EA                  257 	 mov a, r2
   009E 33                  258 	 rlc a
   009F FA                  259 	 mov r2, a
   00A0 EB                  260 	 mov a, r3
   00A1 33                  261 	 rlc a
   00A2 FB                  262 	 mov r3, a
   00A3 EC                  263 	 mov a, r4
   00A4 33                  264 	 rlc a
   00A5 FC                  265 	 mov r4, a
                            266 	
                            267 	
   00A6 80 C4               268 	 sjmp 00012$
   00A8                     269 	00015$:
                            270 ;	# 216 "_fsdiv.c"
   00A8 B3                  271 	 cpl c
   00A9 E4                  272 	 clr a
   00AA F9                  273 	 mov r1, a
   00AB 38                  274 	 addc a, r0
   00AC FA                  275 	 mov r2, a
   00AD E4                  276 	 clr a
   00AE 35 82               277 	 addc a, dpl
   00B0 FB                  278 	 mov r3, a
   00B1 E4                  279 	 clr a
   00B2 35 83               280 	 addc a, dph
   00B4 FC                  281 	 mov r4, a
   00B5 D0 82               282 	 pop dpl
   00B7 50 04               283 	 jnc 00016$
   00B9 05 82               284 	 inc dpl
                            285 	
   00BB 7C 80               286 	 mov r4, #0x80
   00BD                     287 	00016$:
                            288 ;	# 242 "_fsdiv.c"
   00BD 12s00r00            289 	 lcall fs_normalize_a
   00C0 02s00r00            290 	 ljmp fs_zerocheck_return
                            291 	 
                            292 ;	naked function: no epilogue.
                            293 	.area CSEG    (CODE)
                            294 	.area CONST   (CODE)
                            295 	.area XINIT   (CODE)
                            296 	.area CABS    (ABS,CODE)
