                              1 ;--------------------------------------------------------
                              2 ; File Created by SDCC : free open source ANSI-C Compiler
                              3 ; Version 3.0.1 #6227 (Oct  2 2015) (Linux)
                              4 ; This file was generated Fri Oct  2 17:15:26 2015
                              5 ;--------------------------------------------------------
                              6 	.module _strncmp
                              7 	.optsdcc -mmcs51 --model-medium
                              8 	
                              9 ;--------------------------------------------------------
                             10 ; Public variables in this module
                             11 ;--------------------------------------------------------
                             12 	.globl _strncmp_PARM_3
                             13 	.globl _strncmp_PARM_2
                             14 	.globl _strncmp
                             15 ;--------------------------------------------------------
                             16 ; special function registers
                             17 ;--------------------------------------------------------
                             18 	.area RSEG    (ABS,DATA)
   0000                      19 	.org 0x0000
                             20 ;--------------------------------------------------------
                             21 ; special function bits
                             22 ;--------------------------------------------------------
                             23 	.area RSEG    (ABS,DATA)
   0000                      24 	.org 0x0000
                             25 ;--------------------------------------------------------
                             26 ; overlayable register banks
                             27 ;--------------------------------------------------------
                             28 	.area REG_BANK_0	(REL,OVR,DATA)
   0000                      29 	.ds 8
                             30 ;--------------------------------------------------------
                             31 ; internal ram data
                             32 ;--------------------------------------------------------
                             33 	.area DSEG    (DATA)
                             34 ;--------------------------------------------------------
                             35 ; overlayable items in internal ram 
                             36 ;--------------------------------------------------------
                             37 	.area	OSEG    (OVR,DATA)
   0000                      38 _strncmp_sloc0_1_0::
   0000                      39 	.ds 2
   0002                      40 _strncmp_sloc1_1_0::
   0002                      41 	.ds 1
                             42 ;--------------------------------------------------------
                             43 ; indirectly addressable internal ram data
                             44 ;--------------------------------------------------------
                             45 	.area ISEG    (DATA)
                             46 ;--------------------------------------------------------
                             47 ; absolute internal ram data
                             48 ;--------------------------------------------------------
                             49 	.area IABS    (ABS,DATA)
                             50 	.area IABS    (ABS,DATA)
                             51 ;--------------------------------------------------------
                             52 ; bit data
                             53 ;--------------------------------------------------------
                             54 	.area BSEG    (BIT)
                             55 ;--------------------------------------------------------
                             56 ; paged external ram data
                             57 ;--------------------------------------------------------
                             58 	.area PSEG    (PAG,XDATA)
   0000                      59 _strncmp_PARM_2:
   0000                      60 	.ds 3
   0003                      61 _strncmp_PARM_3:
   0003                      62 	.ds 2
                             63 ;--------------------------------------------------------
                             64 ; external ram data
                             65 ;--------------------------------------------------------
                             66 	.area XSEG    (XDATA)
                             67 ;--------------------------------------------------------
                             68 ; absolute external ram data
                             69 ;--------------------------------------------------------
                             70 	.area XABS    (ABS,XDATA)
                             71 ;--------------------------------------------------------
                             72 ; external initialized ram data
                             73 ;--------------------------------------------------------
                             74 	.area XISEG   (XDATA)
                             75 	.area HOME    (CODE)
                             76 	.area GSINIT0 (CODE)
                             77 	.area GSINIT1 (CODE)
                             78 	.area GSINIT2 (CODE)
                             79 	.area GSINIT3 (CODE)
                             80 	.area GSINIT4 (CODE)
                             81 	.area GSINIT5 (CODE)
                             82 	.area GSINIT  (CODE)
                             83 	.area GSFINAL (CODE)
                             84 	.area CSEG    (CODE)
                             85 ;--------------------------------------------------------
                             86 ; global & static initialisations
                             87 ;--------------------------------------------------------
                             88 	.area HOME    (CODE)
                             89 	.area GSINIT  (CODE)
                             90 	.area GSFINAL (CODE)
                             91 	.area GSINIT  (CODE)
                             92 ;--------------------------------------------------------
                             93 ; Home
                             94 ;--------------------------------------------------------
                             95 	.area HOME    (CODE)
                             96 	.area HOME    (CODE)
                             97 ;--------------------------------------------------------
                             98 ; code
                             99 ;--------------------------------------------------------
                            100 	.area CSEG    (CODE)
                            101 ;------------------------------------------------------------
                            102 ;Allocation info for local variables in function 'strncmp'
                            103 ;------------------------------------------------------------
                            104 ;sloc0                     Allocated with name '_strncmp_sloc0_1_0'
                            105 ;sloc1                     Allocated with name '_strncmp_sloc1_1_0'
                            106 ;------------------------------------------------------------
                            107 ;	_strncmp.c:31: int strncmp (
                            108 ;	-----------------------------------------
                            109 ;	 function strncmp
                            110 ;	-----------------------------------------
   0000                     111 _strncmp:
                    0002    112 	ar2 = 0x02
                    0003    113 	ar3 = 0x03
                    0004    114 	ar4 = 0x04
                    0005    115 	ar5 = 0x05
                    0006    116 	ar6 = 0x06
                    0007    117 	ar7 = 0x07
                    0000    118 	ar0 = 0x00
                    0001    119 	ar1 = 0x01
   0000 AA 82               120 	mov	r2,dpl
   0002 AB 83               121 	mov	r3,dph
   0004 AC F0               122 	mov	r4,b
                            123 ;	_strncmp.c:37: if (!count)
   0006 78r03               124 	mov	r0,#_strncmp_PARM_3
   0008 E2                  125 	movx	a,@r0
   0009 F5 F0               126 	mov	b,a
   000B 08                  127 	inc	r0
   000C E2                  128 	movx	a,@r0
   000D 45 F0               129 	orl	a,b
   000F 70 04               130 	jnz	00114$
                            131 ;	_strncmp.c:38: return(0);
   0011 90 00 00            132 	mov	dptr,#0x0000
   0014 22                  133 	ret
                            134 ;	_strncmp.c:40: while (--count && *first && *first == *last) {
   0015                     135 00114$:
   0015 78r00               136 	mov	r0,#_strncmp_PARM_2
   0017 E2                  137 	movx	a,@r0
   0018 FD                  138 	mov	r5,a
   0019 08                  139 	inc	r0
   001A E2                  140 	movx	a,@r0
   001B FE                  141 	mov	r6,a
   001C 08                  142 	inc	r0
   001D E2                  143 	movx	a,@r0
   001E FF                  144 	mov	r7,a
   001F 78r03               145 	mov	r0,#_strncmp_PARM_3
   0021 E2                  146 	movx	a,@r0
   0022 F5*00               147 	mov	_strncmp_sloc0_1_0,a
   0024 08                  148 	inc	r0
   0025 E2                  149 	movx	a,@r0
   0026 F5*01               150 	mov	(_strncmp_sloc0_1_0 + 1),a
   0028                     151 00105$:
   0028 15*00               152 	dec	_strncmp_sloc0_1_0
   002A 74 FF               153 	mov	a,#0xff
   002C B5*00 02            154 	cjne	a,_strncmp_sloc0_1_0,00117$
   002F 15*01               155 	dec	(_strncmp_sloc0_1_0 + 1)
   0031                     156 00117$:
   0031 E5*00               157 	mov	a,_strncmp_sloc0_1_0
   0033 45*01               158 	orl	a,(_strncmp_sloc0_1_0 + 1)
   0035 60 3C               159 	jz	00107$
   0037 8A 82               160 	mov	dpl,r2
   0039 8B 83               161 	mov	dph,r3
   003B 8C F0               162 	mov	b,r4
   003D 12s00r00            163 	lcall	__gptrget
   0040 F5*02               164 	mov	_strncmp_sloc1_1_0,a
   0042 60 2F               165 	jz	00107$
   0044 C0 02               166 	push	ar2
   0046 C0 03               167 	push	ar3
   0048 C0 04               168 	push	ar4
   004A 8D 82               169 	mov	dpl,r5
   004C 8E 83               170 	mov	dph,r6
   004E 8F F0               171 	mov	b,r7
   0050 12s00r00            172 	lcall	__gptrget
   0053 FA                  173 	mov	r2,a
   0054 B5*02 02            174 	cjne	a,_strncmp_sloc1_1_0,00120$
   0057 80 08               175 	sjmp	00121$
   0059                     176 00120$:
   0059 D0 04               177 	pop	ar4
   005B D0 03               178 	pop	ar3
   005D D0 02               179 	pop	ar2
   005F 80 12               180 	sjmp	00107$
   0061                     181 00121$:
   0061 D0 04               182 	pop	ar4
   0063 D0 03               183 	pop	ar3
   0065 D0 02               184 	pop	ar2
                            185 ;	_strncmp.c:41: first++;
   0067 0A                  186 	inc	r2
   0068 BA 00 01            187 	cjne	r2,#0x00,00122$
   006B 0B                  188 	inc	r3
   006C                     189 00122$:
                            190 ;	_strncmp.c:42: last++;
   006C 0D                  191 	inc	r5
   006D BD 00 B8            192 	cjne	r5,#0x00,00105$
   0070 0E                  193 	inc	r6
   0071 80 B5               194 	sjmp	00105$
   0073                     195 00107$:
                            196 ;	_strncmp.c:45: return( *first - *last );
   0073 8A 82               197 	mov	dpl,r2
   0075 8B 83               198 	mov	dph,r3
   0077 8C F0               199 	mov	b,r4
   0079 12s00r00            200 	lcall	__gptrget
   007C FA                  201 	mov	r2,a
   007D 33                  202 	rlc	a
   007E 95 E0               203 	subb	a,acc
   0080 FB                  204 	mov	r3,a
   0081 8D 82               205 	mov	dpl,r5
   0083 8E 83               206 	mov	dph,r6
   0085 8F F0               207 	mov	b,r7
   0087 12s00r00            208 	lcall	__gptrget
   008A FD                  209 	mov	r5,a
   008B 33                  210 	rlc	a
   008C 95 E0               211 	subb	a,acc
   008E FC                  212 	mov	r4,a
   008F EA                  213 	mov	a,r2
   0090 C3                  214 	clr	c
   0091 9D                  215 	subb	a,r5
   0092 F5 82               216 	mov	dpl,a
   0094 EB                  217 	mov	a,r3
   0095 9C                  218 	subb	a,r4
   0096 F5 83               219 	mov	dph,a
   0098 22                  220 	ret
                            221 	.area CSEG    (CODE)
                            222 	.area CONST   (CODE)
                            223 	.area XINIT   (CODE)
                            224 	.area CABS    (ABS,CODE)
