                              1 ;--------------------------------------------------------
                              2 ; File Created by SDCC : free open source ANSI-C Compiler
                              3 ; Version 3.0.1 #6227 (Oct  2 2015) (Linux)
                              4 ; This file was generated Fri Oct  2 17:15:27 2015
                              5 ;--------------------------------------------------------
                              6 	.module printf_fast_f
                              7 	.optsdcc -mmcs51 --model-medium
                              8 	
                              9 ;--------------------------------------------------------
                             10 ; Public variables in this module
                             11 ;--------------------------------------------------------
                             12 	.globl _printf_fast_f
                             13 ;--------------------------------------------------------
                             14 ; special function registers
                             15 ;--------------------------------------------------------
                             16 	.area RSEG    (ABS,DATA)
   0000                      17 	.org 0x0000
                             18 ;--------------------------------------------------------
                             19 ; special function bits
                             20 ;--------------------------------------------------------
                             21 	.area RSEG    (ABS,DATA)
   0000                      22 	.org 0x0000
                             23 ;--------------------------------------------------------
                             24 ; overlayable register banks
                             25 ;--------------------------------------------------------
                             26 	.area REG_BANK_0	(REL,OVR,DATA)
   0000                      27 	.ds 8
                             28 ;--------------------------------------------------------
                             29 ; internal ram data
                             30 ;--------------------------------------------------------
                             31 	.area DSEG    (DATA)
   0000                      32 _field_width:
   0000                      33 	.ds 1
   0001                      34 _frac_field_width:
   0001                      35 	.ds 1
   0002                      36 _float_frac_bcd:
   0002                      37 	.ds 4
                             38 ;--------------------------------------------------------
                             39 ; overlayable items in internal ram 
                             40 ;--------------------------------------------------------
                             41 	.area OSEG    (OVR,DATA)
                             42 ;--------------------------------------------------------
                             43 ; indirectly addressable internal ram data
                             44 ;--------------------------------------------------------
                             45 	.area ISEG    (DATA)
                             46 ;--------------------------------------------------------
                             47 ; absolute internal ram data
                             48 ;--------------------------------------------------------
                             49 	.area IABS    (ABS,DATA)
                             50 	.area IABS    (ABS,DATA)
                             51 ;--------------------------------------------------------
                             52 ; bit data
                             53 ;--------------------------------------------------------
                             54 	.area BSEG    (BIT)
   0000                      55 _long_flag:
   0000                      56 	.ds 1
   0001                      57 _short_flag:
   0001                      58 	.ds 1
   0002                      59 _print_zero_flag:
   0002                      60 	.ds 1
   0003                      61 _negative_flag:
   0003                      62 	.ds 1
   0004                      63 _field_width_flag:
   0004                      64 	.ds 1
   0005                      65 _leading_zero_flag:
   0005                      66 	.ds 1
   0006                      67 _continue_float:
   0006                      68 	.ds 1
                             69 ;--------------------------------------------------------
                             70 ; paged external ram data
                             71 ;--------------------------------------------------------
                             72 	.area PSEG    (PAG,XDATA)
                             73 ;--------------------------------------------------------
                             74 ; external ram data
                             75 ;--------------------------------------------------------
                             76 	.area XSEG    (XDATA)
                             77 ;--------------------------------------------------------
                             78 ; absolute external ram data
                             79 ;--------------------------------------------------------
                             80 	.area XABS    (ABS,XDATA)
                             81 ;--------------------------------------------------------
                             82 ; external initialized ram data
                             83 ;--------------------------------------------------------
                             84 	.area XISEG   (XDATA)
                             85 	.area HOME    (CODE)
                             86 	.area GSINIT0 (CODE)
                             87 	.area GSINIT1 (CODE)
                             88 	.area GSINIT2 (CODE)
                             89 	.area GSINIT3 (CODE)
                             90 	.area GSINIT4 (CODE)
                             91 	.area GSINIT5 (CODE)
                             92 	.area GSINIT  (CODE)
                             93 	.area GSFINAL (CODE)
                             94 	.area CSEG    (CODE)
                             95 ;--------------------------------------------------------
                             96 ; global & static initialisations
                             97 ;--------------------------------------------------------
                             98 	.area HOME    (CODE)
                             99 	.area GSINIT  (CODE)
                            100 	.area GSFINAL (CODE)
                            101 	.area GSINIT  (CODE)
                            102 ;--------------------------------------------------------
                            103 ; Home
                            104 ;--------------------------------------------------------
                            105 	.area HOME    (CODE)
                            106 	.area HOME    (CODE)
                            107 ;--------------------------------------------------------
                            108 ; code
                            109 ;--------------------------------------------------------
                            110 	.area CSEG    (CODE)
                            111 ;------------------------------------------------------------
                            112 ;Allocation info for local variables in function 'printf_fast_f'
                            113 ;------------------------------------------------------------
                            114 ;fmt                       Allocated to stack - offset -4
                            115 ;------------------------------------------------------------
                            116 ;	printf_fast.c:146: void PRINTF_FAST(__code const char *fmt, ...) __reentrant
                            117 ;	-----------------------------------------
                            118 ;	 function printf_fast_f
                            119 ;	-----------------------------------------
   0000                     120 _printf_fast_f:
                    0002    121 	ar2 = 0x02
                    0003    122 	ar3 = 0x03
                    0004    123 	ar4 = 0x04
                    0005    124 	ar5 = 0x05
                    0006    125 	ar6 = 0x06
                    0007    126 	ar7 = 0x07
                    0000    127 	ar0 = 0x00
                    0001    128 	ar1 = 0x01
   0000 C0*00               129 	push	_bp
   0002 85 81*00            130 	mov	_bp,sp
                            131 ;	printf_fast.c:1109: orl	a, b
                            132 	
                            133 	
   0005                     134 	printf_begin:
   0005 E5*00               135 	 mov a, _bp
   0007 24 FD               136 	 add a, #253
   0009 F8                  137 	 mov r0, a
   000A 86 83               138 	 mov dph, @r0
   000C 18                  139 	 dec r0
   000D 86 82               140 	 mov dpl, @r0
   000F 18                  141 	 dec r0
                            142 	
   0010                     143 	printf_main_loop:
   0010 E4                  144 	 clr a
   0011 93                  145 	 movc a, @a+dptr
   0012 A3                  146 	 inc dptr
                            147 	
   0013 B4 25 77            148 	 cjne a, #37, printf_normal
                            149 	
   0016                     150 	printf_format:
   0016 C2*00               151 	 clr _long_flag
   0018 C2*01               152 	 clr _short_flag
   001A C2*02               153 	 clr _print_zero_flag
   001C C2*03               154 	 clr _negative_flag
                            155 	
   001E C2*04               156 	 clr _field_width_flag
   0020 C2*05               157 	 clr _leading_zero_flag
   0022 79r00               158 	 mov r1, #_field_width
   0024 77 00               159 	 mov @r1, #0
                            160 	
                            161 	
   0026 C2*06               162 	 clr _continue_float
                            163 	
                            164 	
   0028                     165 	printf_format_loop:
   0028 E4                  166 	 clr a
   0029 93                  167 	 movc a, @a+dptr
   002A A3                  168 	 inc dptr
                            169 	
                            170 	
                            171 	
   002B 24 C6               172 	 add a, #198
   002D 40 17               173 	 jc printf_nondigit1
   002F 24 0A               174 	 add a, #10
   0031 50 15               175 	 jnc printf_nondigit2
                            176 	
   0033                     177 	printf_digit:
   0033 70 05               178 	 jnz printf_digit_2
   0035 B5*00 02            179 	 cjne a, _field_width, printf_digit_2
   0038 D2*05               180 	 setb _leading_zero_flag
   003A                     181 	printf_digit_2:
   003A D2*04               182 	 setb _field_width_flag
   003C FA                  183 	 mov r2, a
   003D E7                  184 	 mov a, @r1
   003E 75 F0 0A            185 	 mov b, #10
   0041 A4                  186 	 mul ab
   0042 2A                  187 	 add a, r2
   0043 F7                  188 	 mov @r1, a
                            189 	
   0044 80 E2               190 	 sjmp printf_format_loop
   0046                     191 	printf_nondigit1:
   0046 24 0A               192 	 add a, #10
   0048                     193 	printf_nondigit2:
   0048 24 30               194 	 add a, #48
                            195 	
   004A                     196 	printf_format_l:
                            197 	
   004A B4 6C 04            198 	 cjne a, #108, printf_format_h
   004D D2*00               199 	 setb _long_flag
   004F 80 D7               200 	 sjmp printf_format_loop
                            201 	
   0051                     202 	printf_format_h:
                            203 	
   0051 B4 68 04            204 	 cjne a, #104, printf_format_s
   0054 D2*01               205 	 setb _short_flag
   0056 80 D0               206 	 sjmp printf_format_loop
                            207 	
   0058                     208 	printf_format_s:
                            209 	
   0058 B4 73 03            210 	 cjne a, #115, printf_format_d
   005B 02s00r98            211 	 ljmp printf_string
                            212 	
   005E                     213 	printf_format_d:
                            214 	
   005E B4 64 06            215 	 cjne a, #100, printf_format_u
   0061 12s03r72            216 	 lcall printf_get_int
   0064 02s00rF4            217 	 ljmp printf_int
                            218 	
   0067                     219 	printf_format_u:
                            220 	
   0067 B4 75 06            221 	 cjne a, #117, printf_format_c
   006A 12s03r72            222 	 lcall printf_get_int
   006D 02s01r14            223 	 ljmp printf_uint
                            224 	
   0070                     225 	printf_format_c:
                            226 	
   0070 B4 63 05            227 	 cjne a, #99, printf_format_x
   0073 18                  228 	 dec r0
   0074 E6                  229 	 mov a, @r0
   0075 18                  230 	 dec r0
   0076 80 17               231 	 sjmp printf_char
                            232 	
   0078                     233 	printf_format_x:
                            234 	
   0078 B4 78 03            235 	 cjne a, #120, printf_format_f
   007B 02s00rD3            236 	 ljmp printf_hex
                            237 	
   007E                     238 	printf_format_f:
                            239 	
                            240 	
   007E B4 66 03            241 	 cjne a, #102, printf_format_dot
   0081 02s02r28            242 	 ljmp print_float
                            243 	
                            244 	
   0084                     245 	printf_format_dot:
                            246 	
   0084 B4 2E 06            247 	 cjne a, #46, printf_normal
                            248 	
                            249 	
                            250 	
                            251 	
   0087 79r01               252 	 mov r1, #_frac_field_width
   0089 77 00               253 	 mov @r1, #0
                            254 	
                            255 	
   008B 80 9B               256 	 sjmp printf_format_loop
                            257 	
   008D                     258 	printf_normal:
   008D 60 06               259 	 jz printf_eot
   008F                     260 	printf_char:
   008F 12s04r64            261 	 lcall printf_putchar
   0092 02s00r10            262 	 ljmp printf_main_loop
                            263 	
   0095                     264 	printf_eot:
   0095 02s04r7E            265 	 ljmp printf_end
                            266 	
                            267 	
                            268 	
                            269 	
                            270 	
   0098                     271 	printf_string:
   0098 C0 83               272 	 push dph
   009A C0 82               273 	 push dpl
   009C 86 F0               274 	 mov b, @r0
   009E 18                  275 	 dec r0
   009F 86 83               276 	 mov dph, @r0
   00A1 18                  277 	 dec r0
   00A2 86 82               278 	 mov dpl, @r0
   00A4 18                  279 	 dec r0
                            280 	
                            281 	
   00A5 30*04 19            282 	 jnb _field_width_flag, printf_str_loop
   00A8 C2*05               283 	 clr _leading_zero_flag
   00AA C0 82               284 	 push dpl
   00AC C0 83               285 	 push dph
   00AE                     286 	printf_str_fw_loop:
   00AE 12s00r00            287 	 lcall __gptrget
   00B1 60 07               288 	 jz printf_str_space
   00B3 A3                  289 	 inc dptr
   00B4 15*00               290 	 dec _field_width
   00B6 E5*00               291 	 mov a, _field_width
   00B8 70 F4               292 	 jnz printf_str_fw_loop
   00BA                     293 	printf_str_space:
   00BA 12s04r4F            294 	 lcall printf_space
   00BD D0 83               295 	 pop dph
   00BF D0 82               296 	 pop dpl
                            297 	
                            298 	
   00C1                     299 	printf_str_loop:
   00C1 12s00r00            300 	 lcall __gptrget
   00C4 60 06               301 	 jz printf_str_done
   00C6 A3                  302 	 inc dptr
   00C7 12s04r64            303 	 lcall printf_putchar
   00CA 80 F5               304 	 sjmp printf_str_loop
   00CC                     305 	printf_str_done:
   00CC D0 82               306 	 pop dpl
   00CE D0 83               307 	 pop dph
   00D0 02s00r10            308 	 ljmp printf_main_loop
                            309 	
                            310 	
                            311 	
                            312 	
   00D3                     313 	printf_hex:
   00D3 12s00rEB            314 	 lcall printf_hex8
   00D6 20*01 0C            315 	 jb _short_flag, printf_hex_end
   00D9 12s00rEB            316 	 lcall printf_hex8
   00DC 30*00 06            317 	 jnb _long_flag, printf_hex_end
   00DF 12s00rEB            318 	 lcall printf_hex8
   00E2 12s00rEB            319 	 lcall printf_hex8
   00E5                     320 	printf_hex_end:
   00E5 12s04r76            321 	 lcall printf_zero
   00E8 02s00r10            322 	 ljmp printf_main_loop
   00EB                     323 	printf_hex8:
   00EB E6                  324 	 mov a, @r0
   00EC 12s04r54            325 	 lcall printf_phex_msn
   00EF E6                  326 	 mov a, @r0
   00F0 18                  327 	 dec r0
   00F1 02s04r55            328 	 ljmp printf_phex_lsn
                            329 ;	# 368 "printf_fast.c"
   00F4                     330 	printf_int:
   00F4 ED                  331 	 mov a, r5
   00F5 30 E7 1C            332 	 jnb acc.7, printf_uint
   00F8 D2*03               333 	 setb _negative_flag
   00FA E9                  334 	 mov a, r1
   00FB F4                  335 	 cpl a
   00FC 24 01               336 	 add a, #1
   00FE F9                  337 	 mov r1, a
   00FF 20*01 12            338 	 jb _short_flag, printf_uint
   0102 EA                  339 	 mov a, r2
   0103 F4                  340 	 cpl a
   0104 34 00               341 	 addc a, #0
   0106 FA                  342 	 mov r2, a
   0107 30*00 0A            343 	 jnb _long_flag, printf_uint
   010A EB                  344 	 mov a, r3
   010B F4                  345 	 cpl a
   010C 34 00               346 	 addc a, #0
   010E FB                  347 	 mov r3, a
   010F EC                  348 	 mov a, r4
   0110 F4                  349 	 cpl a
   0111 34 00               350 	 addc a, #0
   0113 FC                  351 	 mov r4, a
                            352 	
                            353 	
                            354 	
                            355 	
                            356 	
                            357 	
                            358 	
   0114                     359 	printf_uint:
                            360 	
   0114 20*01 10            361 	 jb _short_flag, printf_uint_ck8
   0117 30*00 08            362 	 jnb _long_flag, printf_uint_ck16
   011A                     363 	printf_uint_ck32:
                            364 	
                            365 	
                            366 	
   011A EB                  367 	 mov a, r3
   011B 70 24               368 	 jnz printf_uint_begin
   011D EC                  369 	 mov a, r4
   011E 70 21               370 	 jnz printf_uint_begin
                            371 	
                            372 	
                            373 	
                            374 	
                            375 	
                            376 	
   0120 C2*00               377 	 clr _long_flag
   0122                     378 	printf_uint_ck16:
                            379 	
                            380 	
   0122 EA                  381 	 mov a, r2
   0123 70 1C               382 	 jnz printf_uint_begin
   0125 D2*01               383 	 setb _short_flag
   0127                     384 	printf_uint_ck8:
                            385 	
                            386 	
   0127 E9                  387 	 mov a, r1
   0128 70 17               388 	 jnz printf_uint_begin
                            389 	
                            390 	
                            391 	
   012A 20*06 14            392 	 jb _continue_float, printf_uint_begin
                            393 	
                            394 	
   012D 30*04 09            395 	 jnb _field_width_flag, printf_uint_zero
   0130 E5*00               396 	 mov a, _field_width
   0132 60 05               397 	 jz printf_uint_zero
   0134 15*00               398 	 dec _field_width
   0136 12s04r4F            399 	 lcall printf_space
                            400 	
   0139                     401 	printf_uint_zero:
                            402 	
   0139 74 30               403 	 mov a, #48
   013B 12s04r64            404 	 lcall printf_putchar
   013E 02s00r10            405 	 ljmp printf_main_loop
                            406 	
   0141                     407 	printf_uint_begin:
   0141 C0 82               408 	 push dpl
   0143 C0 83               409 	 push dph
   0145 12s03r8C            410 	 lcall printf_int2bcd
   0148                     411 	printf_uint_2:
                            412 	
                            413 	
   0148 30*04 60            414 	 jnb _field_width_flag, printf_uifw_end
                            415 	
   014B                     416 	printf_uifw_32:
   014B 79 0A               417 	 mov r1, #10
   014D 30*00 1D            418 	 jnb _long_flag, printf_uifw_16
   0150 EB                  419 	 mov a, r3
   0151 54 F0               420 	 anl a, #0xF0
   0153 70 36               421 	 jnz printf_uifw_sub
   0155 19                  422 	 dec r1
   0156 EB                  423 	 mov a, r3
   0157 54 0F               424 	 anl a, #0x0F
   0159 70 30               425 	 jnz printf_uifw_sub
   015B 19                  426 	 dec r1
   015C EA                  427 	 mov a, r2
   015D 54 F0               428 	 anl a, #0xF0
   015F 70 2A               429 	 jnz printf_uifw_sub
   0161 19                  430 	 dec r1
   0162 EA                  431 	 mov a, r2
   0163 54 0F               432 	 anl a, #0x0F
   0165 70 24               433 	 jnz printf_uifw_sub
   0167 19                  434 	 dec r1
   0168 EF                  435 	 mov a, r7
   0169 54 F0               436 	 anl a, #0xF0
   016B 70 1E               437 	 jnz printf_uifw_sub
                            438 	
   016D                     439 	printf_uifw_16:
   016D 79 05               440 	 mov r1, #5
   016F 20*01 0B            441 	 jb _short_flag, printf_uifw_8
   0172 EF                  442 	 mov a, r7
   0173 54 0F               443 	 anl a, #0x0F
   0175 70 14               444 	 jnz printf_uifw_sub
   0177 19                  445 	 dec r1
   0178 EE                  446 	 mov a, r6
   0179 54 F0               447 	 anl a, #0xF0
   017B 70 0E               448 	 jnz printf_uifw_sub
   017D                     449 	printf_uifw_8:
   017D 79 03               450 	 mov r1, #3
   017F EE                  451 	 mov a, r6
   0180 54 0F               452 	 anl a, #0x0F
   0182 70 07               453 	 jnz printf_uifw_sub
   0184 19                  454 	 dec r1
   0185 ED                  455 	 mov a, r5
   0186 54 F0               456 	 anl a, #0xF0
   0188 70 01               457 	 jnz printf_uifw_sub
   018A 19                  458 	 dec r1
   018B                     459 	printf_uifw_sub:
                            460 	
   018B E5*00               461 	 mov a, _field_width
   018D A2*03               462 	 mov c, _negative_flag
   018F 99                  463 	 subb a, r1
   0190 40 19               464 	 jc printf_uifw_end
   0192 F5*00               465 	 mov _field_width, a
                            466 	
                            467 	
                            468 	
   0194 C0 03               469 	 push ar3
   0196 C0 02               470 	 push ar2
                            471 	
   0198 C0 07               472 	 push ar7
   019A C0 06               473 	 push ar6
   019C C0 05               474 	 push ar5
                            475 	
   019E 12s04r4F            476 	 lcall printf_space
                            477 	
   01A1 D0 05               478 	 pop ar5
   01A3 D0 06               479 	 pop ar6
   01A5 D0 07               480 	 pop ar7
                            481 	
   01A7 D0 02               482 	 pop ar2
   01A9 D0 03               483 	 pop ar3
                            484 	
                            485 	
                            486 	
                            487 	
   01AB                     488 	printf_uifw_end:
                            489 	
                            490 	
                            491 	
   01AB                     492 	printf_uint_doit:
   01AB 30*03 19            493 	 jnb _negative_flag, printf_uint_pos
                            494 	
                            495 	
                            496 	
                            497 	
                            498 	
                            499 	
   01AE C0 03               500 	 push ar3
   01B0 C0 02               501 	 push ar2
                            502 	
   01B2 C0 07               503 	 push ar7
   01B4 C0 06               504 	 push ar6
   01B6 C0 05               505 	 push ar5
                            506 	
   01B8 74 2D               507 	 mov a, #45
   01BA 12s04r64            508 	 lcall printf_putchar
   01BD D0 05               509 	 pop ar5
   01BF D0 06               510 	 pop ar6
   01C1 D0 07               511 	 pop ar7
                            512 	
   01C3 D0 02               513 	 pop ar2
   01C5 D0 03               514 	 pop ar3
                            515 	
                            516 	
                            517 	
   01C7                     518 	printf_uint_pos:
   01C7 20*01 40            519 	 jb _short_flag, printf_uint8
                            520 	
   01CA 30*00 2C            521 	 jnb _long_flag, printf_uint16
   01CD                     522 	printf_uint32:
   01CD C0 05               523 	 push ar5
   01CF C0 06               524 	 push ar6
   01D1 C0 07               525 	 push ar7
   01D3 8A 82               526 	 mov dpl, r2
   01D5 EB                  527 	 mov a, r3
   01D6 F5 83               528 	 mov dph, a
   01D8 12s04r54            529 	 lcall printf_phex_msn
   01DB E5 83               530 	 mov a, dph
   01DD 12s04r55            531 	 lcall printf_phex_lsn
   01E0 E5 82               532 	 mov a, dpl
   01E2 12s04r54            533 	 lcall printf_phex_msn
   01E5 E5 82               534 	 mov a, dpl
   01E7 12s04r55            535 	 lcall printf_phex_lsn
   01EA D0 E0               536 	 pop acc
   01EC F5 82               537 	 mov dpl, a
   01EE 12s04r54            538 	 lcall printf_phex_msn
   01F1 E5 82               539 	 mov a, dpl
   01F3 D0 83               540 	 pop dph
   01F5 D0 82               541 	 pop dpl
   01F7 80 05               542 	 sjmp printf_uint16a
                            543 	
                            544 	
   01F9                     545 	printf_uint16:
   01F9 8D 82               546 	 mov dpl, r5
   01FB 8E 83               547 	 mov dph, r6
   01FD EF                  548 	 mov a, r7
   01FE                     549 	printf_uint16a:
   01FE 12s04r55            550 	 lcall printf_phex_lsn
   0201 E5 83               551 	 mov a, dph
   0203 12s04r54            552 	 lcall printf_phex_msn
   0206 E5 83               553 	 mov a, dph
   0208 80 03               554 	 sjmp printf_uint8a
                            555 	
   020A                     556 	printf_uint8:
   020A 8D 82               557 	 mov dpl, r5
   020C EE                  558 	 mov a, r6
   020D                     559 	printf_uint8a:
   020D 12s04r55            560 	 lcall printf_phex_lsn
   0210 E5 82               561 	 mov a, dpl
   0212 12s04r54            562 	 lcall printf_phex_msn
   0215 E5 82               563 	 mov a, dpl
   0217 12s04r55            564 	 lcall printf_phex_lsn
   021A 12s04r76            565 	 lcall printf_zero
   021D D0 83               566 	 pop dph
   021F D0 82               567 	 pop dpl
                            568 	
   0221 30*06 01            569 	 jnb _continue_float, 0002$
   0224 22                  570 	 ret
   0225                     571 	0002$:
                            572 	
   0225 02s00r10            573 	 ljmp printf_main_loop
                            574 ;	# 742 "printf_fast.c"
   0228                     575 	print_float:
                            576 ;	# 754 "printf_fast.c"
   0228                     577 	print_float_1:
                            578 	
   0228 30*04 0E            579 	 jnb _field_width_flag, print_float_default_width
                            580 	
                            581 	
   022B E5*00               582 	 mov a, _field_width
   022D D3                  583 	 setb c
   022E 95*01               584 	 subb a, _frac_field_width
   0230 F5*00               585 	 mov _field_width, a
   0232 50 28               586 	 jnc print_float_begin
   0234 75*00 00            587 	 mov _field_width, #0
   0237 80 23               588 	 sjmp print_float_begin
                            589 	
   0239                     590 	print_float_default_width:
                            591 ;	# 778 "printf_fast.c"
   0239 E6                  592 	 mov a, @r0
   023A 54 7F               593 	 anl a, #0x7F
   023C FA                  594 	 mov r2, a
   023D 18                  595 	 dec r0
   023E 86 03               596 	 mov ar3, @r0
   0240 08                  597 	 inc r0
   0241 AE 82               598 	 mov r6, dpl
   0243 AF 83               599 	 mov r7, dph
   0245 90s01rCC            600 	 mov dptr, #_float_range_table
   0248 7D 07               601 	 mov r5, #7
   024A                     602 	print_float_default_loop:
   024A E4                  603 	 clr a
   024B 93                  604 	 movc a, @a+dptr
   024C 2B                  605 	 add a, r3
   024D A3                  606 	 inc dptr
   024E E4                  607 	 clr a
   024F 93                  608 	 movc a, @a+dptr
   0250 3A                  609 	 addc a, r2
   0251 50 03               610 	 jnc print_float_default_done
   0253 A3                  611 	 inc dptr
   0254 DD F4               612 	 djnz r5, print_float_default_loop
   0256                     613 	print_float_default_done:
   0256 8D*01               614 	 mov _frac_field_width, r5
   0258 8E 82               615 	 mov dpl, r6
   025A 8F 83               616 	 mov dph, r7
                            617 	
                            618 	
   025C                     619 	print_float_begin:
   025C C0 00               620 	 push ar0
   025E 12s03r54            621 	 lcall printf_get_float
   0261 C0 82               622 	 push dpl
   0263 C0 83               623 	 push dph
   0265 EF                  624 	 mov a, r7
   0266 B4 7E 02            625 	 cjne a, #126, print_float_frac_lshift
   0269 80 19               626 	 sjmp print_float_frac
                            627 	
   026B                     628 	print_float_frac_lshift:
   026B 40 11               629 	 jc print_float_frac_rshift
                            630 	
   026D 24 82               631 	 add a, #130
   026F FD                  632 	 mov r5, a
   0270                     633 	print_float_lshift_loop:
   0270 C3                  634 	 clr c
   0271 EA                  635 	 mov a, r2
   0272 33                  636 	 rlc a
   0273 FA                  637 	 mov r2, a
   0274 EB                  638 	 mov a, r3
   0275 33                  639 	 rlc a
   0276 FB                  640 	 mov r3, a
   0277 EC                  641 	 mov a, r4
   0278 33                  642 	 rlc a
   0279 FC                  643 	 mov r4, a
   027A DD F4               644 	 djnz r5, print_float_lshift_loop
   027C 80 06               645 	 sjmp print_float_frac
   027E                     646 	print_float_frac_rshift:
                            647 	
   027E F4                  648 	 cpl a
   027F 24 7F               649 	 add a, #127
   0281 12s00r00            650 	 lcall fs_rshift_a
   0284                     651 	print_float_frac:
                            652 	
   0284 75 F0 1B            653 	 mov b, #27
   0287 E4                  654 	 clr a
   0288 F8                  655 	 mov r0, a
   0289 FF                  656 	 mov r7, a
   028A FE                  657 	 mov r6, a
   028B FD                  658 	 mov r5, a
   028C 90s01r60            659 	 mov dptr, #_frac2bcd
   028F                     660 	print_float_frac_loop:
   028F E9                  661 	 mov a, r1
   0290 33                  662 	 rlc a
   0291 F9                  663 	 mov r1, a
   0292 EA                  664 	 mov a, r2
   0293 33                  665 	 rlc a
   0294 FA                  666 	 mov r2, a
   0295 EB                  667 	 mov a, r3
   0296 33                  668 	 rlc a
   0297 FB                  669 	 mov r3, a
   0298 EC                  670 	 mov a, r4
   0299 33                  671 	 rlc a
   029A FC                  672 	 mov r4, a
   029B 50 17               673 	 jnc print_float_frac_skip
   029D E4                  674 	 clr a
   029E 93                  675 	 movc a, @a+dptr
   029F 2D                  676 	 add a, r5
   02A0 D4                  677 	 da a
   02A1 FD                  678 	 mov r5, a
   02A2 74 01               679 	 mov a, #1
   02A4 93                  680 	 movc a, @a+dptr
   02A5 3E                  681 	 addc a, r6
   02A6 D4                  682 	 da a
   02A7 FE                  683 	 mov r6, a
   02A8 74 02               684 	 mov a, #2
   02AA 93                  685 	 movc a, @a+dptr
   02AB 3F                  686 	 addc a, r7
   02AC D4                  687 	 da a
   02AD FF                  688 	 mov r7, a
   02AE 74 03               689 	 mov a, #3
   02B0 93                  690 	 movc a, @a+dptr
   02B1 38                  691 	 addc a, r0
   02B2 D4                  692 	 da a
   02B3 F8                  693 	 mov r0, a
   02B4                     694 	print_float_frac_skip:
   02B4 A3                  695 	 inc dptr
   02B5 A3                  696 	 inc dptr
   02B6 A3                  697 	 inc dptr
   02B7 A3                  698 	 inc dptr
   02B8 D5 F0 D4            699 	 djnz b, print_float_frac_loop
   02BB                     700 	print_float_frac_roundoff:
                            701 	
   02BB E4                  702 	 clr a
   02BC 7C 50               703 	 mov r4, #0x50
   02BE FB                  704 	 mov r3, a
   02BF FA                  705 	 mov r2, a
   02C0 F9                  706 	 mov r1, a
   02C1 E5*01               707 	 mov a, _frac_field_width
   02C3 23                  708 	 rl a
   02C4 23                  709 	 rl a
   02C5 54 FC               710 	 anl a, #0xFC
   02C7 88 83               711 	 mov dph, r0
   02C9 12s00r00            712 	 lcall fs_rshift_a
   02CC ED                  713 	 mov a, r5
   02CD 29                  714 	 add a, r1
   02CE D4                  715 	 da a
   02CF F5*05               716 	 mov _float_frac_bcd+3, a
   02D1 EE                  717 	 mov a, r6
   02D2 3A                  718 	 addc a, r2
   02D3 D4                  719 	 da a
   02D4 F5*04               720 	 mov _float_frac_bcd+2, a
   02D6 EF                  721 	 mov a, r7
   02D7 3B                  722 	 addc a, r3
   02D8 D4                  723 	 da a
   02D9 F5*03               724 	 mov _float_frac_bcd+1, a
   02DB E5 83               725 	 mov a, dph
   02DD 3C                  726 	 addc a, r4
   02DE D4                  727 	 da a
   02DF F5*02               728 	 mov _float_frac_bcd+0, a
   02E1 92 D5               729 	 mov psw.5, c
   02E3 D0 83               730 	 pop dph
   02E5 D0 82               731 	 pop dpl
   02E7                     732 	print_float_int:
                            733 	
                            734 	
                            735 	
   02E7 D0 00               736 	 pop ar0
   02E9 12s03r54            737 	 lcall printf_get_float
   02EC C0 00               738 	 push ar0
   02EE C3                  739 	 clr c
   02EF 74 9E               740 	 mov a, #158
   02F1 9F                  741 	 subb a, r7
   02F2 50 05               742 	 jnc print_float_size_ok
   02F4                     743 	printf_float_too_big:
                            744 	
   02F4 D0 00               745 	 pop ar0
   02F6 02s00r28            746 	 ljmp printf_format_loop
   02F9                     747 	print_float_size_ok:
   02F9 C0 82               748 	 push dpl
   02FB 12s00r00            749 	 lcall fs_rshift_a
   02FE D0 82               750 	 pop dpl
   0300 30 D5 0F            751 	 jnb psw.5, print_float_do_int
                            752 	
                            753 	
   0303 E9                  754 	 mov a, r1
   0304 24 01               755 	 add a, #1
   0306 F9                  756 	 mov r1, a
   0307 E4                  757 	 clr a
   0308 3A                  758 	 addc a, r2
   0309 FA                  759 	 mov r2, a
                            760 	
   030A E4                  761 	 clr a
   030B 3B                  762 	 addc a, r3
   030C FB                  763 	 mov r3, a
   030D E4                  764 	 clr a
   030E 3C                  765 	 addc a, r4
   030F FC                  766 	 mov r4, a
                            767 	
   0310 40 E2               768 	 jc printf_float_too_big
   0312                     769 	print_float_do_int:
                            770 	
                            771 	
                            772 	
                            773 	
                            774 	
   0312 D2*06               775 	 setb _continue_float
   0314 12s01r14            776 	 lcall printf_uint
                            777 	
                            778 	
   0317                     779 	print_float_frac_width:
                            780 	
                            781 	
                            782 	
   0317 20*04 0C            783 	 jb _field_width_flag, print_float_do_frac
                            784 	
                            785 	
                            786 	
                            787 	
   031A                     788 	print_float_frac_trim:
   031A E5*01               789 	 mov a, _frac_field_width
   031C 60 08               790 	 jz print_float_do_frac
   031E 12s03r44            791 	 lcall get_float_frac_digit
   0321 70 03               792 	 jnz print_float_do_frac
   0323 D5*01 F4            793 	 djnz _frac_field_width, print_float_frac_trim
                            794 	
                            795 	
   0326                     796 	print_float_do_frac:
   0326 E5*01               797 	 mov a, _frac_field_width
   0328 60 15               798 	 jz print_float_done
                            799 	
   032A 74 2E               800 	 mov a, #0x2E
   032C 12s04r64            801 	 lcall printf_putchar
   032F 78 00               802 	 mov r0, #0
   0331 D2*02               803 	 setb _print_zero_flag
   0333                     804 	print_float_do_frac_loop:
   0333 08                  805 	 inc r0
   0334 E8                  806 	 mov a, r0
   0335 12s03r44            807 	 lcall get_float_frac_digit
   0338 12s04r55            808 	 lcall printf_phex_lsn
   033B E8                  809 	 mov a, r0
   033C B5*01 F4            810 	 cjne a, _frac_field_width, print_float_do_frac_loop
                            811 	
   033F                     812 	print_float_done:
   033F D0 00               813 	 pop ar0
   0341 02s00r10            814 	 ljmp printf_main_loop
                            815 	
                            816 	
                            817 	
   0344                     818 	get_float_frac_digit:
   0344 14                  819 	 dec a
   0345 C3                  820 	 clr c
   0346 13                  821 	 rrc a
   0347 92 D5               822 	 mov psw.5, c
   0349 24r02               823 	 add a, #_float_frac_bcd
   034B F9                  824 	 mov r1, a
   034C E7                  825 	 mov a, @r1
   034D 20 D5 01            826 	 jb psw.5, get_float_frac_digit_done
   0350 C4                  827 	 swap a
   0351                     828 	get_float_frac_digit_done:
   0351 54 0F               829 	 anl a, #15
   0353 22                  830 	 ret
                            831 ;	# 1039 "printf_fast.c"
   0354                     832 	printf_get_float:
   0354 E6                  833 	 mov a, @r0
   0355 18                  834 	 dec r0
   0356 F9                  835 	 mov r1, a
   0357 E6                  836 	 mov a, @r0
   0358 18                  837 	 dec r0
   0359 FC                  838 	 mov r4, a
   035A 33                  839 	 rlc a
   035B E9                  840 	 mov a, r1
   035C 33                  841 	 rlc a
   035D 92*03               842 	 mov _negative_flag, c
   035F FF                  843 	 mov r7, a
   0360 60 03               844 	 jz printf_get_float_2
   0362 43 04 80            845 	 orl ar4, #0x80
   0365                     846 	printf_get_float_2:
   0365 E6                  847 	 mov a, @r0
   0366 18                  848 	 dec r0
   0367 FB                  849 	 mov r3, a
   0368 E6                  850 	 mov a, @r0
   0369 18                  851 	 dec r0
   036A FA                  852 	 mov r2, a
   036B 79 00               853 	 mov r1, #0
   036D C2*01               854 	 clr _short_flag
   036F D2*00               855 	 setb _long_flag
   0371 22                  856 	 ret
                            857 	
                            858 	
                            859 	
                            860 	
   0372                     861 	printf_get_int:
   0372 E6                  862 	 mov a, @r0
   0373 F9                  863 	 mov r1, a
   0374 FD                  864 	 mov r5, a
   0375 18                  865 	 dec r0
   0376 20*01 12            866 	 jb _short_flag, printf_get_done
   0379 AA 01               867 	 mov r2, ar1
   037B E6                  868 	 mov a, @r0
   037C F9                  869 	 mov r1, a
   037D 18                  870 	 dec r0
   037E 30*00 0A            871 	 jnb _long_flag, printf_get_done
   0381 AC 02               872 	 mov r4, ar2
   0383 AB 01               873 	 mov r3, ar1
   0385 E6                  874 	 mov a, @r0
   0386 FA                  875 	 mov r2, a
   0387 18                  876 	 dec r0
   0388 E6                  877 	 mov a, @r0
   0389 F9                  878 	 mov r1, a
   038A 18                  879 	 dec r0
   038B                     880 	printf_get_done:
   038B 22                  881 	 ret
                            882 ;	# 1100 "printf_fast.c"
   038C                     883 	printf_int2bcd:
   038C E9                  884 	 mov a, r1
   038D 75 F0 64            885 	 mov b, #100
   0390 84                  886 	 div ab
   0391 FE                  887 	 mov r6, a
   0392 74 0A               888 	 mov a, #10
   0394 C5 F0               889 	 xch a, b
   0396 84                  890 	 div ab
   0397 C4                  891 	 swap a
   0398 45 F0               892 	 orl a, b
   039A FD                  893 	 mov r5, a
                            894 	
   039B 30*01 01            895 	 jnb _short_flag, printf_i2bcd_16
   039E 22                  896 	 ret
                            897 	
   039F                     898 	printf_i2bcd_16:
   039F EA                  899 	 mov a, r2
   03A0 54 0F               900 	 anl a, #0x0F
   03A2 F9                  901 	 mov r1, a
   03A3 90s00r00            902 	 mov dptr, #_int2bcd_2
   03A6 93                  903 	 movc a, @a+dptr
   03A7 2D                  904 	 add a, r5
   03A8 D4                  905 	 da a
   03A9 FD                  906 	 mov r5, a
   03AA E9                  907 	 mov a, r1
   03AB 44 10               908 	 orl a, #16
   03AD 93                  909 	 movc a, @a+dptr
   03AE 3E                  910 	 addc a, r6
   03AF D4                  911 	 da a
   03B0 FE                  912 	 mov r6, a
                            913 	
   03B1 EA                  914 	 mov a, r2
   03B2 C4                  915 	 swap a
   03B3 54 0F               916 	 anl a, #0x0F
   03B5 F9                  917 	 mov r1, a
   03B6 90s00r20            918 	 mov dptr, #_int2bcd_3
   03B9 93                  919 	 movc a, @a+dptr
   03BA 2D                  920 	 add a, r5
   03BB D4                  921 	 da a
   03BC FD                  922 	 mov r5, a
   03BD E9                  923 	 mov a, r1
   03BE 44 10               924 	 orl a, #16
   03C0 93                  925 	 movc a, @a+dptr
   03C1 3E                  926 	 addc a, r6
   03C2 D4                  927 	 da a
   03C3 FE                  928 	 mov r6, a
   03C4 E9                  929 	 mov a, r1
   03C5 44 20               930 	 orl a, #32
   03C7 93                  931 	 movc a, @a+dptr
   03C8 34 00               932 	 addc a, #0
   03CA D4                  933 	 da a
   03CB FF                  934 	 mov r7, a
                            935 	
   03CC 20*00 01            936 	 jb _long_flag, printf_i2bcd_32
   03CF 22                  937 	 ret
                            938 	
   03D0                     939 	printf_i2bcd_32:
                            940 	
                            941 	
   03D0 EB                  942 	 mov a, r3
   03D1 54 0F               943 	 anl a, #0x0F
   03D3 F9                  944 	 mov r1, a
   03D4 90s00r50            945 	 mov dptr, #_int2bcd_4
   03D7 93                  946 	 movc a, @a+dptr
   03D8 2D                  947 	 add a, r5
   03D9 D4                  948 	 da a
   03DA FD                  949 	 mov r5, a
   03DB E9                  950 	 mov a, r1
   03DC 44 10               951 	 orl a, #16
   03DE 93                  952 	 movc a, @a+dptr
   03DF 3E                  953 	 addc a, r6
   03E0 D4                  954 	 da a
   03E1 FE                  955 	 mov r6, a
   03E2 E9                  956 	 mov a, r1
   03E3 44 20               957 	 orl a, #32
   03E5 93                  958 	 movc a, @a+dptr
   03E6 3F                  959 	 addc a, r7
   03E7 D4                  960 	 da a
   03E8 FF                  961 	 mov r7, a
   03E9 E4                  962 	 clr a
   03EA 34 00               963 	 addc a, #0
   03EC FA                  964 	 mov r2, a
                            965 	
   03ED EB                  966 	 mov a, r3
   03EE C4                  967 	 swap a
   03EF 54 0F               968 	 anl a, #0x0F
   03F1 F9                  969 	 mov r1, a
   03F2 90s00r80            970 	 mov dptr, #_int2bcd_5
   03F5 93                  971 	 movc a, @a+dptr
   03F6 2D                  972 	 add a, r5
   03F7 D4                  973 	 da a
   03F8 FD                  974 	 mov r5, a
   03F9 E9                  975 	 mov a, r1
   03FA 44 10               976 	 orl a, #16
   03FC 93                  977 	 movc a, @a+dptr
   03FD 3E                  978 	 addc a, r6
   03FE D4                  979 	 da a
   03FF FE                  980 	 mov r6, a
   0400 E9                  981 	 mov a, r1
   0401 44 20               982 	 orl a, #32
   0403 93                  983 	 movc a, @a+dptr
   0404 3F                  984 	 addc a, r7
   0405 D4                  985 	 da a
   0406 FF                  986 	 mov r7, a
   0407 E9                  987 	 mov a, r1
   0408 44 30               988 	 orl a, #48
   040A 93                  989 	 movc a, @a+dptr
   040B 3A                  990 	 addc a, r2
   040C D4                  991 	 da a
   040D FA                  992 	 mov r2, a
                            993 	
   040E EC                  994 	 mov a, r4
   040F 54 0F               995 	 anl a, #0x0F
   0411 F9                  996 	 mov r1, a
   0412 90s00rC0            997 	 mov dptr, #_int2bcd_6
   0415 7B 00               998 	 mov r3, #0
   0417 12s04r22            999 	 lcall printf_bcd_add10
                           1000 	
   041A EC                 1001 	 mov a, r4
   041B C4                 1002 	 swap a
   041C 54 0F              1003 	 anl a, #0x0F
   041E F9                 1004 	 mov r1, a
   041F 90s01r10           1005 	 mov dptr, #_int2bcd_7
   0422                    1006 	printf_bcd_add10:
   0422 93                 1007 	 movc a, @a+dptr
   0423 2D                 1008 	 add a, r5
   0424 D4                 1009 	 da a
   0425 FD                 1010 	 mov r5, a
   0426 E9                 1011 	 mov a, r1
   0427 44 10              1012 	 orl a, #16
   0429 93                 1013 	 movc a, @a+dptr
   042A 3E                 1014 	 addc a, r6
   042B D4                 1015 	 da a
   042C FE                 1016 	 mov r6, a
   042D E9                 1017 	 mov a, r1
   042E 44 20              1018 	 orl a, #32
   0430 93                 1019 	 movc a, @a+dptr
   0431 3F                 1020 	 addc a, r7
   0432 D4                 1021 	 da a
   0433 FF                 1022 	 mov r7, a
   0434 E9                 1023 	 mov a, r1
   0435 44 30              1024 	 orl a, #48
   0437 93                 1025 	 movc a, @a+dptr
   0438 3A                 1026 	 addc a, r2
   0439 D4                 1027 	 da a
   043A FA                 1028 	 mov r2, a
   043B E9                 1029 	 mov a, r1
   043C 44 40              1030 	 orl a, #64
   043E 93                 1031 	 movc a, @a+dptr
   043F 3B                 1032 	 addc a, r3
   0440 D4                 1033 	 da a
   0441 FB                 1034 	 mov r3, a
                           1035 	
   0442 22                 1036 	 ret
                           1037 ;	# 1382 "printf_fast.c"
   0443                    1038 	printf_space_loop:
                           1039 	
   0443 74 20              1040 	 mov a, #32
   0445 30*05 02           1041 	 jnb _leading_zero_flag, printf_space_output
                           1042 	
   0448 74 30              1043 	 mov a, #48
   044A                    1044 	printf_space_output:
   044A 12s04r64           1045 	 lcall printf_putchar
   044D 15*00              1046 	 dec _field_width
   044F                    1047 	printf_space:
   044F E5*00              1048 	 mov a, _field_width
   0451 70 F0              1049 	 jnz printf_space_loop
   0453 22                 1050 	 ret
                           1051 	
                           1052 	
                           1053 	
                           1054 	
   0454                    1055 	printf_phex_msn:
   0454 C4                 1056 	 swap a
   0455                    1057 	printf_phex_lsn:
   0455 54 0F              1058 	 anl a, #15
   0457 70 03              1059 	 jnz printf_phex_ok
   0459 30*02 19           1060 	 jnb _print_zero_flag, printf_ret
   045C                    1061 	printf_phex_ok:
   045C D2*02              1062 	 setb _print_zero_flag
   045E 24 90              1063 	 add a, #0x90
   0460 D4                 1064 	 da a
   0461 34 40              1065 	 addc a, #0x40
   0463 D4                 1066 	 da a
   0464                    1067 	printf_putchar:
                           1068 ;	# 1420 "printf_fast.c"
   0464 C0 83              1069 	 push dph
   0466 C0 82              1070 	 push dpl
   0468 C0 00              1071 	 push ar0
   046A F5 82              1072 	 mov dpl, a
   046C 12s00r00           1073 	 lcall _putchar
   046F D0 00              1074 	 pop ar0
   0471 D0 82              1075 	 pop dpl
   0473 D0 83              1076 	 pop dph
                           1077 	
   0475                    1078 	printf_ret:
   0475 22                 1079 	 ret
                           1080 	
                           1081 	
                           1082 	
                           1083 	
   0476                    1084 	printf_zero:
   0476 20*02 FC           1085 	        jb _print_zero_flag, printf_ret
                           1086 	
   0479 74 30              1087 	        mov a, #48
   047B 02s04r64           1088 	        ljmp printf_putchar
                           1089 	
   047E                    1090 	printf_end:
                           1091 	 
   047E D0*00              1092 	pop	_bp
   0480 22                 1093 	ret
                           1094 	.area CSEG    (CODE)
                           1095 	.area CONST   (CODE)
   0000                    1096 _int2bcd_2:
   0000 00                 1097 	.db #0x00	; 0
   0001 56                 1098 	.db #0x56	; 86	V
   0002 12                 1099 	.db #0x12	; 18
   0003 68                 1100 	.db #0x68	; 104	h
   0004 24                 1101 	.db #0x24	; 36
   0005 80                 1102 	.db #0x80	; 128
   0006 36                 1103 	.db #0x36	; 54
   0007 92                 1104 	.db #0x92	; 146
   0008 48                 1105 	.db #0x48	; 72	H
   0009 04                 1106 	.db #0x04	; 4
   000A 60                 1107 	.db #0x60	; 96
   000B 16                 1108 	.db #0x16	; 22
   000C 72                 1109 	.db #0x72	; 114	r
   000D 28                 1110 	.db #0x28	; 40
   000E 84                 1111 	.db #0x84	; 132
   000F 40                 1112 	.db #0x40	; 64
   0010 00                 1113 	.db #0x00	; 0
   0011 02                 1114 	.db #0x02	; 2
   0012 05                 1115 	.db #0x05	; 5
   0013 07                 1116 	.db #0x07	; 7
   0014 10                 1117 	.db #0x10	; 16
   0015 12                 1118 	.db #0x12	; 18
   0016 15                 1119 	.db #0x15	; 21
   0017 17                 1120 	.db #0x17	; 23
   0018 20                 1121 	.db #0x20	; 32
   0019 23                 1122 	.db #0x23	; 35
   001A 25                 1123 	.db #0x25	; 37
   001B 28                 1124 	.db #0x28	; 40
   001C 30                 1125 	.db #0x30	; 48
   001D 33                 1126 	.db #0x33	; 51
   001E 35                 1127 	.db #0x35	; 53
   001F 38                 1128 	.db #0x38	; 56
   0020                    1129 _int2bcd_3:
   0020 00                 1130 	.db #0x00	; 0
   0021 96                 1131 	.db #0x96	; 150
   0022 92                 1132 	.db #0x92	; 146
   0023 88                 1133 	.db #0x88	; 136
   0024 84                 1134 	.db #0x84	; 132
   0025 80                 1135 	.db #0x80	; 128
   0026 76                 1136 	.db #0x76	; 118	v
   0027 72                 1137 	.db #0x72	; 114	r
   0028 68                 1138 	.db #0x68	; 104	h
   0029 64                 1139 	.db #0x64	; 100	d
   002A 60                 1140 	.db #0x60	; 96
   002B 56                 1141 	.db #0x56	; 86	V
   002C 52                 1142 	.db #0x52	; 82	R
   002D 48                 1143 	.db #0x48	; 72	H
   002E 44                 1144 	.db #0x44	; 68	D
   002F 40                 1145 	.db #0x40	; 64
   0030 00                 1146 	.db #0x00	; 0
   0031 40                 1147 	.db #0x40	; 64
   0032 81                 1148 	.db #0x81	; 129
   0033 22                 1149 	.db #0x22	; 34
   0034 63                 1150 	.db #0x63	; 99	c
   0035 04                 1151 	.db #0x04	; 4
   0036 45                 1152 	.db #0x45	; 69	E
   0037 86                 1153 	.db #0x86	; 134
   0038 27                 1154 	.db #0x27	; 39
   0039 68                 1155 	.db #0x68	; 104	h
   003A 09                 1156 	.db #0x09	; 9
   003B 50                 1157 	.db #0x50	; 80	P
   003C 91                 1158 	.db #0x91	; 145
   003D 32                 1159 	.db #0x32	; 50
   003E 73                 1160 	.db #0x73	; 115	s
   003F 14                 1161 	.db #0x14	; 20
   0040 00                 1162 	.db #0x00	; 0
   0041 00                 1163 	.db #0x00	; 0
   0042 00                 1164 	.db #0x00	; 0
   0043 01                 1165 	.db #0x01	; 1
   0044 01                 1166 	.db #0x01	; 1
   0045 02                 1167 	.db #0x02	; 2
   0046 02                 1168 	.db #0x02	; 2
   0047 02                 1169 	.db #0x02	; 2
   0048 03                 1170 	.db #0x03	; 3
   0049 03                 1171 	.db #0x03	; 3
   004A 04                 1172 	.db #0x04	; 4
   004B 04                 1173 	.db #0x04	; 4
   004C 04                 1174 	.db #0x04	; 4
   004D 05                 1175 	.db #0x05	; 5
   004E 05                 1176 	.db #0x05	; 5
   004F 06                 1177 	.db #0x06	; 6
   0050                    1178 _int2bcd_4:
   0050 00                 1179 	.db #0x00	; 0
   0051 36                 1180 	.db #0x36	; 54
   0052 72                 1181 	.db #0x72	; 114	r
   0053 08                 1182 	.db #0x08	; 8
   0054 44                 1183 	.db #0x44	; 68	D
   0055 80                 1184 	.db #0x80	; 128
   0056 16                 1185 	.db #0x16	; 22
   0057 52                 1186 	.db #0x52	; 82	R
   0058 88                 1187 	.db #0x88	; 136
   0059 24                 1188 	.db #0x24	; 36
   005A 60                 1189 	.db #0x60	; 96
   005B 96                 1190 	.db #0x96	; 150
   005C 32                 1191 	.db #0x32	; 50
   005D 68                 1192 	.db #0x68	; 104	h
   005E 04                 1193 	.db #0x04	; 4
   005F 40                 1194 	.db #0x40	; 64
   0060 00                 1195 	.db #0x00	; 0
   0061 55                 1196 	.db #0x55	; 85	U
   0062 10                 1197 	.db #0x10	; 16
   0063 66                 1198 	.db #0x66	; 102	f
   0064 21                 1199 	.db #0x21	; 33
   0065 76                 1200 	.db #0x76	; 118	v
   0066 32                 1201 	.db #0x32	; 50
   0067 87                 1202 	.db #0x87	; 135
   0068 42                 1203 	.db #0x42	; 66	B
   0069 98                 1204 	.db #0x98	; 152
   006A 53                 1205 	.db #0x53	; 83	S
   006B 08                 1206 	.db #0x08	; 8
   006C 64                 1207 	.db #0x64	; 100	d
   006D 19                 1208 	.db #0x19	; 25
   006E 75                 1209 	.db #0x75	; 117	u
   006F 30                 1210 	.db #0x30	; 48
   0070 00                 1211 	.db #0x00	; 0
   0071 06                 1212 	.db #0x06	; 6
   0072 13                 1213 	.db #0x13	; 19
   0073 19                 1214 	.db #0x19	; 25
   0074 26                 1215 	.db #0x26	; 38
   0075 32                 1216 	.db #0x32	; 50
   0076 39                 1217 	.db #0x39	; 57
   0077 45                 1218 	.db #0x45	; 69	E
   0078 52                 1219 	.db #0x52	; 82	R
   0079 58                 1220 	.db #0x58	; 88	X
   007A 65                 1221 	.db #0x65	; 101	e
   007B 72                 1222 	.db #0x72	; 114	r
   007C 78                 1223 	.db #0x78	; 120	x
   007D 85                 1224 	.db #0x85	; 133
   007E 91                 1225 	.db #0x91	; 145
   007F 98                 1226 	.db #0x98	; 152
   0080                    1227 _int2bcd_5:
   0080 00                 1228 	.db #0x00	; 0
   0081 76                 1229 	.db #0x76	; 118	v
   0082 52                 1230 	.db #0x52	; 82	R
   0083 28                 1231 	.db #0x28	; 40
   0084 04                 1232 	.db #0x04	; 4
   0085 80                 1233 	.db #0x80	; 128
   0086 56                 1234 	.db #0x56	; 86	V
   0087 32                 1235 	.db #0x32	; 50
   0088 08                 1236 	.db #0x08	; 8
   0089 84                 1237 	.db #0x84	; 132
   008A 60                 1238 	.db #0x60	; 96
   008B 36                 1239 	.db #0x36	; 54
   008C 12                 1240 	.db #0x12	; 18
   008D 88                 1241 	.db #0x88	; 136
   008E 64                 1242 	.db #0x64	; 100	d
   008F 40                 1243 	.db #0x40	; 64
   0090 00                 1244 	.db #0x00	; 0
   0091 85                 1245 	.db #0x85	; 133
   0092 71                 1246 	.db #0x71	; 113	q
   0093 57                 1247 	.db #0x57	; 87	W
   0094 43                 1248 	.db #0x43	; 67	C
   0095 28                 1249 	.db #0x28	; 40
   0096 14                 1250 	.db #0x14	; 20
   0097 00                 1251 	.db #0x00	; 0
   0098 86                 1252 	.db #0x86	; 134
   0099 71                 1253 	.db #0x71	; 113	q
   009A 57                 1254 	.db #0x57	; 87	W
   009B 43                 1255 	.db #0x43	; 67	C
   009C 29                 1256 	.db #0x29	; 41
   009D 14                 1257 	.db #0x14	; 20
   009E 00                 1258 	.db #0x00	; 0
   009F 86                 1259 	.db #0x86	; 134
   00A0 00                 1260 	.db #0x00	; 0
   00A1 04                 1261 	.db #0x04	; 4
   00A2 09                 1262 	.db #0x09	; 9
   00A3 14                 1263 	.db #0x14	; 20
   00A4 19                 1264 	.db #0x19	; 25
   00A5 24                 1265 	.db #0x24	; 36
   00A6 29                 1266 	.db #0x29	; 41
   00A7 34                 1267 	.db #0x34	; 52
   00A8 38                 1268 	.db #0x38	; 56
   00A9 43                 1269 	.db #0x43	; 67	C
   00AA 48                 1270 	.db #0x48	; 72	H
   00AB 53                 1271 	.db #0x53	; 83	S
   00AC 58                 1272 	.db #0x58	; 88	X
   00AD 63                 1273 	.db #0x63	; 99	c
   00AE 68                 1274 	.db #0x68	; 104	h
   00AF 72                 1275 	.db #0x72	; 114	r
   00B0 00                 1276 	.db #0x00	; 0
   00B1 01                 1277 	.db #0x01	; 1
   00B2 02                 1278 	.db #0x02	; 2
   00B3 03                 1279 	.db #0x03	; 3
   00B4 04                 1280 	.db #0x04	; 4
   00B5 05                 1281 	.db #0x05	; 5
   00B6 06                 1282 	.db #0x06	; 6
   00B7 07                 1283 	.db #0x07	; 7
   00B8 08                 1284 	.db #0x08	; 8
   00B9 09                 1285 	.db #0x09	; 9
   00BA 10                 1286 	.db #0x10	; 16
   00BB 11                 1287 	.db #0x11	; 17
   00BC 12                 1288 	.db #0x12	; 18
   00BD 13                 1289 	.db #0x13	; 19
   00BE 14                 1290 	.db #0x14	; 20
   00BF 15                 1291 	.db #0x15	; 21
   00C0                    1292 _int2bcd_6:
   00C0 00                 1293 	.db #0x00	; 0
   00C1 16                 1294 	.db #0x16	; 22
   00C2 32                 1295 	.db #0x32	; 50
   00C3 48                 1296 	.db #0x48	; 72	H
   00C4 64                 1297 	.db #0x64	; 100	d
   00C5 80                 1298 	.db #0x80	; 128
   00C6 96                 1299 	.db #0x96	; 150
   00C7 12                 1300 	.db #0x12	; 18
   00C8 28                 1301 	.db #0x28	; 40
   00C9 44                 1302 	.db #0x44	; 68	D
   00CA 60                 1303 	.db #0x60	; 96
   00CB 76                 1304 	.db #0x76	; 118	v
   00CC 92                 1305 	.db #0x92	; 146
   00CD 08                 1306 	.db #0x08	; 8
   00CE 24                 1307 	.db #0x24	; 36
   00CF 40                 1308 	.db #0x40	; 64
   00D0 00                 1309 	.db #0x00	; 0
   00D1 72                 1310 	.db #0x72	; 114	r
   00D2 44                 1311 	.db #0x44	; 68	D
   00D3 16                 1312 	.db #0x16	; 22
   00D4 88                 1313 	.db #0x88	; 136
   00D5 60                 1314 	.db #0x60	; 96
   00D6 32                 1315 	.db #0x32	; 50
   00D7 05                 1316 	.db #0x05	; 5
   00D8 77                 1317 	.db #0x77	; 119	w
   00D9 49                 1318 	.db #0x49	; 73	I
   00DA 21                 1319 	.db #0x21	; 33
   00DB 93                 1320 	.db #0x93	; 147
   00DC 65                 1321 	.db #0x65	; 101	e
   00DD 38                 1322 	.db #0x38	; 56
   00DE 10                 1323 	.db #0x10	; 16
   00DF 82                 1324 	.db #0x82	; 130
   00E0 00                 1325 	.db #0x00	; 0
   00E1 77                 1326 	.db #0x77	; 119	w
   00E2 55                 1327 	.db #0x55	; 85	U
   00E3 33                 1328 	.db #0x33	; 51
   00E4 10                 1329 	.db #0x10	; 16
   00E5 88                 1330 	.db #0x88	; 136
   00E6 66                 1331 	.db #0x66	; 102	f
   00E7 44                 1332 	.db #0x44	; 68	D
   00E8 21                 1333 	.db #0x21	; 33
   00E9 99                 1334 	.db #0x99	; 153
   00EA 77                 1335 	.db #0x77	; 119	w
   00EB 54                 1336 	.db #0x54	; 84	T
   00EC 32                 1337 	.db #0x32	; 50
   00ED 10                 1338 	.db #0x10	; 16
   00EE 88                 1339 	.db #0x88	; 136
   00EF 65                 1340 	.db #0x65	; 101	e
   00F0 00                 1341 	.db #0x00	; 0
   00F1 16                 1342 	.db #0x16	; 22
   00F2 33                 1343 	.db #0x33	; 51
   00F3 50                 1344 	.db #0x50	; 80	P
   00F4 67                 1345 	.db #0x67	; 103	g
   00F5 83                 1346 	.db #0x83	; 131
   00F6 00                 1347 	.db #0x00	; 0
   00F7 17                 1348 	.db #0x17	; 23
   00F8 34                 1349 	.db #0x34	; 52
   00F9 50                 1350 	.db #0x50	; 80	P
   00FA 67                 1351 	.db #0x67	; 103	g
   00FB 84                 1352 	.db #0x84	; 132
   00FC 01                 1353 	.db #0x01	; 1
   00FD 18                 1354 	.db #0x18	; 24
   00FE 34                 1355 	.db #0x34	; 52
   00FF 51                 1356 	.db #0x51	; 81	Q
   0100 00                 1357 	.db #0x00	; 0
   0101 00                 1358 	.db #0x00	; 0
   0102 00                 1359 	.db #0x00	; 0
   0103 00                 1360 	.db #0x00	; 0
   0104 00                 1361 	.db #0x00	; 0
   0105 00                 1362 	.db #0x00	; 0
   0106 01                 1363 	.db #0x01	; 1
   0107 01                 1364 	.db #0x01	; 1
   0108 01                 1365 	.db #0x01	; 1
   0109 01                 1366 	.db #0x01	; 1
   010A 01                 1367 	.db #0x01	; 1
   010B 01                 1368 	.db #0x01	; 1
   010C 02                 1369 	.db #0x02	; 2
   010D 02                 1370 	.db #0x02	; 2
   010E 02                 1371 	.db #0x02	; 2
   010F 02                 1372 	.db #0x02	; 2
   0110                    1373 _int2bcd_7:
   0110 00                 1374 	.db #0x00	; 0
   0111 56                 1375 	.db #0x56	; 86	V
   0112 12                 1376 	.db #0x12	; 18
   0113 68                 1377 	.db #0x68	; 104	h
   0114 24                 1378 	.db #0x24	; 36
   0115 80                 1379 	.db #0x80	; 128
   0116 36                 1380 	.db #0x36	; 54
   0117 92                 1381 	.db #0x92	; 146
   0118 48                 1382 	.db #0x48	; 72	H
   0119 04                 1383 	.db #0x04	; 4
   011A 60                 1384 	.db #0x60	; 96
   011B 16                 1385 	.db #0x16	; 22
   011C 72                 1386 	.db #0x72	; 114	r
   011D 28                 1387 	.db #0x28	; 40
   011E 84                 1388 	.db #0x84	; 132
   011F 40                 1389 	.db #0x40	; 64
   0120 00                 1390 	.db #0x00	; 0
   0121 54                 1391 	.db #0x54	; 84	T
   0122 09                 1392 	.db #0x09	; 9
   0123 63                 1393 	.db #0x63	; 99	c
   0124 18                 1394 	.db #0x18	; 24
   0125 72                 1395 	.db #0x72	; 114	r
   0126 27                 1396 	.db #0x27	; 39
   0127 81                 1397 	.db #0x81	; 129
   0128 36                 1398 	.db #0x36	; 54
   0129 91                 1399 	.db #0x91	; 145
   012A 45                 1400 	.db #0x45	; 69	E
   012B 00                 1401 	.db #0x00	; 0
   012C 54                 1402 	.db #0x54	; 84	T
   012D 09                 1403 	.db #0x09	; 9
   012E 63                 1404 	.db #0x63	; 99	c
   012F 18                 1405 	.db #0x18	; 24
   0130 00                 1406 	.db #0x00	; 0
   0131 43                 1407 	.db #0x43	; 67	C
   0132 87                 1408 	.db #0x87	; 135
   0133 30                 1409 	.db #0x30	; 48
   0134 74                 1410 	.db #0x74	; 116	t
   0135 17                 1411 	.db #0x17	; 23
   0136 61                 1412 	.db #0x61	; 97	a
   0137 04                 1413 	.db #0x04	; 4
   0138 48                 1414 	.db #0x48	; 72	H
   0139 91                 1415 	.db #0x91	; 145
   013A 35                 1416 	.db #0x35	; 53
   013B 79                 1417 	.db #0x79	; 121	y
   013C 22                 1418 	.db #0x22	; 34
   013D 66                 1419 	.db #0x66	; 102	f
   013E 09                 1420 	.db #0x09	; 9
   013F 53                 1421 	.db #0x53	; 83	S
   0140 00                 1422 	.db #0x00	; 0
   0141 68                 1423 	.db #0x68	; 104	h
   0142 36                 1424 	.db #0x36	; 54
   0143 05                 1425 	.db #0x05	; 5
   0144 73                 1426 	.db #0x73	; 115	s
   0145 42                 1427 	.db #0x42	; 66	B
   0146 10                 1428 	.db #0x10	; 16
   0147 79                 1429 	.db #0x79	; 121	y
   0148 47                 1430 	.db #0x47	; 71	G
   0149 15                 1431 	.db #0x15	; 21
   014A 84                 1432 	.db #0x84	; 132
   014B 52                 1433 	.db #0x52	; 82	R
   014C 21                 1434 	.db #0x21	; 33
   014D 89                 1435 	.db #0x89	; 137
   014E 58                 1436 	.db #0x58	; 88	X
   014F 26                 1437 	.db #0x26	; 38
   0150 00                 1438 	.db #0x00	; 0
   0151 02                 1439 	.db #0x02	; 2
   0152 05                 1440 	.db #0x05	; 5
   0153 08                 1441 	.db #0x08	; 8
   0154 10                 1442 	.db #0x10	; 16
   0155 13                 1443 	.db #0x13	; 19
   0156 16                 1444 	.db #0x16	; 22
   0157 18                 1445 	.db #0x18	; 24
   0158 21                 1446 	.db #0x21	; 33
   0159 24                 1447 	.db #0x24	; 36
   015A 26                 1448 	.db #0x26	; 38
   015B 29                 1449 	.db #0x29	; 41
   015C 32                 1450 	.db #0x32	; 50
   015D 34                 1451 	.db #0x34	; 52
   015E 37                 1452 	.db #0x37	; 55
   015F 40                 1453 	.db #0x40	; 64
   0160                    1454 _frac2bcd:
   0160 00                 1455 	.db #0x00	; 0
   0161 00                 1456 	.db #0x00	; 0
   0162 00                 1457 	.db #0x00	; 0
   0163 50                 1458 	.db #0x50	; 80	P
   0164 00                 1459 	.db #0x00	; 0
   0165 00                 1460 	.db #0x00	; 0
   0166 00                 1461 	.db #0x00	; 0
   0167 25                 1462 	.db #0x25	; 37
   0168 00                 1463 	.db #0x00	; 0
   0169 00                 1464 	.db #0x00	; 0
   016A 50                 1465 	.db #0x50	; 80	P
   016B 12                 1466 	.db #0x12	; 18
   016C 00                 1467 	.db #0x00	; 0
   016D 00                 1468 	.db #0x00	; 0
   016E 25                 1469 	.db #0x25	; 37
   016F 06                 1470 	.db #0x06	; 6
   0170 00                 1471 	.db #0x00	; 0
   0171 50                 1472 	.db #0x50	; 80	P
   0172 12                 1473 	.db #0x12	; 18
   0173 03                 1474 	.db #0x03	; 3
   0174 00                 1475 	.db #0x00	; 0
   0175 25                 1476 	.db #0x25	; 37
   0176 56                 1477 	.db #0x56	; 86	V
   0177 01                 1478 	.db #0x01	; 1
   0178 50                 1479 	.db #0x50	; 80	P
   0179 12                 1480 	.db #0x12	; 18
   017A 78                 1481 	.db #0x78	; 120	x
   017B 00                 1482 	.db #0x00	; 0
   017C 25                 1483 	.db #0x25	; 37
   017D 06                 1484 	.db #0x06	; 6
   017E 39                 1485 	.db #0x39	; 57
   017F 00                 1486 	.db #0x00	; 0
   0180 12                 1487 	.db #0x12	; 18
   0181 53                 1488 	.db #0x53	; 83	S
   0182 19                 1489 	.db #0x19	; 25
   0183 00                 1490 	.db #0x00	; 0
   0184 56                 1491 	.db #0x56	; 86	V
   0185 76                 1492 	.db #0x76	; 118	v
   0186 09                 1493 	.db #0x09	; 9
   0187 00                 1494 	.db #0x00	; 0
   0188 28                 1495 	.db #0x28	; 40
   0189 88                 1496 	.db #0x88	; 136
   018A 04                 1497 	.db #0x04	; 4
   018B 00                 1498 	.db #0x00	; 0
   018C 14                 1499 	.db #0x14	; 20
   018D 44                 1500 	.db #0x44	; 68	D
   018E 02                 1501 	.db #0x02	; 2
   018F 00                 1502 	.db #0x00	; 0
   0190 07                 1503 	.db #0x07	; 7
   0191 22                 1504 	.db #0x22	; 34
   0192 01                 1505 	.db #0x01	; 1
   0193 00                 1506 	.db #0x00	; 0
   0194 04                 1507 	.db #0x04	; 4
   0195 61                 1508 	.db #0x61	; 97	a
   0196 00                 1509 	.db #0x00	; 0
   0197 00                 1510 	.db #0x00	; 0
   0198 52                 1511 	.db #0x52	; 82	R
   0199 30                 1512 	.db #0x30	; 48
   019A 00                 1513 	.db #0x00	; 0
   019B 00                 1514 	.db #0x00	; 0
   019C 26                 1515 	.db #0x26	; 38
   019D 15                 1516 	.db #0x15	; 21
   019E 00                 1517 	.db #0x00	; 0
   019F 00                 1518 	.db #0x00	; 0
   01A0 63                 1519 	.db #0x63	; 99	c
   01A1 07                 1520 	.db #0x07	; 7
   01A2 00                 1521 	.db #0x00	; 0
   01A3 00                 1522 	.db #0x00	; 0
   01A4 81                 1523 	.db #0x81	; 129
   01A5 03                 1524 	.db #0x03	; 3
   01A6 00                 1525 	.db #0x00	; 0
   01A7 00                 1526 	.db #0x00	; 0
   01A8 91                 1527 	.db #0x91	; 145
   01A9 01                 1528 	.db #0x01	; 1
   01AA 00                 1529 	.db #0x00	; 0
   01AB 00                 1530 	.db #0x00	; 0
   01AC 95                 1531 	.db #0x95	; 149
   01AD 00                 1532 	.db #0x00	; 0
   01AE 00                 1533 	.db #0x00	; 0
   01AF 00                 1534 	.db #0x00	; 0
   01B0 48                 1535 	.db #0x48	; 72	H
   01B1 00                 1536 	.db #0x00	; 0
   01B2 00                 1537 	.db #0x00	; 0
   01B3 00                 1538 	.db #0x00	; 0
   01B4 24                 1539 	.db #0x24	; 36
   01B5 00                 1540 	.db #0x00	; 0
   01B6 00                 1541 	.db #0x00	; 0
   01B7 00                 1542 	.db #0x00	; 0
   01B8 12                 1543 	.db #0x12	; 18
   01B9 00                 1544 	.db #0x00	; 0
   01BA 00                 1545 	.db #0x00	; 0
   01BB 00                 1546 	.db #0x00	; 0
   01BC 06                 1547 	.db #0x06	; 6
   01BD 00                 1548 	.db #0x00	; 0
   01BE 00                 1549 	.db #0x00	; 0
   01BF 00                 1550 	.db #0x00	; 0
   01C0 03                 1551 	.db #0x03	; 3
   01C1 00                 1552 	.db #0x00	; 0
   01C2 00                 1553 	.db #0x00	; 0
   01C3 00                 1554 	.db #0x00	; 0
   01C4 01                 1555 	.db #0x01	; 1
   01C5 00                 1556 	.db #0x00	; 0
   01C6 00                 1557 	.db #0x00	; 0
   01C7 00                 1558 	.db #0x00	; 0
   01C8 01                 1559 	.db #0x01	; 1
   01C9 00                 1560 	.db #0x00	; 0
   01CA 00                 1561 	.db #0x00	; 0
   01CB 00                 1562 	.db #0x00	; 0
   01CC                    1563 _float_range_table:
   01CC 7D C5              1564 	.byte #0x7D,#0xC5	; 50557
   01CE DD C3              1565 	.byte #0xDD,#0xC3	; 50141
   01D0 34 C2              1566 	.byte #0x34,#0xC2	; 49716
   01D2 E0 BE              1567 	.byte #0xE0,#0xBE	; 48864
   01D4 38 BD              1568 	.byte #0x38,#0xBD	; 48440
   01D6 86 BB              1569 	.byte #0x86,#0xBB	; 48006
   01D8 E4 B9              1570 	.byte #0xE4,#0xB9	; 47588
                           1571 	.area XINIT   (CODE)
                           1572 	.area CABS    (ABS,CODE)
