                              1 ;--------------------------------------------------------
                              2 ; File Created by SDCC : free open source ANSI-C Compiler
                              3 ; Version 3.0.1 #6227 (Oct  2 2015) (Linux)
                              4 ; This file was generated Fri Oct  2 17:15:25 2015
                              5 ;--------------------------------------------------------
                              6 	.module sincoshf
                              7 	.optsdcc -mmcs51 --model-medium
                              8 	
                              9 ;--------------------------------------------------------
                             10 ; Public variables in this module
                             11 ;--------------------------------------------------------
                             12 	.globl _sincoshf
                             13 	.globl _sincoshf_PARM_2
                             14 ;--------------------------------------------------------
                             15 ; special function registers
                             16 ;--------------------------------------------------------
                             17 	.area RSEG    (ABS,DATA)
   0000                      18 	.org 0x0000
                             19 ;--------------------------------------------------------
                             20 ; special function bits
                             21 ;--------------------------------------------------------
                             22 	.area RSEG    (ABS,DATA)
   0000                      23 	.org 0x0000
                             24 ;--------------------------------------------------------
                             25 ; overlayable register banks
                             26 ;--------------------------------------------------------
                             27 	.area REG_BANK_0	(REL,OVR,DATA)
   0000                      28 	.ds 8
                             29 ;--------------------------------------------------------
                             30 ; internal ram data
                             31 ;--------------------------------------------------------
                             32 	.area DSEG    (DATA)
   0000                      33 _sincoshf_sloc0_1_0:
   0000                      34 	.ds 4
                             35 ;--------------------------------------------------------
                             36 ; overlayable items in internal ram 
                             37 ;--------------------------------------------------------
                             38 	.area OSEG    (OVR,DATA)
                             39 ;--------------------------------------------------------
                             40 ; indirectly addressable internal ram data
                             41 ;--------------------------------------------------------
                             42 	.area ISEG    (DATA)
                             43 ;--------------------------------------------------------
                             44 ; absolute internal ram data
                             45 ;--------------------------------------------------------
                             46 	.area IABS    (ABS,DATA)
                             47 	.area IABS    (ABS,DATA)
                             48 ;--------------------------------------------------------
                             49 ; bit data
                             50 ;--------------------------------------------------------
                             51 	.area BSEG    (BIT)
   0000                      52 _sincoshf_sign_1_1:
   0000                      53 	.ds 1
                             54 ;--------------------------------------------------------
                             55 ; paged external ram data
                             56 ;--------------------------------------------------------
                             57 	.area PSEG    (PAG,XDATA)
   0000                      58 _sincoshf_PARM_2:
   0000                      59 	.ds 2
   0002                      60 _sincoshf_x_1_1:
   0002                      61 	.ds 4
   0006                      62 _sincoshf_z_1_1:
   0006                      63 	.ds 4
                             64 ;--------------------------------------------------------
                             65 ; external ram data
                             66 ;--------------------------------------------------------
                             67 	.area XSEG    (XDATA)
                             68 ;--------------------------------------------------------
                             69 ; absolute external ram data
                             70 ;--------------------------------------------------------
                             71 	.area XABS    (ABS,XDATA)
                             72 ;--------------------------------------------------------
                             73 ; external initialized ram data
                             74 ;--------------------------------------------------------
                             75 	.area XISEG   (XDATA)
                             76 	.area HOME    (CODE)
                             77 	.area GSINIT0 (CODE)
                             78 	.area GSINIT1 (CODE)
                             79 	.area GSINIT2 (CODE)
                             80 	.area GSINIT3 (CODE)
                             81 	.area GSINIT4 (CODE)
                             82 	.area GSINIT5 (CODE)
                             83 	.area GSINIT  (CODE)
                             84 	.area GSFINAL (CODE)
                             85 	.area CSEG    (CODE)
                             86 ;--------------------------------------------------------
                             87 ; global & static initialisations
                             88 ;--------------------------------------------------------
                             89 	.area HOME    (CODE)
                             90 	.area GSINIT  (CODE)
                             91 	.area GSFINAL (CODE)
                             92 	.area GSINIT  (CODE)
                             93 ;--------------------------------------------------------
                             94 ; Home
                             95 ;--------------------------------------------------------
                             96 	.area HOME    (CODE)
                             97 	.area HOME    (CODE)
                             98 ;--------------------------------------------------------
                             99 ; code
                            100 ;--------------------------------------------------------
                            101 	.area CSEG    (CODE)
                            102 ;------------------------------------------------------------
                            103 ;Allocation info for local variables in function 'sincoshf'
                            104 ;------------------------------------------------------------
                            105 ;sloc0                     Allocated with name '_sincoshf_sloc0_1_0'
                            106 ;------------------------------------------------------------
                            107 ;	sincoshf.c:53: float sincoshf(const float x, const int iscosh)
                            108 ;	-----------------------------------------
                            109 ;	 function sincoshf
                            110 ;	-----------------------------------------
   0000                     111 _sincoshf:
                    0002    112 	ar2 = 0x02
                    0003    113 	ar3 = 0x03
                    0004    114 	ar4 = 0x04
                    0005    115 	ar5 = 0x05
                    0006    116 	ar6 = 0x06
                    0007    117 	ar7 = 0x07
                    0000    118 	ar0 = 0x00
                    0001    119 	ar1 = 0x01
   0000 AA 82               120 	mov	r2,dpl
   0002 AB 83               121 	mov	r3,dph
   0004 AC F0               122 	mov	r4,b
   0006 FD                  123 	mov	r5,a
   0007 78r02               124 	mov	r0,#_sincoshf_x_1_1
   0009 EA                  125 	mov	a,r2
   000A F2                  126 	movx	@r0,a
   000B 08                  127 	inc	r0
   000C EB                  128 	mov	a,r3
   000D F2                  129 	movx	@r0,a
   000E 08                  130 	inc	r0
   000F EC                  131 	mov	a,r4
   0010 F2                  132 	movx	@r0,a
   0011 08                  133 	inc	r0
   0012 ED                  134 	mov	a,r5
   0013 F2                  135 	movx	@r0,a
                            136 ;	sincoshf.c:58: if (x<0.0) { y=-x; sign=1; }
   0014 E4                  137 	clr	a
   0015 C0 E0               138 	push	acc
   0017 C0 E0               139 	push	acc
   0019 C0 E0               140 	push	acc
   001B C0 E0               141 	push	acc
   001D 78r02               142 	mov	r0,#_sincoshf_x_1_1
   001F E2                  143 	movx	a,@r0
   0020 F5 82               144 	mov	dpl,a
   0022 08                  145 	inc	r0
   0023 E2                  146 	movx	a,@r0
   0024 F5 83               147 	mov	dph,a
   0026 08                  148 	inc	r0
   0027 E2                  149 	movx	a,@r0
   0028 F5 F0               150 	mov	b,a
   002A 08                  151 	inc	r0
   002B E2                  152 	movx	a,@r0
   002C 12s00r00            153 	lcall	___fslt
   002F AE 82               154 	mov	r6,dpl
   0031 E5 81               155 	mov	a,sp
   0033 24 FC               156 	add	a,#0xfc
   0035 F5 81               157 	mov	sp,a
   0037 EE                  158 	mov	a,r6
   0038 60 13               159 	jz	00102$
   003A 78r02               160 	mov	r0,#_sincoshf_x_1_1
   003C E2                  161 	movx	a,@r0
   003D FA                  162 	mov	r2,a
   003E 08                  163 	inc	r0
   003F E2                  164 	movx	a,@r0
   0040 FB                  165 	mov	r3,a
   0041 08                  166 	inc	r0
   0042 E2                  167 	movx	a,@r0
   0043 FC                  168 	mov	r4,a
   0044 08                  169 	inc	r0
   0045 E2                  170 	movx	a,@r0
   0046 B2 E7               171 	cpl	acc.7
   0048 FD                  172 	mov	r5,a
   0049 D2*00               173 	setb	_sincoshf_sign_1_1
   004B 80 0F               174 	sjmp	00103$
   004D                     175 00102$:
                            176 ;	sincoshf.c:59: else { y=x;  sign=0; }
   004D 78r02               177 	mov	r0,#_sincoshf_x_1_1
   004F E2                  178 	movx	a,@r0
   0050 FA                  179 	mov	r2,a
   0051 08                  180 	inc	r0
   0052 E2                  181 	movx	a,@r0
   0053 FB                  182 	mov	r3,a
   0054 08                  183 	inc	r0
   0055 E2                  184 	movx	a,@r0
   0056 FC                  185 	mov	r4,a
   0057 08                  186 	inc	r0
   0058 E2                  187 	movx	a,@r0
   0059 FD                  188 	mov	r5,a
   005A C2*00               189 	clr	_sincoshf_sign_1_1
   005C                     190 00103$:
                            191 ;	sincoshf.c:61: if ((y>1.0) || iscosh)
   005C C0 02               192 	push	ar2
   005E C0 03               193 	push	ar3
   0060 C0 04               194 	push	ar4
   0062 C0 05               195 	push	ar5
   0064 E4                  196 	clr	a
   0065 C0 E0               197 	push	acc
   0067 C0 E0               198 	push	acc
   0069 74 80               199 	mov	a,#0x80
   006B C0 E0               200 	push	acc
   006D 74 3F               201 	mov	a,#0x3F
   006F C0 E0               202 	push	acc
   0071 8A 82               203 	mov	dpl,r2
   0073 8B 83               204 	mov	dph,r3
   0075 8C F0               205 	mov	b,r4
   0077 ED                  206 	mov	a,r5
   0078 12s00r00            207 	lcall	___fsgt
   007B AE 82               208 	mov	r6,dpl
   007D E5 81               209 	mov	a,sp
   007F 24 FC               210 	add	a,#0xfc
   0081 F5 81               211 	mov	sp,a
   0083 D0 05               212 	pop	ar5
   0085 D0 04               213 	pop	ar4
   0087 D0 03               214 	pop	ar3
   0089 D0 02               215 	pop	ar2
   008B EE                  216 	mov	a,r6
   008C 70 0E               217 	jnz	00117$
   008E 78r00               218 	mov	r0,#_sincoshf_PARM_2
   0090 E2                  219 	movx	a,@r0
   0091 F5 F0               220 	mov	b,a
   0093 08                  221 	inc	r0
   0094 E2                  222 	movx	a,@r0
   0095 45 F0               223 	orl	a,b
   0097 70 03               224 	jnz	00132$
   0099 02s02r8C            225 	ljmp	00118$
   009C                     226 00132$:
   009C                     227 00117$:
                            228 ;	sincoshf.c:63: if(y>YBAR)
   009C C0 02               229 	push	ar2
   009E C0 03               230 	push	ar3
   00A0 C0 04               231 	push	ar4
   00A2 C0 05               232 	push	ar5
   00A4 E4                  233 	clr	a
   00A5 C0 E0               234 	push	acc
   00A7 C0 E0               235 	push	acc
   00A9 74 10               236 	mov	a,#0x10
   00AB C0 E0               237 	push	acc
   00AD 74 41               238 	mov	a,#0x41
   00AF C0 E0               239 	push	acc
   00B1 8A 82               240 	mov	dpl,r2
   00B3 8B 83               241 	mov	dph,r3
   00B5 8C F0               242 	mov	b,r4
   00B7 ED                  243 	mov	a,r5
   00B8 12s00r00            244 	lcall	___fsgt
   00BB AE 82               245 	mov	r6,dpl
   00BD E5 81               246 	mov	a,sp
   00BF 24 FC               247 	add	a,#0xfc
   00C1 F5 81               248 	mov	sp,a
   00C3 D0 05               249 	pop	ar5
   00C5 D0 04               250 	pop	ar4
   00C7 D0 03               251 	pop	ar3
   00C9 D0 02               252 	pop	ar2
   00CB EE                  253 	mov	a,r6
   00CC 70 03               254 	jnz	00133$
   00CE 02s01rC8            255 	ljmp	00110$
   00D1                     256 00133$:
                            257 ;	sincoshf.c:65: w=y-K1;
   00D1 E4                  258 	clr	a
   00D2 C0 E0               259 	push	acc
   00D4 74 73               260 	mov	a,#0x73
   00D6 C0 E0               261 	push	acc
   00D8 74 31               262 	mov	a,#0x31
   00DA C0 E0               263 	push	acc
   00DC 74 3F               264 	mov	a,#0x3F
   00DE C0 E0               265 	push	acc
   00E0 8A 82               266 	mov	dpl,r2
   00E2 8B 83               267 	mov	dph,r3
   00E4 8C F0               268 	mov	b,r4
   00E6 ED                  269 	mov	a,r5
   00E7 12s00r00            270 	lcall	___fssub
   00EA AA 82               271 	mov	r2,dpl
   00EC AB 83               272 	mov	r3,dph
   00EE AC F0               273 	mov	r4,b
   00F0 FD                  274 	mov	r5,a
   00F1 E5 81               275 	mov	a,sp
   00F3 24 FC               276 	add	a,#0xfc
   00F5 F5 81               277 	mov	sp,a
                            278 ;	sincoshf.c:66: if (w>WMAX)
   00F7 C0 02               279 	push	ar2
   00F9 C0 03               280 	push	ar3
   00FB C0 04               281 	push	ar4
   00FD C0 05               282 	push	ar5
   00FF 74 CF               283 	mov	a,#0xCF
   0101 C0 E0               284 	push	acc
   0103 74 BD               285 	mov	a,#0xBD
   0105 C0 E0               286 	push	acc
   0107 74 33               287 	mov	a,#0x33
   0109 C0 E0               288 	push	acc
   010B 74 42               289 	mov	a,#0x42
   010D C0 E0               290 	push	acc
   010F 8A 82               291 	mov	dpl,r2
   0111 8B 83               292 	mov	dph,r3
   0113 8C F0               293 	mov	b,r4
   0115 ED                  294 	mov	a,r5
   0116 12s00r00            295 	lcall	___fsgt
   0119 AE 82               296 	mov	r6,dpl
   011B E5 81               297 	mov	a,sp
   011D 24 FC               298 	add	a,#0xfc
   011F F5 81               299 	mov	sp,a
   0121 D0 05               300 	pop	ar5
   0123 D0 04               301 	pop	ar4
   0125 D0 03               302 	pop	ar3
   0127 D0 02               303 	pop	ar2
   0129 EE                  304 	mov	a,r6
   012A 60 1C               305 	jz	00105$
                            306 ;	sincoshf.c:68: errno=ERANGE;
   012C 78r00               307 	mov	r0,#_errno
   012E 74 22               308 	mov	a,#0x22
   0130 F2                  309 	movx	@r0,a
   0131 08                  310 	inc	r0
   0132 E4                  311 	clr	a
   0133 F2                  312 	movx	@r0,a
                            313 ;	sincoshf.c:69: z=HUGE_VALF;
   0134 78r06               314 	mov	r0,#_sincoshf_z_1_1
   0136 74 FF               315 	mov	a,#0xFF
   0138 F2                  316 	movx	@r0,a
   0139 08                  317 	inc	r0
   013A 74 FF               318 	mov	a,#0xFF
   013C F2                  319 	movx	@r0,a
   013D 08                  320 	inc	r0
   013E 74 7F               321 	mov	a,#0x7F
   0140 F2                  322 	movx	@r0,a
   0141 08                  323 	inc	r0
   0142 74 7F               324 	mov	a,#0x7F
   0144 F2                  325 	movx	@r0,a
   0145 02s02r74            326 	ljmp	00111$
   0148                     327 00105$:
                            328 ;	sincoshf.c:73: z=expf(w);
   0148 8A 82               329 	mov	dpl,r2
   014A 8B 83               330 	mov	dph,r3
   014C 8C F0               331 	mov	b,r4
   014E ED                  332 	mov	a,r5
   014F 12s00r00            333 	lcall	_expf
   0152 78r06               334 	mov	r0,#_sincoshf_z_1_1
   0154 C0 E0               335 	push	acc
   0156 E5 82               336 	mov	a,dpl
   0158 F2                  337 	movx	@r0,a
   0159 08                  338 	inc	r0
   015A E5 83               339 	mov	a,dph
   015C F2                  340 	movx	@r0,a
   015D 08                  341 	inc	r0
   015E E5 F0               342 	mov	a,b
   0160 F2                  343 	movx	@r0,a
   0161 D0 E0               344 	pop	acc
   0163 08                  345 	inc	r0
   0164 F2                  346 	movx	@r0,a
                            347 ;	sincoshf.c:74: z+=K3*z;
   0165 78r06               348 	mov	r0,#_sincoshf_z_1_1
   0167 E2                  349 	movx	a,@r0
   0168 C0 E0               350 	push	acc
   016A 08                  351 	inc	r0
   016B E2                  352 	movx	a,@r0
   016C C0 E0               353 	push	acc
   016E 08                  354 	inc	r0
   016F E2                  355 	movx	a,@r0
   0170 C0 E0               356 	push	acc
   0172 08                  357 	inc	r0
   0173 E2                  358 	movx	a,@r0
   0174 C0 E0               359 	push	acc
   0176 90 08 97            360 	mov	dptr,#0x0897
   0179 75 F0 68            361 	mov	b,#0x68
   017C 74 37               362 	mov	a,#0x37
   017E 12s00r00            363 	lcall	___fsmul
   0181 85 82*00            364 	mov	_sincoshf_sloc0_1_0,dpl
   0184 85 83*01            365 	mov	(_sincoshf_sloc0_1_0 + 1),dph
   0187 85 F0*02            366 	mov	(_sincoshf_sloc0_1_0 + 2),b
   018A F5*03               367 	mov	(_sincoshf_sloc0_1_0 + 3),a
   018C E5 81               368 	mov	a,sp
   018E 24 FC               369 	add	a,#0xfc
   0190 F5 81               370 	mov	sp,a
   0192 C0*00               371 	push	_sincoshf_sloc0_1_0
   0194 C0*01               372 	push	(_sincoshf_sloc0_1_0 + 1)
   0196 C0*02               373 	push	(_sincoshf_sloc0_1_0 + 2)
   0198 C0*03               374 	push	(_sincoshf_sloc0_1_0 + 3)
   019A 78r06               375 	mov	r0,#_sincoshf_z_1_1
   019C E2                  376 	movx	a,@r0
   019D F5 82               377 	mov	dpl,a
   019F 08                  378 	inc	r0
   01A0 E2                  379 	movx	a,@r0
   01A1 F5 83               380 	mov	dph,a
   01A3 08                  381 	inc	r0
   01A4 E2                  382 	movx	a,@r0
   01A5 F5 F0               383 	mov	b,a
   01A7 08                  384 	inc	r0
   01A8 E2                  385 	movx	a,@r0
   01A9 12s00r00            386 	lcall	___fsadd
   01AC 78r06               387 	mov	r0,#_sincoshf_z_1_1
   01AE C0 E0               388 	push	acc
   01B0 E5 82               389 	mov	a,dpl
   01B2 F2                  390 	movx	@r0,a
   01B3 08                  391 	inc	r0
   01B4 E5 83               392 	mov	a,dph
   01B6 F2                  393 	movx	@r0,a
   01B7 08                  394 	inc	r0
   01B8 E5 F0               395 	mov	a,b
   01BA F2                  396 	movx	@r0,a
   01BB D0 E0               397 	pop	acc
   01BD 08                  398 	inc	r0
   01BE F2                  399 	movx	@r0,a
   01BF E5 81               400 	mov	a,sp
   01C1 24 FC               401 	add	a,#0xfc
   01C3 F5 81               402 	mov	sp,a
   01C5 02s02r74            403 	ljmp	00111$
   01C8                     404 00110$:
                            405 ;	sincoshf.c:79: z=expf(y);
   01C8 8A 82               406 	mov	dpl,r2
   01CA 8B 83               407 	mov	dph,r3
   01CC 8C F0               408 	mov	b,r4
   01CE ED                  409 	mov	a,r5
   01CF 12s00r00            410 	lcall	_expf
   01D2 78r06               411 	mov	r0,#_sincoshf_z_1_1
   01D4 C0 E0               412 	push	acc
   01D6 E5 82               413 	mov	a,dpl
   01D8 F2                  414 	movx	@r0,a
   01D9 08                  415 	inc	r0
   01DA E5 83               416 	mov	a,dph
   01DC F2                  417 	movx	@r0,a
   01DD 08                  418 	inc	r0
   01DE E5 F0               419 	mov	a,b
   01E0 F2                  420 	movx	@r0,a
   01E1 D0 E0               421 	pop	acc
   01E3 08                  422 	inc	r0
   01E4 F2                  423 	movx	@r0,a
                            424 ;	sincoshf.c:80: w=1.0/z;
   01E5 78r06               425 	mov	r0,#_sincoshf_z_1_1
   01E7 E2                  426 	movx	a,@r0
   01E8 C0 E0               427 	push	acc
   01EA 08                  428 	inc	r0
   01EB E2                  429 	movx	a,@r0
   01EC C0 E0               430 	push	acc
   01EE 08                  431 	inc	r0
   01EF E2                  432 	movx	a,@r0
   01F0 C0 E0               433 	push	acc
   01F2 08                  434 	inc	r0
   01F3 E2                  435 	movx	a,@r0
   01F4 C0 E0               436 	push	acc
   01F6 90 00 00            437 	mov	dptr,#0x0000
   01F9 75 F0 80            438 	mov	b,#0x80
   01FC 74 3F               439 	mov	a,#0x3F
   01FE 12s00r00            440 	lcall	___fsdiv
   0201 AA 82               441 	mov	r2,dpl
   0203 AB 83               442 	mov	r3,dph
   0205 AC F0               443 	mov	r4,b
   0207 FD                  444 	mov	r5,a
   0208 E5 81               445 	mov	a,sp
   020A 24 FC               446 	add	a,#0xfc
   020C F5 81               447 	mov	sp,a
                            448 ;	sincoshf.c:81: if(!iscosh) w=-w;
   020E 78r00               449 	mov	r0,#_sincoshf_PARM_2
   0210 E2                  450 	movx	a,@r0
   0211 F5 F0               451 	mov	b,a
   0213 08                  452 	inc	r0
   0214 E2                  453 	movx	a,@r0
   0215 45 F0               454 	orl	a,b
   0217 70 04               455 	jnz	00108$
   0219 ED                  456 	mov	a,r5
   021A B2 E7               457 	cpl	acc.7
   021C FD                  458 	mov	r5,a
   021D                     459 00108$:
                            460 ;	sincoshf.c:82: z=(z+w)*0.5;
   021D C0 02               461 	push	ar2
   021F C0 03               462 	push	ar3
   0221 C0 04               463 	push	ar4
   0223 C0 05               464 	push	ar5
   0225 78r06               465 	mov	r0,#_sincoshf_z_1_1
   0227 E2                  466 	movx	a,@r0
   0228 F5 82               467 	mov	dpl,a
   022A 08                  468 	inc	r0
   022B E2                  469 	movx	a,@r0
   022C F5 83               470 	mov	dph,a
   022E 08                  471 	inc	r0
   022F E2                  472 	movx	a,@r0
   0230 F5 F0               473 	mov	b,a
   0232 08                  474 	inc	r0
   0233 E2                  475 	movx	a,@r0
   0234 12s00r00            476 	lcall	___fsadd
   0237 85 82*00            477 	mov	_sincoshf_sloc0_1_0,dpl
   023A 85 83*01            478 	mov	(_sincoshf_sloc0_1_0 + 1),dph
   023D 85 F0*02            479 	mov	(_sincoshf_sloc0_1_0 + 2),b
   0240 F5*03               480 	mov	(_sincoshf_sloc0_1_0 + 3),a
   0242 E5 81               481 	mov	a,sp
   0244 24 FC               482 	add	a,#0xfc
   0246 F5 81               483 	mov	sp,a
   0248 C0*00               484 	push	_sincoshf_sloc0_1_0
   024A C0*01               485 	push	(_sincoshf_sloc0_1_0 + 1)
   024C C0*02               486 	push	(_sincoshf_sloc0_1_0 + 2)
   024E C0*03               487 	push	(_sincoshf_sloc0_1_0 + 3)
   0250 90 00 00            488 	mov	dptr,#(0x00&0x00ff)
   0253 E4                  489 	clr	a
   0254 F5 F0               490 	mov	b,a
   0256 74 3F               491 	mov	a,#0x3F
   0258 12s00r00            492 	lcall	___fsmul
   025B 78r06               493 	mov	r0,#_sincoshf_z_1_1
   025D C0 E0               494 	push	acc
   025F E5 82               495 	mov	a,dpl
   0261 F2                  496 	movx	@r0,a
   0262 08                  497 	inc	r0
   0263 E5 83               498 	mov	a,dph
   0265 F2                  499 	movx	@r0,a
   0266 08                  500 	inc	r0
   0267 E5 F0               501 	mov	a,b
   0269 F2                  502 	movx	@r0,a
   026A D0 E0               503 	pop	acc
   026C 08                  504 	inc	r0
   026D F2                  505 	movx	@r0,a
   026E E5 81               506 	mov	a,sp
   0270 24 FC               507 	add	a,#0xfc
   0272 F5 81               508 	mov	sp,a
   0274                     509 00111$:
                            510 ;	sincoshf.c:84: if(sign) z=-z;
   0274 20*00 03            511 	jb	_sincoshf_sign_1_1,00136$
   0277 02s04r2F            512 	ljmp	00119$
   027A                     513 00136$:
   027A 78r06               514 	mov	r0,#_sincoshf_z_1_1
   027C E2                  515 	movx	a,@r0
   027D F2                  516 	movx	@r0,a
   027E 08                  517 	inc	r0
   027F E2                  518 	movx	a,@r0
   0280 F2                  519 	movx	@r0,a
   0281 08                  520 	inc	r0
   0282 E2                  521 	movx	a,@r0
   0283 F2                  522 	movx	@r0,a
   0284 08                  523 	inc	r0
   0285 E2                  524 	movx	a,@r0
   0286 B2 E7               525 	cpl	acc.7
   0288 F2                  526 	movx	@r0,a
   0289 02s04r2F            527 	ljmp	00119$
   028C                     528 00118$:
                            529 ;	sincoshf.c:88: if (y<EPS)
   028C E4                  530 	clr	a
   028D C0 E0               531 	push	acc
   028F C0 E0               532 	push	acc
   0291 74 80               533 	mov	a,#0x80
   0293 C0 E0               534 	push	acc
   0295 74 39               535 	mov	a,#0x39
   0297 C0 E0               536 	push	acc
   0299 8A 82               537 	mov	dpl,r2
   029B 8B 83               538 	mov	dph,r3
   029D 8C F0               539 	mov	b,r4
   029F ED                  540 	mov	a,r5
   02A0 12s00r00            541 	lcall	___fslt
   02A3 AE 82               542 	mov	r6,dpl
   02A5 E5 81               543 	mov	a,sp
   02A7 24 FC               544 	add	a,#0xfc
   02A9 F5 81               545 	mov	sp,a
   02AB EE                  546 	mov	a,r6
   02AC 60 15               547 	jz	00115$
                            548 ;	sincoshf.c:89: z=x;
   02AE 78r02               549 	mov	r0,#_sincoshf_x_1_1
   02B0 79r06               550 	mov	r1,#_sincoshf_z_1_1
   02B2 E2                  551 	movx	a,@r0
   02B3 F3                  552 	movx	@r1,a
   02B4 08                  553 	inc	r0
   02B5 E2                  554 	movx	a,@r0
   02B6 09                  555 	inc	r1
   02B7 F3                  556 	movx	@r1,a
   02B8 08                  557 	inc	r0
   02B9 E2                  558 	movx	a,@r0
   02BA 09                  559 	inc	r1
   02BB F3                  560 	movx	@r1,a
   02BC 08                  561 	inc	r0
   02BD E2                  562 	movx	a,@r0
   02BE 09                  563 	inc	r1
   02BF F3                  564 	movx	@r1,a
   02C0 02s04r2F            565 	ljmp	00119$
   02C3                     566 00115$:
                            567 ;	sincoshf.c:92: z=x*x;
   02C3 78r02               568 	mov	r0,#_sincoshf_x_1_1
   02C5 E2                  569 	movx	a,@r0
   02C6 C0 E0               570 	push	acc
   02C8 08                  571 	inc	r0
   02C9 E2                  572 	movx	a,@r0
   02CA C0 E0               573 	push	acc
   02CC 08                  574 	inc	r0
   02CD E2                  575 	movx	a,@r0
   02CE C0 E0               576 	push	acc
   02D0 08                  577 	inc	r0
   02D1 E2                  578 	movx	a,@r0
   02D2 C0 E0               579 	push	acc
   02D4 78r02               580 	mov	r0,#_sincoshf_x_1_1
   02D6 E2                  581 	movx	a,@r0
   02D7 F5 82               582 	mov	dpl,a
   02D9 08                  583 	inc	r0
   02DA E2                  584 	movx	a,@r0
   02DB F5 83               585 	mov	dph,a
   02DD 08                  586 	inc	r0
   02DE E2                  587 	movx	a,@r0
   02DF F5 F0               588 	mov	b,a
   02E1 08                  589 	inc	r0
   02E2 E2                  590 	movx	a,@r0
   02E3 12s00r00            591 	lcall	___fsmul
   02E6 78r06               592 	mov	r0,#_sincoshf_z_1_1
   02E8 C0 E0               593 	push	acc
   02EA E5 82               594 	mov	a,dpl
   02EC F2                  595 	movx	@r0,a
   02ED 08                  596 	inc	r0
   02EE E5 83               597 	mov	a,dph
   02F0 F2                  598 	movx	@r0,a
   02F1 08                  599 	inc	r0
   02F2 E5 F0               600 	mov	a,b
   02F4 F2                  601 	movx	@r0,a
   02F5 D0 E0               602 	pop	acc
   02F7 08                  603 	inc	r0
   02F8 F2                  604 	movx	@r0,a
   02F9 E5 81               605 	mov	a,sp
   02FB 24 FC               606 	add	a,#0xfc
   02FD F5 81               607 	mov	sp,a
                            608 ;	sincoshf.c:93: z=x+x*z*P(z)/Q(z);
   02FF 78r06               609 	mov	r0,#_sincoshf_z_1_1
   0301 E2                  610 	movx	a,@r0
   0302 C0 E0               611 	push	acc
   0304 08                  612 	inc	r0
   0305 E2                  613 	movx	a,@r0
   0306 C0 E0               614 	push	acc
   0308 08                  615 	inc	r0
   0309 E2                  616 	movx	a,@r0
   030A C0 E0               617 	push	acc
   030C 08                  618 	inc	r0
   030D E2                  619 	movx	a,@r0
   030E C0 E0               620 	push	acc
   0310 78r02               621 	mov	r0,#_sincoshf_x_1_1
   0312 E2                  622 	movx	a,@r0
   0313 F5 82               623 	mov	dpl,a
   0315 08                  624 	inc	r0
   0316 E2                  625 	movx	a,@r0
   0317 F5 83               626 	mov	dph,a
   0319 08                  627 	inc	r0
   031A E2                  628 	movx	a,@r0
   031B F5 F0               629 	mov	b,a
   031D 08                  630 	inc	r0
   031E E2                  631 	movx	a,@r0
   031F 12s00r00            632 	lcall	___fsmul
   0322 85 82*00            633 	mov	_sincoshf_sloc0_1_0,dpl
   0325 85 83*01            634 	mov	(_sincoshf_sloc0_1_0 + 1),dph
   0328 85 F0*02            635 	mov	(_sincoshf_sloc0_1_0 + 2),b
   032B F5*03               636 	mov	(_sincoshf_sloc0_1_0 + 3),a
   032D E5 81               637 	mov	a,sp
   032F 24 FC               638 	add	a,#0xfc
   0331 F5 81               639 	mov	sp,a
   0333 78r06               640 	mov	r0,#_sincoshf_z_1_1
   0335 E2                  641 	movx	a,@r0
   0336 C0 E0               642 	push	acc
   0338 08                  643 	inc	r0
   0339 E2                  644 	movx	a,@r0
   033A C0 E0               645 	push	acc
   033C 08                  646 	inc	r0
   033D E2                  647 	movx	a,@r0
   033E C0 E0               648 	push	acc
   0340 08                  649 	inc	r0
   0341 E2                  650 	movx	a,@r0
   0342 C0 E0               651 	push	acc
   0344 90 E6 EA            652 	mov	dptr,#0xE6EA
   0347 75 F0 42            653 	mov	b,#0x42
   034A 74 BE               654 	mov	a,#0xBE
   034C 12s00r00            655 	lcall	___fsmul
   034F AC 82               656 	mov	r4,dpl
   0351 AD 83               657 	mov	r5,dph
   0353 AA F0               658 	mov	r2,b
   0355 FB                  659 	mov	r3,a
   0356 E5 81               660 	mov	a,sp
   0358 24 FC               661 	add	a,#0xfc
   035A F5 81               662 	mov	sp,a
   035C 74 F0               663 	mov	a,#0xF0
   035E C0 E0               664 	push	acc
   0360 74 69               665 	mov	a,#0x69
   0362 C0 E0               666 	push	acc
   0364 74 E4               667 	mov	a,#0xE4
   0366 C0 E0               668 	push	acc
   0368 74 C0               669 	mov	a,#0xC0
   036A C0 E0               670 	push	acc
   036C 8C 82               671 	mov	dpl,r4
   036E 8D 83               672 	mov	dph,r5
   0370 8A F0               673 	mov	b,r2
   0372 EB                  674 	mov	a,r3
   0373 12s00r00            675 	lcall	___fsadd
   0376 AA 82               676 	mov	r2,dpl
   0378 AB 83               677 	mov	r3,dph
   037A AC F0               678 	mov	r4,b
   037C FD                  679 	mov	r5,a
   037D E5 81               680 	mov	a,sp
   037F 24 FC               681 	add	a,#0xfc
   0381 F5 81               682 	mov	sp,a
   0383 C0 02               683 	push	ar2
   0385 C0 03               684 	push	ar3
   0387 C0 04               685 	push	ar4
   0389 C0 05               686 	push	ar5
   038B 85*00 82            687 	mov	dpl,_sincoshf_sloc0_1_0
   038E 85*01 83            688 	mov	dph,(_sincoshf_sloc0_1_0 + 1)
   0391 85*02 F0            689 	mov	b,(_sincoshf_sloc0_1_0 + 2)
   0394 E5*03               690 	mov	a,(_sincoshf_sloc0_1_0 + 3)
   0396 12s00r00            691 	lcall	___fsmul
   0399 85 82*00            692 	mov	_sincoshf_sloc0_1_0,dpl
   039C 85 83*01            693 	mov	(_sincoshf_sloc0_1_0 + 1),dph
   039F 85 F0*02            694 	mov	(_sincoshf_sloc0_1_0 + 2),b
   03A2 F5*03               695 	mov	(_sincoshf_sloc0_1_0 + 3),a
   03A4 E5 81               696 	mov	a,sp
   03A6 24 FC               697 	add	a,#0xfc
   03A8 F5 81               698 	mov	sp,a
   03AA 74 93               699 	mov	a,#0x93
   03AC C0 E0               700 	push	acc
   03AE 74 4F               701 	mov	a,#0x4F
   03B0 C0 E0               702 	push	acc
   03B2 74 2B               703 	mov	a,#0x2B
   03B4 C0 E0               704 	push	acc
   03B6 74 C2               705 	mov	a,#0xC2
   03B8 C0 E0               706 	push	acc
   03BA 78r06               707 	mov	r0,#_sincoshf_z_1_1
   03BC E2                  708 	movx	a,@r0
   03BD F5 82               709 	mov	dpl,a
   03BF 08                  710 	inc	r0
   03C0 E2                  711 	movx	a,@r0
   03C1 F5 83               712 	mov	dph,a
   03C3 08                  713 	inc	r0
   03C4 E2                  714 	movx	a,@r0
   03C5 F5 F0               715 	mov	b,a
   03C7 08                  716 	inc	r0
   03C8 E2                  717 	movx	a,@r0
   03C9 12s00r00            718 	lcall	___fsadd
   03CC AE 82               719 	mov	r6,dpl
   03CE AF 83               720 	mov	r7,dph
   03D0 AA F0               721 	mov	r2,b
   03D2 FB                  722 	mov	r3,a
   03D3 E5 81               723 	mov	a,sp
   03D5 24 FC               724 	add	a,#0xfc
   03D7 F5 81               725 	mov	sp,a
   03D9 C0 06               726 	push	ar6
   03DB C0 07               727 	push	ar7
   03DD C0 02               728 	push	ar2
   03DF C0 03               729 	push	ar3
   03E1 85*00 82            730 	mov	dpl,_sincoshf_sloc0_1_0
   03E4 85*01 83            731 	mov	dph,(_sincoshf_sloc0_1_0 + 1)
   03E7 85*02 F0            732 	mov	b,(_sincoshf_sloc0_1_0 + 2)
   03EA E5*03               733 	mov	a,(_sincoshf_sloc0_1_0 + 3)
   03EC 12s00r00            734 	lcall	___fsdiv
   03EF AA 82               735 	mov	r2,dpl
   03F1 AB 83               736 	mov	r3,dph
   03F3 AC F0               737 	mov	r4,b
   03F5 FD                  738 	mov	r5,a
   03F6 E5 81               739 	mov	a,sp
   03F8 24 FC               740 	add	a,#0xfc
   03FA F5 81               741 	mov	sp,a
   03FC C0 02               742 	push	ar2
   03FE C0 03               743 	push	ar3
   0400 C0 04               744 	push	ar4
   0402 C0 05               745 	push	ar5
   0404 78r02               746 	mov	r0,#_sincoshf_x_1_1
   0406 E2                  747 	movx	a,@r0
   0407 F5 82               748 	mov	dpl,a
   0409 08                  749 	inc	r0
   040A E2                  750 	movx	a,@r0
   040B F5 83               751 	mov	dph,a
   040D 08                  752 	inc	r0
   040E E2                  753 	movx	a,@r0
   040F F5 F0               754 	mov	b,a
   0411 08                  755 	inc	r0
   0412 E2                  756 	movx	a,@r0
   0413 12s00r00            757 	lcall	___fsadd
   0416 78r06               758 	mov	r0,#_sincoshf_z_1_1
   0418 C0 E0               759 	push	acc
   041A E5 82               760 	mov	a,dpl
   041C F2                  761 	movx	@r0,a
   041D 08                  762 	inc	r0
   041E E5 83               763 	mov	a,dph
   0420 F2                  764 	movx	@r0,a
   0421 08                  765 	inc	r0
   0422 E5 F0               766 	mov	a,b
   0424 F2                  767 	movx	@r0,a
   0425 D0 E0               768 	pop	acc
   0427 08                  769 	inc	r0
   0428 F2                  770 	movx	@r0,a
   0429 E5 81               771 	mov	a,sp
   042B 24 FC               772 	add	a,#0xfc
   042D F5 81               773 	mov	sp,a
   042F                     774 00119$:
                            775 ;	sincoshf.c:96: return z;
   042F 78r06               776 	mov	r0,#_sincoshf_z_1_1
   0431 E2                  777 	movx	a,@r0
   0432 F5 82               778 	mov	dpl,a
   0434 08                  779 	inc	r0
   0435 E2                  780 	movx	a,@r0
   0436 F5 83               781 	mov	dph,a
   0438 08                  782 	inc	r0
   0439 E2                  783 	movx	a,@r0
   043A F5 F0               784 	mov	b,a
   043C 08                  785 	inc	r0
   043D E2                  786 	movx	a,@r0
   043E 22                  787 	ret
                            788 	.area CSEG    (CODE)
                            789 	.area CONST   (CODE)
                            790 	.area XINIT   (CODE)
                            791 	.area CABS    (ABS,CODE)
