                              1 ;--------------------------------------------------------
                              2 ; File Created by SDCC : free open source ANSI-C Compiler
                              3 ; Version 3.0.1 #6227 (Oct  2 2015) (Linux)
                              4 ; This file was generated Fri Oct  2 17:15:15 2015
                              5 ;--------------------------------------------------------
                              6 	.module _fsadd
                              7 	.optsdcc -mds390 --model-flat24
                              8 	
                              9 ;--------------------------------------------------------
                             10 ; CPU specific extensions
                             11 ;--------------------------------------------------------
                             12 .flat24 on		; 24 bit flat addressing
                    0084     13 dpl1	=	0x84
                    0085     14 dph1	=	0x85
                    0086     15 dps	=	0x86
                    0093     16 dpx	=	0x93
                    0095     17 dpx1	=	0x95
                    009B     18 esp	=	0x9B
                    009C     19 ap	=	0x9C
                    009C     20 _ap	=	0x9C
                    00D1     21 mcnt0	=	0xD1
                    00D2     22 mcnt1	=	0xD2
                    00D3     23 ma	=	0xD3
                    00D4     24 mb	=	0xD4
                    00D5     25 mc	=	0xD5
                    00D1     26 F1	=	0xD1	; user flag
                             27 ;--------------------------------------------------------
                             28 ; Public variables in this module
                             29 ;--------------------------------------------------------
                             30 	.globl ___fsadd_PARM_2
                             31 	.globl ___fsadd
                             32 ;--------------------------------------------------------
                             33 ; special function registers
                             34 ;--------------------------------------------------------
                             35 ;--------------------------------------------------------
                             36 ; special function bits
                             37 ;--------------------------------------------------------
                             38 ;--------------------------------------------------------
                             39 ; overlayable register banks
                             40 ;--------------------------------------------------------
                             41 	.area REG_BANK_0	(REL,OVR,DATA)
   0000                      42 	.ds 8
                             43 ;--------------------------------------------------------
                             44 ; internal ram data
                             45 ;--------------------------------------------------------
                             46 	.area DSEG    (DATA)
                             47 ;--------------------------------------------------------
                             48 ; overlayable items in internal ram 
                             49 ;--------------------------------------------------------
                             50 	.area OSEG    (OVR,DATA)
                             51 ;--------------------------------------------------------
                             52 ; indirectly addressable internal ram data
                             53 ;--------------------------------------------------------
                             54 	.area ISEG    (DATA)
                             55 ;--------------------------------------------------------
                             56 ; absolute internal ram data
                             57 ;--------------------------------------------------------
                             58 	.area IABS    (ABS,DATA)
                             59 	.area IABS    (ABS,DATA)
                             60 ;--------------------------------------------------------
                             61 ; bit data
                             62 ;--------------------------------------------------------
                             63 	.area BSEG    (BIT)
   0000                      64 ___fsadd_sign_1_1:
   0000                      65 	.ds 1
                             66 ;--------------------------------------------------------
                             67 ; paged external ram data
                             68 ;--------------------------------------------------------
                             69 	.area PSEG    (PAG,XDATA)
                             70 ;--------------------------------------------------------
                             71 ; external ram data
                             72 ;--------------------------------------------------------
                             73 	.area XSEG    (XDATA)
   0000                      74 ___fsadd_PARM_2:
   0000                      75 	.ds 4
   0004                      76 ___fsadd_a1_1_1:
   0004                      77 	.ds 4
   0008                      78 ___fsadd_mant1_1_1:
   0008                      79 	.ds 4
   000C                      80 ___fsadd_mant2_1_1:
   000C                      81 	.ds 4
   0010                      82 ___fsadd_exp1_1_1:
   0010                      83 	.ds 2
   0012                      84 ___fsadd_exp2_1_1:
   0012                      85 	.ds 2
                             86 ;--------------------------------------------------------
                             87 ; absolute external ram data
                             88 ;--------------------------------------------------------
                             89 	.area XABS    (ABS,XDATA)
                             90 ;--------------------------------------------------------
                             91 ; external initialized ram data
                             92 ;--------------------------------------------------------
                             93 	.area XISEG   (XDATA)
                             94 ;--------------------------------------------------------
                             95 ; global & static initialisations
                             96 ;--------------------------------------------------------
                             97 	.area HOME    (CODE)
                             98 	.area GSINIT  (CODE)
                             99 	.area GSFINAL (CODE)
                            100 	.area GSINIT  (CODE)
                            101 ;--------------------------------------------------------
                            102 ; Home
                            103 ;--------------------------------------------------------
                            104 	.area HOME    (CODE)
                            105 	.area HOME    (CODE)
                            106 ;--------------------------------------------------------
                            107 ; code
                            108 ;--------------------------------------------------------
                            109 	.area CSEG    (CODE)
                            110 ;------------------------------------------------------------
                            111 ;Allocation info for local variables in function '__fsadd'
                            112 ;------------------------------------------------------------
                            113 ;a2                        Allocated with name '___fsadd_PARM_2'
                            114 ;a1                        Allocated with name '___fsadd_a1_1_1'
                            115 ;mant1                     Allocated with name '___fsadd_mant1_1_1'
                            116 ;mant2                     Allocated with name '___fsadd_mant2_1_1'
                            117 ;pfl1                      Allocated to registers 
                            118 ;pfl2                      Allocated to registers 
                            119 ;exp1                      Allocated with name '___fsadd_exp1_1_1'
                            120 ;exp2                      Allocated with name '___fsadd_exp2_1_1'
                            121 ;expd                      Allocated to registers r2 r3 
                            122 ;------------------------------------------------------------
                            123 ;	_fsadd.c:171: float __fsadd (float a1, float a2)
                            124 ;	-----------------------------------------
                            125 ;	 function __fsadd
                            126 ;	-----------------------------------------
   0000                     127 ___fsadd:
                    0002    128 	ar2 = 0x02
                    0003    129 	ar3 = 0x03
                    0004    130 	ar4 = 0x04
                    0005    131 	ar5 = 0x05
                    0006    132 	ar6 = 0x06
                    0007    133 	ar7 = 0x07
                    0000    134 	ar0 = 0x00
                    0001    135 	ar1 = 0x01
   0000 75 86 01            136 	mov     dps, #1
   0003 90s00r00r04         137 	mov     dptr, #___fsadd_a1_1_1
   0007 E5 82               138 	mov	a,dpl
   0009 F0                  139 	movx	@dptr,a
   000A A3                  140 	inc	dptr
   000B E5 83               141 	mov	a,dph
   000D F0                  142 	movx	@dptr,a
   000E A3                  143 	inc	dptr
   000F E5 93               144 	mov	a,dpx
   0011 F0                  145 	movx	@dptr,a
   0012 A3                  146 	inc	dptr
   0013 E5 F0               147 	mov	a,b
   0015 F0                  148 	movx	@dptr,a
   0016 75 86 00            149 	mov	dps,#0
                            150 ;	_fsadd.c:179: pfl2 = (long _AUTOMEM *)&a2;
                            151 ;	_fsadd.c:180: exp2 = EXP (*pfl2);
   0019 90s00r00r00         152 	mov	dptr,#___fsadd_PARM_2
   001D E0                  153 	movx	a,@dptr
   001E A3                  154 	inc	dptr
   001F FA                  155 	mov	r2,a
   0020 E0                  156 	movx	a,@dptr
   0021 A3                  157 	inc	dptr
   0022 FB                  158 	mov	r3,a
   0023 E0                  159 	movx	a,@dptr
   0024 A3                  160 	inc	dptr
   0025 FC                  161 	mov	r4,a
   0026 E0                  162 	movx	a,@dptr
   0027 FD                  163 	mov	r5,a
                            164 ;	genAssign: resultIsFar = FALSE
   0028 8A 06               165 	mov	ar6,r2
   002A 8B 07               166 	mov	ar7,r3
   002C 8C 00               167 	mov	ar0,r4
   002E 8D 01               168 	mov	ar1,r5
   0030 88 06               169 	mov	ar6,r0
   0032 E9                  170 	mov	a,r1
   0033 A2 E7               171 	mov	c,acc.7
   0035 CE                  172 	xch	a,r6
   0036 33                  173 	rlc	a
   0037 CE                  174 	xch	a,r6
   0038 33                  175 	rlc	a
   0039 CE                  176 	xch	a,r6
   003A 54 01               177 	anl	a,#0x01
   003C FF                  178 	mov	r7,a
   003D 78 00               179 	mov	r0,#0
   003F 79 00               180 	mov	r1,#0
   0041 7F 00               181 	mov	r7,#0
   0043 78 00               182 	mov	r0,#0
   0045 79 00               183 	mov	r1,#0
   0047 90s00r00r12         184 	mov	dptr,#___fsadd_exp2_1_1
   004B EE                  185 	mov	a,r6
   004C F0                  186 	movx	@dptr,a
   004D A3                  187 	inc	dptr
   004E EF                  188 	mov	a,r7
   004F F0                  189 	movx	@dptr,a
                            190 ;	_fsadd.c:181: mant2 = MANT (*pfl2) << 4;
   0050 8A 00               191 	mov	ar0,r2
   0052 8B 01               192 	mov	ar1,r3
   0054 74 7F               193 	mov	a,#0x7F
   0056 5C                  194 	anl	a,r4
   0057 FE                  195 	mov	r6,a
   0058 7F 00               196 	mov	r7,#0
   005A 43 06 80            197 	orl	ar6,#0x80
   005D 75 F0 05            198 	mov	b,#0x05
   0060 80 0D               199 	sjmp	00165$
   0062                     200 00164$:
   0062 E8                  201 	mov	a,r0
   0063 25 E0               202 	add	a,acc
   0065 F8                  203 	mov	r0,a
   0066 E9                  204 	mov	a,r1
   0067 33                  205 	rlc	a
   0068 F9                  206 	mov	r1,a
   0069 EE                  207 	mov	a,r6
   006A 33                  208 	rlc	a
   006B FE                  209 	mov	r6,a
   006C EF                  210 	mov	a,r7
   006D 33                  211 	rlc	a
   006E FF                  212 	mov	r7,a
   006F                     213 00165$:
   006F D5 F0 F0            214 	djnz	b,00164$
                            215 ;	genAssign: resultIsFar = TRUE
   0072 90s00r00r0C         216 	mov	dptr,#___fsadd_mant2_1_1
   0076 E8                  217 	mov	a,r0
   0077 F0                  218 	movx	@dptr,a
   0078 A3                  219 	inc	dptr
   0079 E9                  220 	mov	a,r1
   007A F0                  221 	movx	@dptr,a
   007B A3                  222 	inc	dptr
   007C EE                  223 	mov	a,r6
   007D F0                  224 	movx	@dptr,a
   007E A3                  225 	inc	dptr
   007F EF                  226 	mov	a,r7
   0080 F0                  227 	movx	@dptr,a
                            228 ;	_fsadd.c:182: if (SIGN (*pfl2))
                            229 ;	genAssign: resultIsFar = FALSE
   0081 8A 06               230 	mov	ar6,r2
   0083 8B 07               231 	mov	ar7,r3
   0085 8C 00               232 	mov	ar0,r4
   0087 8D 01               233 	mov	ar1,r5
   0089 E9                  234 	mov	a,r1
   008A 23                  235 	rl	a
   008B 54 01               236 	anl	a,#0x01
   008D FE                  237 	mov  r6,a
   008E 60 39               238 	jz  00102$
   0090                     239 00166$:
                            240 ;	_fsadd.c:183: mant2 = -mant2;
   0090 90s00r00r0C         241 	mov	dptr,#___fsadd_mant2_1_1
   0094 75 86 01            242 	mov	dps, #1
   0097 90s00r00r0C         243 	mov	dptr, #___fsadd_mant2_1_1
   009B 15 86               244 	dec	dps
   009D E0                  245 	movx	a,@dptr
   009E D3                  246 	setb	c
   009F F4                  247 	cpl	a
   00A0 34 00               248 	addc	a,#0x00
   00A2 05 86               249 	inc	dps
   00A4 F0                  250 	movx	@dptr,a
   00A5 15 86               251 	dec	dps
   00A7 A3                  252 	inc	dptr
   00A8 E0                  253 	movx	a,@dptr
   00A9 F4                  254 	cpl	a
   00AA 34 00               255 	addc	a,#0x00
   00AC 05 86               256 	inc	dps
   00AE A3                  257 	inc	dptr
   00AF F0                  258 	movx	@dptr,a
   00B0 15 86               259 	dec	dps
   00B2 A3                  260 	inc	dptr
   00B3 E0                  261 	movx	a,@dptr
   00B4 F4                  262 	cpl	a
   00B5 34 00               263 	addc	a,#0x00
   00B7 05 86               264 	inc	dps
   00B9 A3                  265 	inc	dptr
   00BA F0                  266 	movx	@dptr,a
   00BB 15 86               267 	dec	dps
   00BD A3                  268 	inc	dptr
   00BE E0                  269 	movx	a,@dptr
   00BF F4                  270 	cpl	a
   00C0 34 00               271 	addc	a,#0x00
   00C2 05 86               272 	inc	dps
   00C4 A3                  273 	inc	dptr
   00C5 F0                  274 	movx	@dptr,a
   00C6 75 86 00            275 	mov	dps,#0
   00C9                     276 00102$:
                            277 ;	_fsadd.c:185: if (!*pfl2)
   00C9 EA                  278 	mov	a,r2
   00CA 4B                  279 	orl	a,r3
   00CB 4C                  280 	orl	a,r4
   00CC 4D                  281 	orl	a,r5
   00CD 70 1D               282 	jnz  00104$
   00CF                     283 00167$:
                            284 ;	_fsadd.c:186: return (a1);
   00CF 75 86 01            285 	mov     dps, #1
   00D2 90s00r00r04         286 	mov     dptr, #___fsadd_a1_1_1
   00D6 E0                  287 	movx	a,@dptr
   00D7 F5 82               288 	mov	dpl,a
   00D9 A3                  289 	inc	dptr
   00DA E0                  290 	movx	a,@dptr
   00DB F5 83               291 	mov	dph,a
   00DD A3                  292 	inc	dptr
   00DE E0                  293 	movx	a,@dptr
   00DF F5 93               294 	mov	dpx,a
   00E1 A3                  295 	inc	dptr
   00E2 E0                  296 	movx	a,@dptr
   00E3 F5 F0               297 	mov	b,a
   00E5 75 86 00            298 	mov	dps,#0
   00E8 02s00r05r51         299 	ljmp	00137$
   00EC                     300 00104$:
                            301 ;	_fsadd.c:188: pfl1 = (long _AUTOMEM *)&a1;
                            302 ;	_fsadd.c:189: exp1 = EXP (*pfl1);
   00EC 90s00r00r04         303 	mov	dptr,#___fsadd_a1_1_1
   00F0 E0                  304 	movx	a,@dptr
   00F1 A3                  305 	inc	dptr
   00F2 FA                  306 	mov	r2,a
   00F3 E0                  307 	movx	a,@dptr
   00F4 A3                  308 	inc	dptr
   00F5 FB                  309 	mov	r3,a
   00F6 E0                  310 	movx	a,@dptr
   00F7 A3                  311 	inc	dptr
   00F8 FC                  312 	mov	r4,a
   00F9 E0                  313 	movx	a,@dptr
   00FA FD                  314 	mov	r5,a
                            315 ;	genAssign: resultIsFar = FALSE
   00FB 8A 06               316 	mov	ar6,r2
   00FD 8B 07               317 	mov	ar7,r3
   00FF 8C 00               318 	mov	ar0,r4
   0101 8D 01               319 	mov	ar1,r5
   0103 88 06               320 	mov	ar6,r0
   0105 E9                  321 	mov	a,r1
   0106 A2 E7               322 	mov	c,acc.7
   0108 CE                  323 	xch	a,r6
   0109 33                  324 	rlc	a
   010A CE                  325 	xch	a,r6
   010B 33                  326 	rlc	a
   010C CE                  327 	xch	a,r6
   010D 54 01               328 	anl	a,#0x01
   010F FF                  329 	mov	r7,a
   0110 78 00               330 	mov	r0,#0
   0112 79 00               331 	mov	r1,#0
   0114 7F 00               332 	mov	r7,#0
   0116 78 00               333 	mov	r0,#0
   0118 79 00               334 	mov	r1,#0
   011A 90s00r00r10         335 	mov	dptr,#___fsadd_exp1_1_1
   011E EE                  336 	mov	a,r6
   011F F0                  337 	movx	@dptr,a
   0120 A3                  338 	inc	dptr
   0121 EF                  339 	mov	a,r7
   0122 F0                  340 	movx	@dptr,a
                            341 ;	_fsadd.c:190: mant1 = MANT (*pfl1) << 4;
   0123 8A 00               342 	mov	ar0,r2
   0125 8B 01               343 	mov	ar1,r3
   0127 74 7F               344 	mov	a,#0x7F
   0129 5C                  345 	anl	a,r4
   012A FE                  346 	mov	r6,a
   012B 7F 00               347 	mov	r7,#0
   012D 43 06 80            348 	orl	ar6,#0x80
   0130 75 F0 05            349 	mov	b,#0x05
   0133 80 0D               350 	sjmp	00169$
   0135                     351 00168$:
   0135 E8                  352 	mov	a,r0
   0136 25 E0               353 	add	a,acc
   0138 F8                  354 	mov	r0,a
   0139 E9                  355 	mov	a,r1
   013A 33                  356 	rlc	a
   013B F9                  357 	mov	r1,a
   013C EE                  358 	mov	a,r6
   013D 33                  359 	rlc	a
   013E FE                  360 	mov	r6,a
   013F EF                  361 	mov	a,r7
   0140 33                  362 	rlc	a
   0141 FF                  363 	mov	r7,a
   0142                     364 00169$:
   0142 D5 F0 F0            365 	djnz	b,00168$
                            366 ;	genAssign: resultIsFar = TRUE
   0145 90s00r00r08         367 	mov	dptr,#___fsadd_mant1_1_1
   0149 E8                  368 	mov	a,r0
   014A F0                  369 	movx	@dptr,a
   014B A3                  370 	inc	dptr
   014C E9                  371 	mov	a,r1
   014D F0                  372 	movx	@dptr,a
   014E A3                  373 	inc	dptr
   014F EE                  374 	mov	a,r6
   0150 F0                  375 	movx	@dptr,a
   0151 A3                  376 	inc	dptr
   0152 EF                  377 	mov	a,r7
   0153 F0                  378 	movx	@dptr,a
                            379 ;	_fsadd.c:191: if (SIGN(*pfl1))
                            380 ;	genAssign: resultIsFar = FALSE
   0154 8A 06               381 	mov	ar6,r2
   0156 8B 07               382 	mov	ar7,r3
   0158 8C 00               383 	mov	ar0,r4
   015A 8D 01               384 	mov	ar1,r5
   015C E9                  385 	mov	a,r1
   015D 23                  386 	rl	a
   015E 54 01               387 	anl	a,#0x01
   0160 FE                  388 	mov  r6,a
   0161 60 3D               389 	jz  00108$
   0163                     390 00170$:
                            391 ;	_fsadd.c:192: if (*pfl1 & 0x80000000)
   0163 ED                  392 	mov	a,r5
   0164 30 E7 39            393 	jnb  acc.7,00108$
   0167                     394 00171$:
                            395 ;	_fsadd.c:193: mant1 = -mant1;
   0167 90s00r00r08         396 	mov	dptr,#___fsadd_mant1_1_1
   016B 75 86 01            397 	mov	dps, #1
   016E 90s00r00r08         398 	mov	dptr, #___fsadd_mant1_1_1
   0172 15 86               399 	dec	dps
   0174 E0                  400 	movx	a,@dptr
   0175 D3                  401 	setb	c
   0176 F4                  402 	cpl	a
   0177 34 00               403 	addc	a,#0x00
   0179 05 86               404 	inc	dps
   017B F0                  405 	movx	@dptr,a
   017C 15 86               406 	dec	dps
   017E A3                  407 	inc	dptr
   017F E0                  408 	movx	a,@dptr
   0180 F4                  409 	cpl	a
   0181 34 00               410 	addc	a,#0x00
   0183 05 86               411 	inc	dps
   0185 A3                  412 	inc	dptr
   0186 F0                  413 	movx	@dptr,a
   0187 15 86               414 	dec	dps
   0189 A3                  415 	inc	dptr
   018A E0                  416 	movx	a,@dptr
   018B F4                  417 	cpl	a
   018C 34 00               418 	addc	a,#0x00
   018E 05 86               419 	inc	dps
   0190 A3                  420 	inc	dptr
   0191 F0                  421 	movx	@dptr,a
   0192 15 86               422 	dec	dps
   0194 A3                  423 	inc	dptr
   0195 E0                  424 	movx	a,@dptr
   0196 F4                  425 	cpl	a
   0197 34 00               426 	addc	a,#0x00
   0199 05 86               427 	inc	dps
   019B A3                  428 	inc	dptr
   019C F0                  429 	movx	@dptr,a
   019D 75 86 00            430 	mov	dps,#0
   01A0                     431 00108$:
                            432 ;	_fsadd.c:195: if (!*pfl1)
   01A0 EA                  433 	mov	a,r2
   01A1 4B                  434 	orl	a,r3
   01A2 4C                  435 	orl	a,r4
   01A3 4D                  436 	orl	a,r5
   01A4 70 1D               437 	jnz  00110$
   01A6                     438 00172$:
                            439 ;	_fsadd.c:196: return (a2);
   01A6 75 86 01            440 	mov     dps, #1
   01A9 90s00r00r00         441 	mov     dptr, #___fsadd_PARM_2
   01AD E0                  442 	movx	a,@dptr
   01AE F5 82               443 	mov	dpl,a
   01B0 A3                  444 	inc	dptr
   01B1 E0                  445 	movx	a,@dptr
   01B2 F5 83               446 	mov	dph,a
   01B4 A3                  447 	inc	dptr
   01B5 E0                  448 	movx	a,@dptr
   01B6 F5 93               449 	mov	dpx,a
   01B8 A3                  450 	inc	dptr
   01B9 E0                  451 	movx	a,@dptr
   01BA F5 F0               452 	mov	b,a
   01BC 75 86 00            453 	mov	dps,#0
   01BF 02s00r05r51         454 	ljmp	00137$
   01C3                     455 00110$:
                            456 ;	_fsadd.c:198: expd = exp1 - exp2;
   01C3 90s00r00r12         457 	mov	dptr,#___fsadd_exp2_1_1
   01C7 75 86 01            458 	mov	dps, #1
   01CA 90s00r00r10         459 	mov	dptr, #___fsadd_exp1_1_1
   01CE 15 86               460 	dec	dps
   01D0 C3                  461 	clr	c
   01D1 E0                  462 	movx	a,@dptr
   01D2 F5 F0               463 	mov	b,a
   01D4 05 86               464 	inc	dps
   01D6 E0                  465 	movx	a,@dptr
   01D7 95 F0               466 	subb	a,b
   01D9 C0 E0               467 	push	acc
   01DB 15 86               468 	dec	dps
   01DD A3                  469 	inc	dptr
   01DE E0                  470 	movx	a,@dptr
   01DF F5 F0               471 	mov	b,a
   01E1 05 86               472 	inc	dps
   01E3 A3                  473 	inc	dptr
   01E4 E0                  474 	movx	a,@dptr
   01E5 95 F0               475 	subb	a,b
   01E7 C0 E0               476 	push	acc
   01E9 75 86 00            477 	mov	dps,#0
   01EC D0 E0               478 	pop	acc
   01EE FB                  479 	mov	r3,a
   01EF D0 E0               480 	pop	acc
   01F1 FA                  481 	mov	r2,a
                            482 ;	_fsadd.c:199: if (expd > 25)
   01F2 C3                  483 	clr	c
   01F3 74 19               484 	mov	a,#0x19
   01F5 9A                  485 	subb	a,r2
   01F6 74 80               486 	mov  a,#(0x00 ^ 0x80)
   01F8 8B F0               487 	mov	b,r3
   01FA 63 F0 80            488 	xrl	b,#0x80
   01FD 95 F0               489 	subb	a,b
   01FF 50 1D               490 	jnc  00112$
   0201                     491 00173$:
                            492 ;	_fsadd.c:200: return (a1);
   0201 75 86 01            493 	mov     dps, #1
   0204 90s00r00r04         494 	mov     dptr, #___fsadd_a1_1_1
   0208 E0                  495 	movx	a,@dptr
   0209 F5 82               496 	mov	dpl,a
   020B A3                  497 	inc	dptr
   020C E0                  498 	movx	a,@dptr
   020D F5 83               499 	mov	dph,a
   020F A3                  500 	inc	dptr
   0210 E0                  501 	movx	a,@dptr
   0211 F5 93               502 	mov	dpx,a
   0213 A3                  503 	inc	dptr
   0214 E0                  504 	movx	a,@dptr
   0215 F5 F0               505 	mov	b,a
   0217 75 86 00            506 	mov	dps,#0
   021A 02s00r05r51         507 	ljmp	00137$
   021E                     508 00112$:
                            509 ;	_fsadd.c:201: if (expd < -25)
   021E C3                  510 	clr	c
   021F EA                  511 	mov	a,r2
   0220 94 E7               512 	subb	a,#0xE7
   0222 EB                  513 	mov	a,r3
   0223 64 80               514 	xrl	a,#0x80
   0225 94 7F               515 	subb	a,#0x7F
   0227 50 1D               516 	jnc  00114$
   0229                     517 00174$:
                            518 ;	_fsadd.c:202: return (a2);
   0229 75 86 01            519 	mov     dps, #1
   022C 90s00r00r00         520 	mov     dptr, #___fsadd_PARM_2
   0230 E0                  521 	movx	a,@dptr
   0231 F5 82               522 	mov	dpl,a
   0233 A3                  523 	inc	dptr
   0234 E0                  524 	movx	a,@dptr
   0235 F5 83               525 	mov	dph,a
   0237 A3                  526 	inc	dptr
   0238 E0                  527 	movx	a,@dptr
   0239 F5 93               528 	mov	dpx,a
   023B A3                  529 	inc	dptr
   023C E0                  530 	movx	a,@dptr
   023D F5 F0               531 	mov	b,a
   023F 75 86 00            532 	mov	dps,#0
   0242 02s00r05r51         533 	ljmp	00137$
   0246                     534 00114$:
                            535 ;	_fsadd.c:204: if (expd < 0)
   0246 EB                  536 	mov	a,r3
   0247 30 E7 4D            537 	jnb  acc.7,00116$
   024A                     538 00175$:
                            539 ;	_fsadd.c:206: expd = -expd;
   024A C3                  540 	clr	c
   024B E4                  541 	clr	a
   024C 9A                  542 	subb	a,r2
   024D FA                  543 	mov	r2,a
   024E E4                  544 	clr	a
   024F 9B                  545 	subb	a,r3
   0250 FB                  546 	mov	r3,a
                            547 ;	_fsadd.c:207: exp1 += expd;
   0251 90s00r00r10         548 	mov	dptr,#___fsadd_exp1_1_1
   0255 E0                  549 	movx	a,@dptr
   0256 2A                  550 	add	a,r2
   0257 F0                  551 	movx	@dptr,a
   0258 A3                  552 	inc	dptr
   0259 E0                  553 	movx	a,@dptr
   025A 3B                  554 	addc	a,r3
   025B F0                  555 	movx	@dptr,a
                            556 ;	_fsadd.c:208: mant1 >>= expd;
   025C 8A F0               557 	mov	b,r2
   025E 05 F0               558 	inc	b
   0260 90s00r00r08         559 	mov	dptr,#___fsadd_mant1_1_1
   0264 E0                  560 	movx	a,@dptr
   0265 FC                  561 	mov     r4,a
   0266 A3                  562 	inc	dptr
   0267 E0                  563 	movx	a,@dptr
   0268 FD                  564 	mov     r5,a
   0269 A3                  565 	inc	dptr
   026A E0                  566 	movx	a,@dptr
   026B FE                  567 	mov     r6,a
   026C A3                  568 	inc	dptr
   026D E0                  569 	movx	a,@dptr
   026E FF                  570 	mov     r7,a
   026F E0                  571 	movx	a,@dptr
   0270 33                  572 	rlc	a
   0271 92 D2               573 	mov	ov,c
   0273 80 0E               574 	sjmp	00177$
   0275                     575 00176$:
   0275 A2 D2               576 	mov	c,ov
   0277 EF                  577 	mov	a,r7
   0278 13                  578 	rrc	a
   0279 FF                  579 	mov	r7,a
   027A EE                  580 	mov	a,r6
   027B 13                  581 	rrc	a
   027C FE                  582 	mov	r6,a
   027D ED                  583 	mov	a,r5
   027E 13                  584 	rrc	a
   027F FD                  585 	mov	r5,a
   0280 EC                  586 	mov	a,r4
   0281 13                  587 	rrc	a
   0282 FC                  588 	mov	r4,a
   0283                     589 00177$:
   0283 D5 F0 EF            590 	djnz	b,00176$
                            591 ;	genAssign: resultIsFar = TRUE
   0286 90s00r00r08         592 	mov	dptr,#___fsadd_mant1_1_1
   028A EC                  593 	mov	a,r4
   028B F0                  594 	movx	@dptr,a
   028C A3                  595 	inc	dptr
   028D ED                  596 	mov	a,r5
   028E F0                  597 	movx	@dptr,a
   028F A3                  598 	inc	dptr
   0290 EE                  599 	mov	a,r6
   0291 F0                  600 	movx	@dptr,a
   0292 A3                  601 	inc	dptr
   0293 EF                  602 	mov	a,r7
   0294 F0                  603 	movx	@dptr,a
   0295 80 39               604 	sjmp 00117$
   0297                     605 00116$:
                            606 ;	_fsadd.c:212: mant2 >>= expd;
   0297 8A F0               607 	mov	b,r2
   0299 05 F0               608 	inc	b
   029B 90s00r00r0C         609 	mov	dptr,#___fsadd_mant2_1_1
   029F E0                  610 	movx	a,@dptr
   02A0 FA                  611 	mov     r2,a
   02A1 A3                  612 	inc	dptr
   02A2 E0                  613 	movx	a,@dptr
   02A3 FB                  614 	mov     r3,a
   02A4 A3                  615 	inc	dptr
   02A5 E0                  616 	movx	a,@dptr
   02A6 FC                  617 	mov     r4,a
   02A7 A3                  618 	inc	dptr
   02A8 E0                  619 	movx	a,@dptr
   02A9 FD                  620 	mov     r5,a
   02AA E0                  621 	movx	a,@dptr
   02AB 33                  622 	rlc	a
   02AC 92 D2               623 	mov	ov,c
   02AE 80 0E               624 	sjmp	00179$
   02B0                     625 00178$:
   02B0 A2 D2               626 	mov	c,ov
   02B2 ED                  627 	mov	a,r5
   02B3 13                  628 	rrc	a
   02B4 FD                  629 	mov	r5,a
   02B5 EC                  630 	mov	a,r4
   02B6 13                  631 	rrc	a
   02B7 FC                  632 	mov	r4,a
   02B8 EB                  633 	mov	a,r3
   02B9 13                  634 	rrc	a
   02BA FB                  635 	mov	r3,a
   02BB EA                  636 	mov	a,r2
   02BC 13                  637 	rrc	a
   02BD FA                  638 	mov	r2,a
   02BE                     639 00179$:
   02BE D5 F0 EF            640 	djnz	b,00178$
                            641 ;	genAssign: resultIsFar = TRUE
   02C1 90s00r00r0C         642 	mov	dptr,#___fsadd_mant2_1_1
   02C5 EA                  643 	mov	a,r2
   02C6 F0                  644 	movx	@dptr,a
   02C7 A3                  645 	inc	dptr
   02C8 EB                  646 	mov	a,r3
   02C9 F0                  647 	movx	@dptr,a
   02CA A3                  648 	inc	dptr
   02CB EC                  649 	mov	a,r4
   02CC F0                  650 	movx	@dptr,a
   02CD A3                  651 	inc	dptr
   02CE ED                  652 	mov	a,r5
   02CF F0                  653 	movx	@dptr,a
   02D0                     654 00117$:
                            655 ;	_fsadd.c:214: mant1 += mant2;
   02D0 90s00r00r0C         656 	mov	dptr,#___fsadd_mant2_1_1
   02D4 75 86 01            657 	mov	dps, #1
   02D7 90s00r00r08         658 	mov	dptr, #___fsadd_mant1_1_1
   02DB 15 86               659 	dec	dps
   02DD E0                  660 	movx	a,@dptr
   02DE C5 9C               661 	xch	a, _ap
   02E0 05 86               662 	inc	dps
   02E2 E0                  663 	movx	a,@dptr
   02E3 C5 9C               664 	xch	a, _ap
   02E5 25 9C               665 	add	a,_ap
   02E7 F0                  666 	movx	@dptr,a
   02E8 15 86               667 	dec	dps
   02EA A3                  668 	inc	dptr
   02EB E0                  669 	movx	a,@dptr
   02EC C5 9C               670 	xch	a, _ap
   02EE 05 86               671 	inc	dps
   02F0 A3                  672 	inc	dptr
   02F1 E0                  673 	movx	a,@dptr
   02F2 C5 9C               674 	xch	a, _ap
   02F4 35 9C               675 	addc	a,_ap
   02F6 F0                  676 	movx	@dptr,a
   02F7 15 86               677 	dec	dps
   02F9 A3                  678 	inc	dptr
   02FA E0                  679 	movx	a,@dptr
   02FB C5 9C               680 	xch	a, _ap
   02FD 05 86               681 	inc	dps
   02FF A3                  682 	inc	dptr
   0300 E0                  683 	movx	a,@dptr
   0301 C5 9C               684 	xch	a, _ap
   0303 35 9C               685 	addc	a,_ap
   0305 F0                  686 	movx	@dptr,a
   0306 15 86               687 	dec	dps
   0308 A3                  688 	inc	dptr
   0309 E0                  689 	movx	a,@dptr
   030A C5 9C               690 	xch	a, _ap
   030C 05 86               691 	inc	dps
   030E A3                  692 	inc	dptr
   030F E0                  693 	movx	a,@dptr
   0310 C5 9C               694 	xch	a, _ap
   0312 35 9C               695 	addc	a,_ap
   0314 F0                  696 	movx	@dptr,a
   0315 75 86 00            697 	mov	dps,#0
                            698 ;	_fsadd.c:216: sign = false;
                            699 ;	genAssign: resultIsFar = FALSE
   0318 C2*00               700 	clr	___fsadd_sign_1_1
                            701 ;	_fsadd.c:218: if (mant1 < 0)
   031A 90s00r00r08         702 	mov	dptr,#___fsadd_mant1_1_1
   031E A3                  703 	inc	dptr
   031F A3                  704 	inc	dptr
   0320 A3                  705 	inc	dptr
   0321 E0                  706 	movx	a,@dptr
   0322 30 E7 3D            707 	jnb  acc.7,00121$
   0325                     708 00180$:
                            709 ;	_fsadd.c:220: mant1 = -mant1;
   0325 90s00r00r08         710 	mov	dptr,#___fsadd_mant1_1_1
   0329 75 86 01            711 	mov	dps, #1
   032C 90s00r00r08         712 	mov	dptr, #___fsadd_mant1_1_1
   0330 15 86               713 	dec	dps
   0332 E0                  714 	movx	a,@dptr
   0333 D3                  715 	setb	c
   0334 F4                  716 	cpl	a
   0335 34 00               717 	addc	a,#0x00
   0337 05 86               718 	inc	dps
   0339 F0                  719 	movx	@dptr,a
   033A 15 86               720 	dec	dps
   033C A3                  721 	inc	dptr
   033D E0                  722 	movx	a,@dptr
   033E F4                  723 	cpl	a
   033F 34 00               724 	addc	a,#0x00
   0341 05 86               725 	inc	dps
   0343 A3                  726 	inc	dptr
   0344 F0                  727 	movx	@dptr,a
   0345 15 86               728 	dec	dps
   0347 A3                  729 	inc	dptr
   0348 E0                  730 	movx	a,@dptr
   0349 F4                  731 	cpl	a
   034A 34 00               732 	addc	a,#0x00
   034C 05 86               733 	inc	dps
   034E A3                  734 	inc	dptr
   034F F0                  735 	movx	@dptr,a
   0350 15 86               736 	dec	dps
   0352 A3                  737 	inc	dptr
   0353 E0                  738 	movx	a,@dptr
   0354 F4                  739 	cpl	a
   0355 34 00               740 	addc	a,#0x00
   0357 05 86               741 	inc	dps
   0359 A3                  742 	inc	dptr
   035A F0                  743 	movx	@dptr,a
   035B 75 86 00            744 	mov	dps,#0
                            745 ;	_fsadd.c:221: sign = true;
                            746 ;	genAssign: resultIsFar = FALSE
   035E D2*00               747 	setb	___fsadd_sign_1_1
   0360 80 20               748 	sjmp 00154$
   0362                     749 00121$:
                            750 ;	_fsadd.c:223: else if (!mant1)
   0362 90s00r00r08         751 	mov	dptr,#___fsadd_mant1_1_1
   0366 E0                  752 	movx	a,@dptr
   0367 F5 F0               753 	mov	b,a
   0369 A3                  754 	inc	dptr
   036A E0                  755 	movx	a,@dptr
   036B 42 F0               756 	orl	b,a
   036D A3                  757 	inc	dptr
   036E E0                  758 	movx	a,@dptr
   036F 42 F0               759 	orl	b,a
   0371 A3                  760 	inc	dptr
   0372 E0                  761 	movx	a,@dptr
   0373 45 F0               762 	orl	a,b
   0375 70 0B               763 	jnz  00154$
   0377                     764 00181$:
                            765 ;	_fsadd.c:224: return (0);
   0377 90 00 00 00         766 	mov  dptr,#0x0000
   037B 75 F0 00            767 	mov	b,#0x00
   037E 02s00r05r51         768 	ljmp	00137$
                            769 ;	_fsadd.c:227: while (mant1 < (HIDDEN<<4)) {
   0382                     770 00154$:
   0382 90s00r00r10         771 	mov	dptr,#___fsadd_exp1_1_1
                            772 ;	genAssign: resultIsFar = FALSE
   0386 E0                  773 	movx	a,@dptr
   0387 FA                  774 	mov	r2,a
   0388 A3                  775 	inc	dptr
   0389 E0                  776 	movx	a,@dptr
   038A FB                  777 	mov	r3,a
   038B                     778 00123$:
   038B 90s00r00r08         779 	mov	dptr,#___fsadd_mant1_1_1
                            780 ;	genAssign: resultIsFar = FALSE
   038F E0                  781 	movx	a,@dptr
   0390 FC                  782 	mov	r4,a
   0391 A3                  783 	inc	dptr
   0392 E0                  784 	movx	a,@dptr
   0393 FD                  785 	mov	r5,a
   0394 A3                  786 	inc	dptr
   0395 E0                  787 	movx	a,@dptr
   0396 FE                  788 	mov	r6,a
   0397 A3                  789 	inc	dptr
   0398 E0                  790 	movx	a,@dptr
   0399 FF                  791 	mov	r7,a
   039A C3                  792 	clr	c
   039B EC                  793 	mov	a,r4
   039C 94 00               794 	subb	a,#0x00
   039E ED                  795 	mov	a,r5
   039F 94 00               796 	subb	a,#0x00
   03A1 EE                  797 	mov	a,r6
   03A2 94 00               798 	subb	a,#0x00
   03A4 EF                  799 	mov	a,r7
   03A5 94 08               800 	subb	a,#0x08
   03A7 50 3A               801 	jnc  00157$
   03A9                     802 00182$:
                            803 ;	_fsadd.c:228: mant1 <<= 1;
   03A9 75 F0 02            804 	mov	b,#0x02
   03AC 90s00r00r08         805 	mov	dptr,#___fsadd_mant1_1_1
   03B0 E0                  806 	movx	a,@dptr
   03B1 FC                  807 	mov     r4,a
   03B2 A3                  808 	inc	dptr
   03B3 E0                  809 	movx	a,@dptr
   03B4 FD                  810 	mov     r5,a
   03B5 A3                  811 	inc	dptr
   03B6 E0                  812 	movx	a,@dptr
   03B7 FE                  813 	mov     r6,a
   03B8 A3                  814 	inc	dptr
   03B9 E0                  815 	movx	a,@dptr
   03BA FF                  816 	mov     r7,a
   03BB 80 0D               817 	sjmp	00184$
   03BD                     818 00183$:
   03BD EC                  819 	mov	a,r4
   03BE 25 E0               820 	add	a,acc
   03C0 FC                  821 	mov	r4,a
   03C1 ED                  822 	mov	a,r5
   03C2 33                  823 	rlc	a
   03C3 FD                  824 	mov	r5,a
   03C4 EE                  825 	mov	a,r6
   03C5 33                  826 	rlc	a
   03C6 FE                  827 	mov	r6,a
   03C7 EF                  828 	mov	a,r7
   03C8 33                  829 	rlc	a
   03C9 FF                  830 	mov	r7,a
   03CA                     831 00184$:
   03CA D5 F0 F0            832 	djnz	b,00183$
                            833 ;	genAssign: resultIsFar = TRUE
   03CD 90s00r00r08         834 	mov	dptr,#___fsadd_mant1_1_1
   03D1 EC                  835 	mov	a,r4
   03D2 F0                  836 	movx	@dptr,a
   03D3 A3                  837 	inc	dptr
   03D4 ED                  838 	mov	a,r5
   03D5 F0                  839 	movx	@dptr,a
   03D6 A3                  840 	inc	dptr
   03D7 EE                  841 	mov	a,r6
   03D8 F0                  842 	movx	@dptr,a
   03D9 A3                  843 	inc	dptr
   03DA EF                  844 	mov	a,r7
   03DB F0                  845 	movx	@dptr,a
                            846 ;	_fsadd.c:229: exp1--;
   03DC 1A                  847 	dec	r2
   03DD BA FF 01            848 	cjne	r2,#0xFF,00185$
   03E0 1B                  849 	dec	r3
   03E1                     850 00185$:
                            851 ;	_fsadd.c:233: while (mant1 & 0xf0000000) {
   03E1 80 A8               852 	sjmp 00123$
   03E3                     853 00157$:
                            854 ;	genAssign: resultIsFar = FALSE
   03E3                     855 00128$:
   03E3 90s00r00r08         856 	mov	dptr,#___fsadd_mant1_1_1
   03E7 A3                  857 	inc	dptr
   03E8 A3                  858 	inc	dptr
   03E9 A3                  859 	inc	dptr
   03EA E0                  860 	movx	a,@dptr
   03EB 54 F0               861 	anl	a,#0xF0
   03ED 60 55               862 	jz  00163$
   03EF                     863 00186$:
                            864 ;	_fsadd.c:234: if (mant1&1)
   03EF 90s00r00r08         865 	mov	dptr,#___fsadd_mant1_1_1
   03F3 E0                  866 	movx	a,@dptr
   03F4 30 E0 17            867 	jnb  acc.0,00127$
   03F7                     868 00187$:
                            869 ;	_fsadd.c:235: mant1 += 2;
   03F7 90s00r00r08         870 	mov	dptr,#___fsadd_mant1_1_1
   03FB E0                  871 	movx	a,@dptr
   03FC 24 02               872 	add	a,#0x02
   03FE F0                  873 	movx	@dptr,a
   03FF A3                  874 	inc	dptr
   0400 E0                  875 	movx	a,@dptr
   0401 34 00               876 	addc	a,#0x00
   0403 F0                  877 	movx	@dptr,a
   0404 A3                  878 	inc	dptr
   0405 E0                  879 	movx	a,@dptr
   0406 34 00               880 	addc	a,#0x00
   0408 F0                  881 	movx	@dptr,a
   0409 A3                  882 	inc	dptr
   040A E0                  883 	movx	a,@dptr
   040B 34 00               884 	addc	a,#0x00
   040D F0                  885 	movx	@dptr,a
   040E                     886 00127$:
                            887 ;	_fsadd.c:236: mant1 >>= 1;
   040E 90s00r00r08         888 	mov	dptr,#___fsadd_mant1_1_1
   0412 A3                  889 	inc	dptr
   0413 A3                  890 	inc	dptr
   0414 A3                  891 	inc	dptr
   0415 E0                  892 	movx	a,@dptr
   0416 A2 E7               893 	mov	c,acc.7
   0418 13                  894 	rrc	a
   0419 FF                  895 	mov	r7,a
   041A 12s00r00r00         896 	lcall	__decdptr
   041E E0                  897 	movx	a,@dptr
   041F 13                  898 	rrc	a
   0420 FE                  899 	mov	r6,a
   0421 12s00r00r00         900 	lcall	__decdptr
   0425 E0                  901 	movx	a,@dptr
   0426 13                  902 	rrc	a
   0427 FD                  903 	mov	r5,a
   0428 12s00r00r00         904 	lcall	__decdptr
   042C E0                  905 	movx	a,@dptr
   042D 13                  906 	rrc	a
                            907 ;	genAssign: resultIsFar = TRUE
   042E FC                  908 	mov  r4,a
   042F 90s00r00r08         909 	mov  dptr,#___fsadd_mant1_1_1
   0433 F0                  910 	movx @dptr,a
   0434 A3                  911 	inc	dptr
   0435 ED                  912 	mov	a,r5
   0436 F0                  913 	movx	@dptr,a
   0437 A3                  914 	inc	dptr
   0438 EE                  915 	mov	a,r6
   0439 F0                  916 	movx	@dptr,a
   043A A3                  917 	inc	dptr
   043B EF                  918 	mov	a,r7
   043C F0                  919 	movx	@dptr,a
                            920 ;	_fsadd.c:237: exp1++;
   043D 0A                  921 	inc	r2
   043E BA 00 01            922 	cjne	r2,#0,00188$
   0441 0B                  923 	inc	r3
   0442                     924 00188$:
   0442 80 9F               925 	sjmp 00128$
   0444                     926 00163$:
                            927 ;	genAssign: resultIsFar = TRUE
   0444 90s00r00r10         928 	mov	dptr,#___fsadd_exp1_1_1
   0448 EA                  929 	mov	a,r2
   0449 F0                  930 	movx	@dptr,a
   044A A3                  931 	inc	dptr
   044B EB                  932 	mov	a,r3
   044C F0                  933 	movx	@dptr,a
                            934 ;	_fsadd.c:241: mant1 &= ~(HIDDEN<<4);
   044D 90s00r00r08         935 	mov	dptr,#___fsadd_mant1_1_1
   0451 E0                  936 	movx	a,@dptr
   0452 F0                  937 	movx	@dptr,a
   0453 A3                  938 	inc	dptr
   0454 E0                  939 	movx	a,@dptr
   0455 F0                  940 	movx	@dptr,a
   0456 A3                  941 	inc	dptr
   0457 E0                  942 	movx	a,@dptr
   0458 F0                  943 	movx	@dptr,a
   0459 A3                  944 	inc	dptr
   045A E0                  945 	movx	a,@dptr
   045B 54 F7               946 	anl	a,#0xF7
   045D F0                  947 	movx	@dptr,a
                            948 ;	_fsadd.c:244: if (exp1 >= 0x100)
   045E C3                  949 	clr	c
   045F EA                  950 	mov	a,r2
   0460 94 00               951 	subb	a,#0x00
   0462 EB                  952 	mov	a,r3
   0463 64 80               953 	xrl	a,#0x80
   0465 94 81               954 	subb	a,#0x81
   0467 40 28               955 	jc   00135$
   0469                     956 00189$:
                            957 ;	_fsadd.c:245: *pfl1 = (sign ? (SIGNBIT | __INFINITY) : __INFINITY);
   0469 30*00 0A            958 	jnb  ___fsadd_sign_1_1,00139$
   046C                     959 00190$:
                            960 ;	genAssign: resultIsFar = FALSE
   046C 7C 00               961 	mov	r4,#0x00
   046E 7D 00               962 	mov	r5,#0x00
   0470 7E 80               963 	mov	r6,#0x80
   0472 7F FF               964 	mov	r7,#0xFF
   0474 80 08               965 	sjmp 00140$
   0476                     966 00139$:
                            967 ;	genAssign: resultIsFar = FALSE
   0476 7C 00               968 	mov	r4,#0x00
   0478 7D 00               969 	mov	r5,#0x00
   047A 7E 80               970 	mov	r6,#0x80
   047C 7F 7F               971 	mov	r7,#0x7F
   047E                     972 00140$:
   047E 90s00r00r04         973 	mov	dptr,#___fsadd_a1_1_1
   0482 EC                  974 	mov	a,r4
   0483 F0                  975 	movx	@dptr,a
   0484 A3                  976 	inc	dptr
   0485 ED                  977 	mov	a,r5
   0486 F0                  978 	movx	@dptr,a
   0487 A3                  979 	inc	dptr
   0488 EE                  980 	mov	a,r6
   0489 F0                  981 	movx	@dptr,a
   048A A3                  982 	inc	dptr
   048B EF                  983 	mov	a,r7
   048C F0                  984 	movx	@dptr,a
   048D 02s00r05r38         985 	ljmp	00136$
   0491                     986 00135$:
                            987 ;	_fsadd.c:246: else if (exp1 < 0)
   0491 EB                  988 	mov	a,r3
   0492 30 E7 11            989 	jnb  acc.7,00132$
   0495                     990 00191$:
                            991 ;	_fsadd.c:247: *pfl1 = 0;
   0495 90s00r00r04         992 	mov	dptr,#___fsadd_a1_1_1
   0499 E4                  993 	clr  a
   049A F0                  994 	movx @dptr,a
   049B A3                  995 	inc  dptr
   049C F0                  996 	movx @dptr,a
   049D A3                  997 	inc	dptr
   049E E4                  998 	clr  a
   049F F0                  999 	movx @dptr,a
   04A0 A3                 1000 	inc  dptr
   04A1 F0                 1001 	movx @dptr,a
   04A2 02s00r05r38        1002 	ljmp	00136$
   04A6                    1003 00132$:
                           1004 ;	_fsadd.c:249: *pfl1 = PACK (sign ? SIGNBIT : 0 , exp1, mant1>>4);
   04A6 30*00 0A           1005 	jnb  ___fsadd_sign_1_1,00141$
   04A9                    1006 00192$:
                           1007 ;	genAssign: resultIsFar = FALSE
   04A9 7A 00              1008 	mov	r2,#0x00
   04AB 7B 00              1009 	mov	r3,#0x00
   04AD 7C 00              1010 	mov	r4,#0x00
   04AF 7D 80              1011 	mov	r5,#0x80
   04B1 80 08              1012 	sjmp 00142$
   04B3                    1013 00141$:
                           1014 ;	genAssign: resultIsFar = FALSE
   04B3 7A 00              1015 	mov	r2,#0x00
   04B5 7B 00              1016 	mov	r3,#0x00
   04B7 7C 00              1017 	mov	r4,#0x00
   04B9 7D 00              1018 	mov	r5,#0x00
   04BB                    1019 00142$:
   04BB 90s00r00r10        1020 	mov	dptr,#___fsadd_exp1_1_1
   04BF E0                 1021 	movx	a,@dptr
   04C0 FE                 1022 	mov	r6,a
   04C1 A3                 1023 	inc	dptr
   04C2 E0                 1024 	movx	a,@dptr
   04C3 FF                 1025 	mov	r7,a
   04C4 E0                 1026 	movx	a,@dptr
   04C5 33                 1027 	rlc	a
   04C6 95 E0              1028 	subb	a,acc
   04C8 F8                 1029 	mov	r0,a
   04C9 F9                 1030 	mov	r1,a
   04CA 75 F0 18           1031 	mov	b,#0x18
   04CD 80 0D              1032 	sjmp	00194$
   04CF                    1033 00193$:
   04CF EE                 1034 	mov	a,r6
   04D0 25 E0              1035 	add	a,acc
   04D2 FE                 1036 	mov	r6,a
   04D3 EF                 1037 	mov	a,r7
   04D4 33                 1038 	rlc	a
   04D5 FF                 1039 	mov	r7,a
   04D6 E8                 1040 	mov	a,r0
   04D7 33                 1041 	rlc	a
   04D8 F8                 1042 	mov	r0,a
   04D9 E9                 1043 	mov	a,r1
   04DA 33                 1044 	rlc	a
   04DB F9                 1045 	mov	r1,a
   04DC                    1046 00194$:
   04DC D5 F0 F0           1047 	djnz	b,00193$
   04DF EE                 1048 	mov	a,r6
   04E0 42 02              1049 	orl	ar2,a
   04E2 EF                 1050 	mov	a,r7
   04E3 42 03              1051 	orl	ar3,a
   04E5 E8                 1052 	mov	a,r0
   04E6 42 04              1053 	orl	ar4,a
   04E8 E9                 1054 	mov	a,r1
   04E9 42 05              1055 	orl	ar5,a
   04EB 90s00r00r08        1056 	mov	dptr,#___fsadd_mant1_1_1
   04EF E0                 1057 	movx	a,@dptr
   04F0 FE                 1058 	mov	r6,a
   04F1 A3                 1059 	inc	dptr
   04F2 E0                 1060 	movx	a,@dptr
   04F3 C4                 1061 	swap	a
   04F4 CE                 1062 	xch	a,r6
   04F5 C4                 1063 	swap	a
   04F6 54 0F              1064 	anl	a,#0x0F
   04F8 6E                 1065 	xrl	a,r6
   04F9 CE                 1066 	xch	a,r6
   04FA 54 0F              1067 	anl	a,#0x0F
   04FC CE                 1068 	xch	a,r6
   04FD 6E                 1069 	xrl	a,r6
   04FE CE                 1070 	xch	a,r6
   04FF FF                 1071 	mov	r7,a
   0500 A3                 1072 	inc	dptr
   0501 E0                 1073 	movx	a,@dptr
   0502 C4                 1074 	swap	a
   0503 54 F0              1075 	anl	a,#0xF0
   0505 4F                 1076 	orl	a,r7
   0506 FF                 1077 	mov	r7,a
   0507 E0                 1078 	movx	a,@dptr
   0508 F8                 1079 	mov	r0,a
   0509 A3                 1080 	inc	dptr
   050A E0                 1081 	movx	a,@dptr
   050B C4                 1082 	swap	a
   050C C8                 1083 	xch	a,r0
   050D C4                 1084 	swap	a
   050E 54 0F              1085 	anl	a,#0x0F
   0510 68                 1086 	xrl	a,r0
   0511 C8                 1087 	xch	a,r0
   0512 54 0F              1088 	anl	a,#0x0F
   0514 C8                 1089 	xch	a,r0
   0515 68                 1090 	xrl	a,r0
   0516 C8                 1091 	xch	a,r0
   0517 30 E3 02           1092 	jnb	acc.3,00195$
   051A 44 F0              1093 	orl	a,#0xF0
   051C                    1094 00195$:
   051C F9                 1095 	mov	r1,a
   051D EE                 1096 	mov	a,r6
   051E 42 02              1097 	orl	ar2,a
   0520 EF                 1098 	mov	a,r7
   0521 42 03              1099 	orl	ar3,a
   0523 E8                 1100 	mov	a,r0
   0524 42 04              1101 	orl	ar4,a
   0526 E9                 1102 	mov	a,r1
   0527 42 05              1103 	orl	ar5,a
   0529 90s00r00r04        1104 	mov	dptr,#___fsadd_a1_1_1
   052D EA                 1105 	mov	a,r2
   052E F0                 1106 	movx	@dptr,a
   052F A3                 1107 	inc	dptr
   0530 EB                 1108 	mov	a,r3
   0531 F0                 1109 	movx	@dptr,a
   0532 A3                 1110 	inc	dptr
   0533 EC                 1111 	mov	a,r4
   0534 F0                 1112 	movx	@dptr,a
   0535 A3                 1113 	inc	dptr
   0536 ED                 1114 	mov	a,r5
   0537 F0                 1115 	movx	@dptr,a
   0538                    1116 00136$:
                           1117 ;	_fsadd.c:250: return (a1);
   0538 75 86 01           1118 	mov     dps, #1
   053B 90s00r00r04        1119 	mov     dptr, #___fsadd_a1_1_1
   053F E0                 1120 	movx	a,@dptr
   0540 F5 82              1121 	mov	dpl,a
   0542 A3                 1122 	inc	dptr
   0543 E0                 1123 	movx	a,@dptr
   0544 F5 83              1124 	mov	dph,a
   0546 A3                 1125 	inc	dptr
   0547 E0                 1126 	movx	a,@dptr
   0548 F5 93              1127 	mov	dpx,a
   054A A3                 1128 	inc	dptr
   054B E0                 1129 	movx	a,@dptr
   054C F5 F0              1130 	mov	b,a
   054E 75 86 00           1131 	mov	dps,#0
   0551                    1132 00137$:
   0551 22                 1133 	ret
                           1134 	.area CSEG    (CODE)
                           1135 	.area CONST   (CODE)
                           1136 	.area XINIT   (CODE)
                           1137 	.area CABS    (ABS,CODE)
