;--------------------------------------------------------
; File Created by SDCC : free open source ANSI-C Compiler
; Version 3.0.1 #6227 (Oct  2 2015) (Linux)
; This file was generated Fri Oct  2 17:18:19 2015
;--------------------------------------------------------
	.module _fsmul
	.optsdcc -mgbz80
	
;--------------------------------------------------------
; Public variables in this module
;--------------------------------------------------------
	.globl ___fsmul
;--------------------------------------------------------
;  ram data
;--------------------------------------------------------
	.area _DATA
;--------------------------------------------------------
; overlayable items in  ram 
;--------------------------------------------------------
	.area _OVERLAY
;--------------------------------------------------------
; external initialized ram data
;--------------------------------------------------------
;--------------------------------------------------------
; global & static initialisations
;--------------------------------------------------------
	.area _HOME
	.area _GSINIT
	.area _GSFINAL
	.area _GSINIT
;--------------------------------------------------------
; Home
;--------------------------------------------------------
	.area _HOME
;../_fsmul.c:241: float __fsmul (float a1, float a2) {
;	---------------------------------
; Function __fsmul
; ---------------------------------
___fsmul_start::
___fsmul:
	lda	sp,-27(sp)
;../_fsmul.c:247: fl1.f = a1;
	ldhl	sp,#23
	ld	c,l
	ld	b,h
	ld	e,c
	ld	d,b
	ldhl	sp,#29
	ld	a,(hl)
	ld	(de),a
	inc	de
	inc	hl
	ld	a,(hl)
	ld	(de),a
	inc	de
	inc	hl
	ld	a,(hl)
	ld	(de),a
	inc	de
	inc	hl
	ld	a,(hl)
	ld	(de),a
;../_fsmul.c:248: fl2.f = a2;
	ldhl	sp,#19
	ld	c,l
	ld	b,h
	ld	e,c
	ld	d,b
	ldhl	sp,#33
	ld	a,(hl)
	ld	(de),a
	inc	de
	inc	hl
	ld	a,(hl)
	ld	(de),a
	inc	de
	inc	hl
	ld	a,(hl)
	ld	(de),a
	inc	de
	inc	hl
	ld	a,(hl)
	ld	(de),a
;../_fsmul.c:250: if (!fl1.l || !fl2.l)
	ldhl	sp,#23
	ld	c,l
	ld	b,h
	ld	e,c
	ld	d,b
	ld	a,(de)
	ldhl	sp,#8
	ld	(hl),a
	inc	de
	ld	a,(de)
	inc	hl
	ld	(hl),a
	inc	de
	ld	a,(de)
	inc	hl
	ld	(hl),a
	inc	de
	ld	a,(de)
	inc	hl
	ld	(hl),a
	ldhl	sp,#8
	ld	a,(hl)
	inc	hl
	or	a,(hl)
	inc	hl
	or	a,(hl)
	inc	hl
	or	a,(hl)
	jp	Z,00101$
	ldhl	sp,#19
	ld	c,l
	ld	b,h
	ld	e,c
	ld	d,b
	ld	a,(de)
	ldhl	sp,#8
	ld	(hl),a
	inc	de
	ld	a,(de)
	inc	hl
	ld	(hl),a
	inc	de
	ld	a,(de)
	inc	hl
	ld	(hl),a
	inc	de
	ld	a,(de)
	inc	hl
	ld	(hl),a
	ldhl	sp,#8
	ld	a,(hl)
	inc	hl
	or	a,(hl)
	inc	hl
	or	a,(hl)
	inc	hl
	or	a,(hl)
	jp	NZ,00102$
00101$:
;../_fsmul.c:251: return (0);
	ld	de,#0x0000
	ld	hl,#0x0000
	jp	00113$
00102$:
;../_fsmul.c:254: sign = SIGN (fl1.l) ^ SIGN (fl2.l);
	ldhl	sp,#23
	ld	c,l
	ld	b,h
	ld	e,c
	ld	d,b
	ld	a,(de)
	ldhl	sp,#8
	ld	(hl),a
	inc	de
	ld	a,(de)
	inc	hl
	ld	(hl),a
	inc	de
	ld	a,(de)
	inc	hl
	ld	(hl),a
	inc	de
	ld	a,(de)
	inc	hl
	ld	(hl),a
	ld	a,(hl)
	rlc	a
	and	a,#0x01
	ldhl	sp,#8
	ld	(hl),a
	ldhl	sp,#19
	ld	c,l
	ld	b,h
	ld	e,c
	ld	d,b
	ld	a,(de)
	ldhl	sp,#4
	ld	(hl),a
	inc	de
	ld	a,(de)
	inc	hl
	ld	(hl),a
	inc	de
	ld	a,(de)
	inc	hl
	ld	(hl),a
	inc	de
	ld	a,(de)
	inc	hl
	ld	(hl),a
	ld	a,(hl)
	rlc	a
	and	a,#0x01
	inc	hl
	xor	a,(hl)
	ldhl	sp,#12
	ld	(hl),a
;../_fsmul.c:255: exp = EXP (fl1.l) - EXCESS;
	ldhl	sp,#23
	ld	c,l
	ld	b,h
	ld	e,c
	ld	d,b
	ld	a,(de)
	ldhl	sp,#4
	ld	(hl),a
	inc	de
	ld	a,(de)
	inc	hl
	ld	(hl),a
	inc	de
	ld	a,(de)
	inc	hl
	ld	(hl),a
	inc	de
	ld	a,(de)
	inc	hl
	ld	(hl),a
	ld	a,#0x17
	push	af
	inc	sp
	dec	hl
	ld	a,(hl)
	inc	hl
	ld	h,(hl)
	ld	l,a
	push	hl
	ldhl	sp,#7
	ld	a,(hl)
	inc	hl
	ld	h,(hl)
	ld	l,a
	push	hl
	call	__rrulong_rrx_s
	lda	sp,5(sp)
	push	hl
	ldhl	sp,#6
	ld	(hl),e
	inc	hl
	ld	(hl),d
	pop	de
	inc	hl
	ld	(hl),e
	inc	hl
	ld	(hl),d
	ldhl	sp,#5
	ld	(hl),#0x00
	inc	hl
	ld	(hl),#0x00
	inc	hl
	ld	(hl),#0x00
	dec	hl
	dec	hl
	dec	hl
	ld	e,(hl)
	inc	hl
	ld	d,(hl)
	ld	a,e
	sub	a,#0x7E
	ld	e,a
	ld	a,d
	sbc	a,#0x00
	push	af
	ld	(hl),a
	dec	hl
	ld	(hl),e
	ldhl	sp,#9
	dec	hl
	ld	e,(hl)
	inc	hl
	ld	d,(hl)
	pop	af
	ld	a,e
	sbc	a,#0x00
	ld	e,a
	ld	a,d
	sbc	a,#0x00
	ld	(hl),a
	dec	hl
	ld	(hl),e
	dec	hl
	dec	hl
	ld	a,(hl)
	ldhl	sp,#13
	ld	(hl),a
	ldhl	sp,#5
	ld	a,(hl)
	ldhl	sp,#14
	ld	(hl),a
;../_fsmul.c:256: exp += EXP (fl2.l);
	ldhl	sp,#19
	ld	c,l
	ld	b,h
	ld	e,c
	ld	d,b
	ld	a,(de)
	ldhl	sp,#4
	ld	(hl),a
	inc	de
	ld	a,(de)
	inc	hl
	ld	(hl),a
	inc	de
	ld	a,(de)
	inc	hl
	ld	(hl),a
	inc	de
	ld	a,(de)
	inc	hl
	ld	(hl),a
	ld	a,#0x17
	push	af
	inc	sp
	dec	hl
	ld	a,(hl)
	inc	hl
	ld	h,(hl)
	ld	l,a
	push	hl
	ldhl	sp,#7
	ld	a,(hl)
	inc	hl
	ld	h,(hl)
	ld	l,a
	push	hl
	call	__rrulong_rrx_s
	lda	sp,5(sp)
	push	hl
	ldhl	sp,#6
	ld	(hl),e
	inc	hl
	ld	(hl),d
	pop	de
	inc	hl
	ld	(hl),e
	inc	hl
	ld	(hl),d
	ldhl	sp,#5
	ld	(hl),#0x00
	inc	hl
	ld	(hl),#0x00
	inc	hl
	ld	(hl),#0x00
	ldhl	sp,#13
	ld	a,(hl)
	ldhl	sp,#8
	ld	(hl),a
	ldhl	sp,#14
	ld	a,(hl)
	ldhl	sp,#9
	ld	(hl),a
	ldhl	sp,#14
	ld	a,(hl)
	rla	
	sbc	a,a
	ldhl	sp,#10
	ld	(hl),a
	inc	hl
	ld	(hl),a
	dec	hl
	dec	hl
	dec	hl
	ld	e,(hl)
	inc	hl
	ld	d,(hl)
	ld	a,e
	ldhl	sp,#4
	add	a,(hl)
	ld	e,a
	ld	a,d
	inc	hl
	adc	a,(hl)
	push	af
	ld	(hl),a
	dec	hl
	ld	(hl),e
	ldhl	sp,#13
	dec	hl
	ld	e,(hl)
	inc	hl
	ld	d,(hl)
	ldhl	sp,#8
	pop	af
	ld	a,e
	adc	a,(hl)
	ld	e,a
	ld	a,d
	inc	hl
	adc	a,(hl)
	ld	(hl),a
	dec	hl
	ld	(hl),e
	dec	hl
	dec	hl
	ld	a,(hl)
	ldhl	sp,#13
	ld	(hl),a
	ldhl	sp,#5
	ld	a,(hl)
	ldhl	sp,#14
	ld	(hl),a
;../_fsmul.c:258: fl1.l = MANT (fl1.l);
	ldhl	sp,#23
	ld	a,l
	ld	d,h
	ldhl	sp,#4
	ld	(hl),a
	inc	hl
	ld	(hl),d
	ldhl	sp,#23
	ld	c,l
	ld	b,h
	ld	e,c
	ld	d,b
	ld	a,(de)
	ldhl	sp,#8
	ld	(hl),a
	inc	de
	ld	a,(de)
	inc	hl
	ld	(hl),a
	inc	de
	ld	a,(de)
	inc	hl
	ld	(hl),a
	inc	de
	ld	a,(de)
	inc	hl
	ld	(hl),a
	dec	hl
	ld	a,(hl)
	and	a,#0x7F
	ld	(hl),a
	inc	hl
	ld	(hl),#0x00
	dec	hl
	ld	a,(hl)
	set	7, a
	ld	(hl),a
	ldhl	sp,#5
	dec	hl
	ld	e,(hl)
	inc	hl
	ld	d,(hl)
	ldhl	sp,#8
	ld	a,(hl)
	ld	(de),a
	inc	de
	inc	hl
	ld	a,(hl)
	ld	(de),a
	inc	de
	inc	hl
	ld	a,(hl)
	ld	(de),a
	inc	de
	inc	hl
	ld	a,(hl)
	ld	(de),a
;../_fsmul.c:259: fl2.l = MANT (fl2.l);
	ldhl	sp,#19
	ld	a,l
	ld	d,h
	ldhl	sp,#4
	ld	(hl),a
	inc	hl
	ld	(hl),d
	ldhl	sp,#19
	ld	c,l
	ld	b,h
	ld	e,c
	ld	d,b
	ld	a,(de)
	ldhl	sp,#8
	ld	(hl),a
	inc	de
	ld	a,(de)
	inc	hl
	ld	(hl),a
	inc	de
	ld	a,(de)
	inc	hl
	ld	(hl),a
	inc	de
	ld	a,(de)
	inc	hl
	ld	(hl),a
	dec	hl
	ld	a,(hl)
	and	a,#0x7F
	ld	(hl),a
	inc	hl
	ld	(hl),#0x00
	dec	hl
	ld	a,(hl)
	set	7, a
	ld	(hl),a
	ldhl	sp,#5
	dec	hl
	ld	e,(hl)
	inc	hl
	ld	d,(hl)
	ldhl	sp,#8
	ld	a,(hl)
	ld	(de),a
	inc	de
	inc	hl
	ld	a,(hl)
	ld	(de),a
	inc	de
	inc	hl
	ld	a,(hl)
	ld	(de),a
	inc	de
	inc	hl
	ld	a,(hl)
	ld	(de),a
;../_fsmul.c:262: result = (fl1.l >> 8) * (fl2.l >> 8);
	ldhl	sp,#23
	ld	c,l
	ld	b,h
	ld	e,c
	ld	d,b
	ld	a,(de)
	ldhl	sp,#4
	ld	(hl),a
	inc	de
	ld	a,(de)
	inc	hl
	ld	(hl),a
	inc	de
	ld	a,(de)
	inc	hl
	ld	(hl),a
	inc	de
	ld	a,(de)
	inc	hl
	ld	(hl),a
	ld	a,#0x08
	push	af
	inc	sp
	dec	hl
	ld	a,(hl)
	inc	hl
	ld	h,(hl)
	ld	l,a
	push	hl
	ldhl	sp,#7
	ld	a,(hl)
	inc	hl
	ld	h,(hl)
	ld	l,a
	push	hl
	call	__rrulong_rrx_s
	lda	sp,5(sp)
	push	hl
	ldhl	sp,#6
	ld	(hl),e
	inc	hl
	ld	(hl),d
	pop	de
	inc	hl
	ld	(hl),e
	inc	hl
	ld	(hl),d
	ldhl	sp,#19
	ld	c,l
	ld	b,h
	ld	e,c
	ld	d,b
	ld	a,(de)
	ldhl	sp,#8
	ld	(hl),a
	inc	de
	ld	a,(de)
	inc	hl
	ld	(hl),a
	inc	de
	ld	a,(de)
	inc	hl
	ld	(hl),a
	inc	de
	ld	a,(de)
	inc	hl
	ld	(hl),a
	ld	a,#0x08
	push	af
	inc	sp
	dec	hl
	ld	a,(hl)
	inc	hl
	ld	h,(hl)
	ld	l,a
	push	hl
	ldhl	sp,#11
	ld	a,(hl)
	inc	hl
	ld	h,(hl)
	ld	l,a
	push	hl
	call	__rrulong_rrx_s
	lda	sp,5(sp)
	push	hl
	ldhl	sp,#10
	ld	(hl),e
	inc	hl
	ld	(hl),d
	pop	de
	inc	hl
	ld	(hl),e
	inc	hl
	ld	(hl),d
	ldhl	sp,#10
	ld	a,(hl)
	inc	hl
	ld	h,(hl)
	ld	l,a
	push	hl
	ldhl	sp,#10
	ld	a,(hl)
	inc	hl
	ld	h,(hl)
	ld	l,a
	push	hl
	ldhl	sp,#10
	ld	a,(hl)
	inc	hl
	ld	h,(hl)
	ld	l,a
	push	hl
	ldhl	sp,#10
	ld	a,(hl)
	inc	hl
	ld	h,(hl)
	ld	l,a
	push	hl
	call	__mullong_rrx_s
	lda	sp,8(sp)
	push	hl
	ldhl	sp,#6
	ld	(hl),e
	inc	hl
	ld	(hl),d
	pop	de
	inc	hl
	ld	(hl),e
	inc	hl
	ld	(hl),d
	ldhl	sp,#4
	ld	d,h
	ld	e,l
	ldhl	sp,#15
	ld	a,(de)
	ld	(hl),a
	inc	hl
	inc	de
	ld	a,(de)
	ld	(hl),a
	inc	hl
	inc	de
	ld	a,(de)
	ld	(hl),a
	inc	hl
	inc	de
	ld	a,(de)
	ld	(hl),a
;../_fsmul.c:263: result += ((fl1.l & (unsigned long) 0xFF) * (fl2.l >> 8)) >> 8;
	ldhl	sp,#23
	ld	c,l
	ld	b,h
	ld	e,c
	ld	d,b
	ld	a,(de)
	ldhl	sp,#4
	ld	(hl),a
	inc	de
	ld	a,(de)
	inc	hl
	ld	(hl),a
	inc	de
	ld	a,(de)
	inc	hl
	ld	(hl),a
	inc	de
	ld	a,(de)
	inc	hl
	ld	(hl),a
	dec	hl
	dec	hl
	ld	(hl),#0x00
	inc	hl
	ld	(hl),#0x00
	inc	hl
	ld	(hl),#0x00
	ldhl	sp,#19
	ld	c,l
	ld	b,h
	ld	e,c
	ld	d,b
	ld	a,(de)
	ldhl	sp,#8
	ld	(hl),a
	inc	de
	ld	a,(de)
	inc	hl
	ld	(hl),a
	inc	de
	ld	a,(de)
	inc	hl
	ld	(hl),a
	inc	de
	ld	a,(de)
	inc	hl
	ld	(hl),a
	ld	a,#0x08
	push	af
	inc	sp
	dec	hl
	ld	a,(hl)
	inc	hl
	ld	h,(hl)
	ld	l,a
	push	hl
	ldhl	sp,#11
	ld	a,(hl)
	inc	hl
	ld	h,(hl)
	ld	l,a
	push	hl
	call	__rrulong_rrx_s
	lda	sp,5(sp)
	push	hl
	ldhl	sp,#10
	ld	(hl),e
	inc	hl
	ld	(hl),d
	pop	de
	inc	hl
	ld	(hl),e
	inc	hl
	ld	(hl),d
	ldhl	sp,#10
	ld	a,(hl)
	inc	hl
	ld	h,(hl)
	ld	l,a
	push	hl
	ldhl	sp,#10
	ld	a,(hl)
	inc	hl
	ld	h,(hl)
	ld	l,a
	push	hl
	ldhl	sp,#10
	ld	a,(hl)
	inc	hl
	ld	h,(hl)
	ld	l,a
	push	hl
	ldhl	sp,#10
	ld	a,(hl)
	inc	hl
	ld	h,(hl)
	ld	l,a
	push	hl
	call	__mullong_rrx_s
	lda	sp,8(sp)
	push	hl
	ldhl	sp,#6
	ld	(hl),e
	inc	hl
	ld	(hl),d
	pop	de
	inc	hl
	ld	(hl),e
	inc	hl
	ld	(hl),d
	ld	a,#0x08
	push	af
	inc	sp
	ldhl	sp,#7
	ld	a,(hl)
	inc	hl
	ld	h,(hl)
	ld	l,a
	push	hl
	ldhl	sp,#7
	ld	a,(hl)
	inc	hl
	ld	h,(hl)
	ld	l,a
	push	hl
	call	__rrulong_rrx_s
	lda	sp,5(sp)
	push	hl
	ldhl	sp,#6
	ld	(hl),e
	inc	hl
	ld	(hl),d
	pop	de
	inc	hl
	ld	(hl),e
	inc	hl
	ld	(hl),d
	ldhl	sp,#16
	dec	hl
	ld	e,(hl)
	inc	hl
	ld	d,(hl)
	ld	a,e
	ldhl	sp,#4
	add	a,(hl)
	ld	e,a
	ld	a,d
	inc	hl
	adc	a,(hl)
	push	af
	ldhl	sp,#18
	ld	(hl),a
	dec	hl
	ld	(hl),e
	ldhl	sp,#20
	dec	hl
	ld	e,(hl)
	inc	hl
	ld	d,(hl)
	ldhl	sp,#8
	pop	af
	ld	a,e
	adc	a,(hl)
	ld	e,a
	ld	a,d
	inc	hl
	adc	a,(hl)
	ldhl	sp,#18
	ld	(hl),a
	dec	hl
	ld	(hl),e
;../_fsmul.c:264: result += ((fl2.l & (unsigned long) 0xFF) * (fl1.l >> 8)) >> 8;
	ldhl	sp,#19
	ld	c,l
	ld	b,h
	ld	e,c
	ld	d,b
	ld	a,(de)
	ldhl	sp,#4
	ld	(hl),a
	inc	de
	ld	a,(de)
	inc	hl
	ld	(hl),a
	inc	de
	ld	a,(de)
	inc	hl
	ld	(hl),a
	inc	de
	ld	a,(de)
	inc	hl
	ld	(hl),a
	dec	hl
	dec	hl
	ld	(hl),#0x00
	inc	hl
	ld	(hl),#0x00
	inc	hl
	ld	(hl),#0x00
	ldhl	sp,#23
	ld	c,l
	ld	b,h
	ld	e,c
	ld	d,b
	ld	a,(de)
	ldhl	sp,#8
	ld	(hl),a
	inc	de
	ld	a,(de)
	inc	hl
	ld	(hl),a
	inc	de
	ld	a,(de)
	inc	hl
	ld	(hl),a
	inc	de
	ld	a,(de)
	inc	hl
	ld	(hl),a
	ld	a,#0x08
	push	af
	inc	sp
	dec	hl
	ld	a,(hl)
	inc	hl
	ld	h,(hl)
	ld	l,a
	push	hl
	ldhl	sp,#11
	ld	a,(hl)
	inc	hl
	ld	h,(hl)
	ld	l,a
	push	hl
	call	__rrulong_rrx_s
	lda	sp,5(sp)
	push	hl
	ldhl	sp,#10
	ld	(hl),e
	inc	hl
	ld	(hl),d
	pop	de
	inc	hl
	ld	(hl),e
	inc	hl
	ld	(hl),d
	ldhl	sp,#10
	ld	a,(hl)
	inc	hl
	ld	h,(hl)
	ld	l,a
	push	hl
	ldhl	sp,#10
	ld	a,(hl)
	inc	hl
	ld	h,(hl)
	ld	l,a
	push	hl
	ldhl	sp,#10
	ld	a,(hl)
	inc	hl
	ld	h,(hl)
	ld	l,a
	push	hl
	ldhl	sp,#10
	ld	a,(hl)
	inc	hl
	ld	h,(hl)
	ld	l,a
	push	hl
	call	__mullong_rrx_s
	lda	sp,8(sp)
	push	hl
	ldhl	sp,#6
	ld	(hl),e
	inc	hl
	ld	(hl),d
	pop	de
	inc	hl
	ld	(hl),e
	inc	hl
	ld	(hl),d
	ld	a,#0x08
	push	af
	inc	sp
	ldhl	sp,#7
	ld	a,(hl)
	inc	hl
	ld	h,(hl)
	ld	l,a
	push	hl
	ldhl	sp,#7
	ld	a,(hl)
	inc	hl
	ld	h,(hl)
	ld	l,a
	push	hl
	call	__rrulong_rrx_s
	lda	sp,5(sp)
	push	hl
	ldhl	sp,#6
	ld	(hl),e
	inc	hl
	ld	(hl),d
	pop	de
	inc	hl
	ld	(hl),e
	inc	hl
	ld	(hl),d
	ldhl	sp,#16
	dec	hl
	ld	e,(hl)
	inc	hl
	ld	d,(hl)
	ld	a,e
	ldhl	sp,#4
	add	a,(hl)
	ld	e,a
	ld	a,d
	inc	hl
	adc	a,(hl)
	push	af
	ldhl	sp,#18
	ld	(hl),a
	dec	hl
	ld	(hl),e
	ldhl	sp,#20
	dec	hl
	ld	e,(hl)
	inc	hl
	ld	d,(hl)
	ldhl	sp,#8
	pop	af
	ld	a,e
	adc	a,(hl)
	ld	e,a
	ld	a,d
	inc	hl
	adc	a,(hl)
	ldhl	sp,#18
	ld	(hl),a
	dec	hl
	ld	(hl),e
;../_fsmul.c:267: result += 0x40;
	dec	hl
	dec	hl
	ld	e,(hl)
	inc	hl
	ld	d,(hl)
	ld	a,e
	add	a,#0x40
	ld	e,a
	ld	a,d
	adc	a,#0x00
	push	af
	ld	(hl),a
	dec	hl
	ld	(hl),e
	ldhl	sp,#20
	dec	hl
	ld	e,(hl)
	inc	hl
	ld	d,(hl)
	pop	af
	ld	a,e
	adc	a,#0x00
	ld	e,a
	ld	a,d
	adc	a,#0x00
	ld	(hl),a
	dec	hl
	ld	(hl),e
;../_fsmul.c:269: if (result & SIGNBIT)
	inc	hl
	ld	a,(hl)
	and	a,#0x80
	jp	Z,00105$
00125$:
;../_fsmul.c:272: result += 0x40;
	ldhl	sp,#16
	dec	hl
	ld	e,(hl)
	inc	hl
	ld	d,(hl)
	ld	a,e
	add	a,#0x40
	ld	e,a
	ld	a,d
	adc	a,#0x00
	push	af
	ld	(hl),a
	dec	hl
	ld	(hl),e
	ldhl	sp,#20
	dec	hl
	ld	e,(hl)
	inc	hl
	ld	d,(hl)
	pop	af
	ld	a,e
	adc	a,#0x00
	ld	e,a
	ld	a,d
	adc	a,#0x00
	ld	(hl),a
	dec	hl
	ld	(hl),e
;../_fsmul.c:273: result >>= 8;
	ld	a,#0x08
	push	af
	inc	sp
	ld	a,(hl)
	inc	hl
	ld	h,(hl)
	ld	l,a
	push	hl
	ldhl	sp,#18
	ld	a,(hl)
	inc	hl
	ld	h,(hl)
	ld	l,a
	push	hl
	call	__rrulong_rrx_s
	lda	sp,5(sp)
	push	hl
	ldhl	sp,#6
	ld	(hl),e
	inc	hl
	ld	(hl),d
	pop	de
	inc	hl
	ld	(hl),e
	inc	hl
	ld	(hl),d
	ldhl	sp,#4
	ld	d,h
	ld	e,l
	ldhl	sp,#15
	ld	a,(de)
	ld	(hl),a
	inc	hl
	inc	de
	ld	a,(de)
	ld	(hl),a
	inc	hl
	inc	de
	ld	a,(de)
	ld	(hl),a
	inc	hl
	inc	de
	ld	a,(de)
	ld	(hl),a
	jp	00106$
00105$:
;../_fsmul.c:277: result >>= 7;
	ld	a,#0x07
	push	af
	inc	sp
	ldhl	sp,#18
	ld	a,(hl)
	inc	hl
	ld	h,(hl)
	ld	l,a
	push	hl
	ldhl	sp,#18
	ld	a,(hl)
	inc	hl
	ld	h,(hl)
	ld	l,a
	push	hl
	call	__rrulong_rrx_s
	lda	sp,5(sp)
	push	hl
	ldhl	sp,#6
	ld	(hl),e
	inc	hl
	ld	(hl),d
	pop	de
	inc	hl
	ld	(hl),e
	inc	hl
	ld	(hl),d
	ldhl	sp,#4
	ld	d,h
	ld	e,l
	ldhl	sp,#15
	ld	a,(de)
	ld	(hl),a
	inc	hl
	inc	de
	ld	a,(de)
	ld	(hl),a
	inc	hl
	inc	de
	ld	a,(de)
	ld	(hl),a
	inc	hl
	inc	de
	ld	a,(de)
	ld	(hl),a
;../_fsmul.c:278: exp--;
	ldhl	sp,#14
	dec	hl
	ld	e,(hl)
	inc	hl
	ld	d,(hl)
	dec	de
	dec	hl
	ld	(hl),e
	inc	hl
	ld	(hl),d
00106$:
;../_fsmul.c:281: result &= ~HIDDEN;
	ldhl	sp,#17
	ld	a,(hl)
	and	a,#0x7F
	ld	(hl),a
;../_fsmul.c:284: if (exp >= 0x100)
	ldhl	sp,#13
	ld	a, (hl)
	sub	a, #0x00
	inc	hl
	ld	a, (hl)
	sbc	a, #0x01
	ld	d, (hl)
	ld	a, #0x00
	ld	e, a
	bit	7, e
	jp	Z, 00126$
	bit	7, d
	jp	NZ, 00127$
	cp	a, a
	jr	00127$
00126$:
	bit	7, d
	jp	Z, 00127$
	scf
00127$:
	jp	C,00111$
;../_fsmul.c:285: fl1.l = (sign ? SIGNBIT : 0) | __INFINITY;
	ldhl	sp,#23
	ld	c,l
	ld	b,h
	xor	a,a
	ldhl	sp,#12
	or	a,(hl)
	jp	Z,00115$
	ldhl	sp,#4
	ld	(hl),#0x00
	inc	hl
	ld	(hl),#0x00
	inc	hl
	ld	(hl),#0x00
	inc	hl
	ld	(hl),#0x80
	jr	00116$
00115$:
	xor	a,a
	ldhl	sp,#4
	ld	(hl),a
	inc	hl
	ld	(hl),a
	inc	hl
	ld	(hl),a
	inc	hl
	ld	(hl),a
00116$:
	ldhl	sp,#6
	ld	a,(hl)
	set	7, a
	ld	(hl),a
	inc	hl
	ld	a,(hl)
	or	a, #0x7F
	ld	(hl),a
	ld	e,c
	ld	d,b
	ldhl	sp,#4
	ld	a,(hl)
	ld	(de),a
	inc	de
	inc	hl
	ld	a,(hl)
	ld	(de),a
	inc	de
	inc	hl
	ld	a,(hl)
	ld	(de),a
	inc	de
	inc	hl
	ld	a,(hl)
	ld	(de),a
	jp	00112$
00111$:
;../_fsmul.c:286: else if (exp < 0)
	ldhl	sp,#13
	ld	a, (hl)
	sub	a, #0x00
	inc	hl
	ld	a, (hl)
	sbc	a, #0x00
	ld	d, (hl)
	ld	a, #0x00
	ld	e, a
	bit	7, e
	jp	Z, 00128$
	bit	7, d
	jp	NZ, 00129$
	cp	a, a
	jr	00129$
00128$:
	bit	7, d
	jp	Z, 00129$
	scf
00129$:
	jp	NC,00108$
;../_fsmul.c:287: fl1.l = 0;
	ldhl	sp,#23
	ld	c,l
	ld	b,h
	ld	e,c
	ld	d,b
	ld	a,#0x00
	ld	(de),a
	inc	de
	ld	a,#0x00
	ld	(de),a
	inc	de
	ld	a,#0x00
	ld	(de),a
	inc	de
	ld	a,#0x00
	ld	(de),a
	jp	00112$
00108$:
;../_fsmul.c:289: fl1.l = PACK (sign ? SIGNBIT : 0 , exp, result);
	ldhl	sp,#23
	ld	c,l
	ld	b,h
	xor	a,a
	ldhl	sp,#12
	or	a,(hl)
	jp	Z,00117$
	ldhl	sp,#4
	ld	(hl),#0x00
	inc	hl
	ld	(hl),#0x00
	inc	hl
	ld	(hl),#0x00
	inc	hl
	ld	(hl),#0x80
	jr	00118$
00117$:
	xor	a,a
	ldhl	sp,#4
	ld	(hl),a
	inc	hl
	ld	(hl),a
	inc	hl
	ld	(hl),a
	inc	hl
	ld	(hl),a
00118$:
	ldhl	sp,#13
	ld	a,(hl)
	ldhl	sp,#0
	ld	(hl),a
	ldhl	sp,#14
	ld	a,(hl)
	ldhl	sp,#1
	ld	(hl),a
	ldhl	sp,#14
	ld	a,(hl)
	rla	
	sbc	a,a
	ldhl	sp,#2
	ld	(hl),a
	inc	hl
	ld	(hl),a
	push	bc
	ld	a,#0x17
	push	af
	inc	sp
	dec	hl
	ld	a,(hl)
	inc	hl
	ld	h,(hl)
	ld	l,a
	push	hl
	ldhl	sp,#5
	ld	a,(hl)
	inc	hl
	ld	h,(hl)
	ld	l,a
	push	hl
	call	__rlulong_rrx_s
	lda	sp,5(sp)
	push	hl
	ldhl	sp,#4
	ld	(hl),e
	inc	hl
	ld	(hl),d
	pop	de
	inc	hl
	ld	(hl),e
	inc	hl
	ld	(hl),d
	pop	bc
	ldhl	sp,#0
	ld	a,(hl)
	ldhl	sp,#4
	or	a, (hl)
	ldhl	sp,#0
	ld	(hl),a
	inc	hl
	ld	a,(hl)
	ldhl	sp,#5
	or	a, (hl)
	ldhl	sp,#1
	ld	(hl),a
	inc	hl
	ld	a,(hl)
	ldhl	sp,#6
	or	a, (hl)
	ldhl	sp,#2
	ld	(hl),a
	inc	hl
	ld	a,(hl)
	ldhl	sp,#7
	or	a, (hl)
	ldhl	sp,#3
	ld	(hl),a
	ldhl	sp,#0
	ld	a,(hl)
	ldhl	sp,#15
	or	a, (hl)
	ldhl	sp,#0
	ld	(hl),a
	inc	hl
	ld	a,(hl)
	ldhl	sp,#16
	or	a, (hl)
	ldhl	sp,#1
	ld	(hl),a
	inc	hl
	ld	a,(hl)
	ldhl	sp,#17
	or	a, (hl)
	ldhl	sp,#2
	ld	(hl),a
	inc	hl
	ld	a,(hl)
	ldhl	sp,#18
	or	a, (hl)
	ldhl	sp,#3
	ld	(hl),a
	ld	e,c
	ld	d,b
	ldhl	sp,#0
	ld	a,(hl)
	ld	(de),a
	inc	de
	inc	hl
	ld	a,(hl)
	ld	(de),a
	inc	de
	inc	hl
	ld	a,(hl)
	ld	(de),a
	inc	de
	inc	hl
	ld	a,(hl)
	ld	(de),a
00112$:
;../_fsmul.c:290: return (fl1.f);
	ldhl	sp,#23
	ld	c,l
	ld	b,h
	ld	e,c
	ld	d,b
	ld	a,(de)
	ldhl	sp,#0
	ld	(hl),a
	inc	de
	ld	a,(de)
	inc	hl
	ld	(hl),a
	inc	de
	ld	a,(de)
	inc	hl
	ld	(hl),a
	inc	de
	ld	a,(de)
	inc	hl
	ld	(hl),a
	dec	hl
	dec	hl
	dec	hl
	ld	e,(hl)
	inc	hl
	ld	d,(hl)
	inc	hl
	ld	a,(hl)
	inc	hl
	ld	h,(hl)
	ld	l,a
00113$:
	lda	sp,27(sp)
	ret
___fsmul_end::
	.area _HOME
;--------------------------------------------------------
; code
;--------------------------------------------------------
	.area _CODE
	.area _CODE
	.area _CABS
