                              1 ;--------------------------------------------------------
                              2 ; File Created by SDCC : free open source ANSI-C Compiler
                              3 ; Version 3.0.1 #6227 (Oct  2 2015) (Linux)
                              4 ; This file was generated Fri Oct  2 17:18:19 2015
                              5 ;--------------------------------------------------------
                              6 	.module _mullong
                              7 	.optsdcc -mgbz80
                              8 	
                              9 ;--------------------------------------------------------
                             10 ; Public variables in this module
                             11 ;--------------------------------------------------------
                             12 	.globl __mullong
                             13 ;--------------------------------------------------------
                             14 ;  ram data
                             15 ;--------------------------------------------------------
                             16 	.area _DATA
                             17 ;--------------------------------------------------------
                             18 ; overlayable items in  ram 
                             19 ;--------------------------------------------------------
                             20 	.area _OVERLAY
                             21 ;--------------------------------------------------------
                             22 ; external initialized ram data
                             23 ;--------------------------------------------------------
                             24 ;--------------------------------------------------------
                             25 ; global & static initialisations
                             26 ;--------------------------------------------------------
                             27 	.area _HOME
                             28 	.area _GSINIT
                             29 	.area _GSFINAL
                             30 	.area _GSINIT
                             31 ;--------------------------------------------------------
                             32 ; Home
                             33 ;--------------------------------------------------------
                             34 	.area _HOME
                             35 	.area _HOME
                             36 ;--------------------------------------------------------
                             37 ; code
                             38 ;--------------------------------------------------------
                             39 	.area _CODE
                             40 ;../_mullong.c:703: _mullong (long a, long b)
                             41 ;	---------------------------------
                             42 ; Function _mullong
                             43 ; ---------------------------------
   0000                      44 __mullong_start::
   0000                      45 __mullong:
   0000 E8 E7                46 	lda	sp,-25(sp)
                             47 ;../_mullong.c:707: t.i.hi = bcast(a)->b.b0 * bcast(b)->b.b2;           // A
   0002 F8 15                48 	ldhl	sp,#21
   0004 7D                   49 	ld	a,l
   0005 54                   50 	ld	d,h
   0006 F8 13                51 	ldhl	sp,#19
   0008 77                   52 	ld	(hl),a
   0009 23                   53 	inc	hl
   000A 72                   54 	ld	(hl),d
   000B 2B                   55 	dec	hl
   000C 5E                   56 	ld	e,(hl)
   000D 23                   57 	inc	hl
   000E 56                   58 	ld	d,(hl)
   000F 21 02 00             59 	ld	hl,#0x0002
   0012 19                   60 	add	hl,de
   0013 7D                   61 	ld	a,l
   0014 54                   62 	ld	d,h
   0015 F8 11                63 	ldhl	sp,#17
   0017 77                   64 	ld	(hl),a
   0018 23                   65 	inc	hl
   0019 72                   66 	ld	(hl),d
   001A F8 1B                67 	ldhl	sp,#27
   001C 7D                   68 	ld	a,l
   001D 54                   69 	ld	d,h
   001E F8 0F                70 	ldhl	sp,#15
   0020 77                   71 	ld	(hl),a
   0021 23                   72 	inc	hl
   0022 72                   73 	ld	(hl),d
   0023 2B                   74 	dec	hl
   0024 5E                   75 	ld	e,(hl)
   0025 23                   76 	inc	hl
   0026 56                   77 	ld	d,(hl)
   0027 1A                   78 	ld	a,(de)
   0028 2B                   79 	dec	hl
   0029 2B                   80 	dec	hl
   002A 77                   81 	ld	(hl),a
   002B F8 1F                82 	ldhl	sp,#31
   002D 7D                   83 	ld	a,l
   002E 54                   84 	ld	d,h
   002F F8 0C                85 	ldhl	sp,#12
   0031 77                   86 	ld	(hl),a
   0032 23                   87 	inc	hl
   0033 72                   88 	ld	(hl),d
   0034 2B                   89 	dec	hl
   0035 4E                   90 	ld	c,(hl)
   0036 23                   91 	inc	hl
   0037 46                   92 	ld	b,(hl)
   0038 03                   93 	inc	bc
   0039 03                   94 	inc	bc
   003A 0A                   95 	ld	a,(bc)
   003B 2B                   96 	dec	hl
   003C 2B                   97 	dec	hl
   003D 77                   98 	ld	(hl),a
   003E 7E                   99 	ld	a,(hl)
   003F F5                  100 	push	af
   0040 33                  101 	inc	sp
   0041 F8 0F               102 	ldhl	sp,#15
   0043 7E                  103 	ld	a,(hl)
   0044 F5                  104 	push	af
   0045 33                  105 	inc	sp
   0046 CDr00s00            106 	call	__muluchar_rrx_s
   0049 E8 02               107 	lda	sp,2(sp)
   004B 42                  108 	ld	b,d
   004C 4B                  109 	ld	c,e
   004D F8 12               110 	ldhl	sp,#18
   004F 2B                  111 	dec	hl
   0050 5E                  112 	ld	e,(hl)
   0051 23                  113 	inc	hl
   0052 56                  114 	ld	d,(hl)
   0053 79                  115 	ld	a,c
   0054 12                  116 	ld	(de),a
   0055 13                  117 	inc	de
   0056 78                  118 	ld	a,b
   0057 12                  119 	ld	(de),a
                            120 ;../_mullong.c:708: t.i.lo = bcast(a)->b.b0 * bcast(b)->b.b0;           // A
   0058 F8 0D               121 	ldhl	sp,#13
   005A 2B                  122 	dec	hl
   005B 5E                  123 	ld	e,(hl)
   005C 23                  124 	inc	hl
   005D 56                  125 	ld	d,(hl)
   005E 1A                  126 	ld	a,(de)
   005F F8 11               127 	ldhl	sp,#17
   0061 77                  128 	ld	(hl),a
   0062 7E                  129 	ld	a,(hl)
   0063 F5                  130 	push	af
   0064 33                  131 	inc	sp
   0065 F8 0F               132 	ldhl	sp,#15
   0067 7E                  133 	ld	a,(hl)
   0068 F5                  134 	push	af
   0069 33                  135 	inc	sp
   006A CDr00s00            136 	call	__muluchar_rrx_s
   006D E8 02               137 	lda	sp,2(sp)
   006F 42                  138 	ld	b,d
   0070 4B                  139 	ld	c,e
   0071 F8 14               140 	ldhl	sp,#20
   0073 2B                  141 	dec	hl
   0074 5E                  142 	ld	e,(hl)
   0075 23                  143 	inc	hl
   0076 56                  144 	ld	d,(hl)
   0077 79                  145 	ld	a,c
   0078 12                  146 	ld	(de),a
   0079 13                  147 	inc	de
   007A 78                  148 	ld	a,b
   007B 12                  149 	ld	(de),a
                            150 ;../_mullong.c:709: t.b.b3 += bcast(a)->b.b3 * bcast(b)->b.b0;          // G
   007C F8 15               151 	ldhl	sp,#21
   007E 4D                  152 	ld	c,l
   007F 44                  153 	ld	b,h
   0080 21 03 00            154 	ld	hl,#0x0003
   0083 09                  155 	add	hl,bc
   0084 7D                  156 	ld	a,l
   0085 54                  157 	ld	d,h
   0086 F8 13               158 	ldhl	sp,#19
   0088 77                  159 	ld	(hl),a
   0089 23                  160 	inc	hl
   008A 72                  161 	ld	(hl),d
   008B 2B                  162 	dec	hl
   008C 5E                  163 	ld	e,(hl)
   008D 23                  164 	inc	hl
   008E 56                  165 	ld	d,(hl)
   008F 1A                  166 	ld	a,(de)
   0090 47                  167 	ld	b,a
   0091 F8 10               168 	ldhl	sp,#16
   0093 2B                  169 	dec	hl
   0094 5E                  170 	ld	e,(hl)
   0095 23                  171 	inc	hl
   0096 56                  172 	ld	d,(hl)
   0097 21 03 00            173 	ld	hl,#0x0003
   009A 19                  174 	add	hl,de
   009B 7D                  175 	ld	a,l
   009C 54                  176 	ld	d,h
   009D F8 08               177 	ldhl	sp,#8
   009F 77                  178 	ld	(hl),a
   00A0 23                  179 	inc	hl
   00A1 72                  180 	ld	(hl),d
   00A2 2B                  181 	dec	hl
   00A3 5E                  182 	ld	e,(hl)
   00A4 23                  183 	inc	hl
   00A5 56                  184 	ld	d,(hl)
   00A6 1A                  185 	ld	a,(de)
   00A7 4F                  186 	ld	c,a
   00A8 C5                  187 	push	bc
   00A9 F8 13               188 	ldhl	sp,#19
   00AB 7E                  189 	ld	a,(hl)
   00AC F5                  190 	push	af
   00AD 33                  191 	inc	sp
   00AE 79                  192 	ld	a,c
   00AF F5                  193 	push	af
   00B0 33                  194 	inc	sp
   00B1 CDr00s00            195 	call	__muluchar_rrx_s
   00B4 E8 02               196 	lda	sp,2(sp)
   00B6 4B                  197 	ld	c,e
   00B7 F1                  198 	pop	af
   00B8 47                  199 	ld	b,a
   00B9 81                  200 	add	a,c
   00BA F8 14               201 	ldhl	sp,#20
   00BC 2B                  202 	dec	hl
   00BD 5E                  203 	ld	e,(hl)
   00BE 23                  204 	inc	hl
   00BF 56                  205 	ld	d,(hl)
   00C0 12                  206 	ld	(de),a
                            207 ;../_mullong.c:710: t.b.b3 += bcast(a)->b.b2 * bcast(b)->b.b1;          // F
   00C1 2B                  208 	dec	hl
   00C2 5E                  209 	ld	e,(hl)
   00C3 23                  210 	inc	hl
   00C4 56                  211 	ld	d,(hl)
   00C5 1A                  212 	ld	a,(de)
   00C6 F8 0A               213 	ldhl	sp,#10
   00C8 77                  214 	ld	(hl),a
   00C9 F8 0F               215 	ldhl	sp,#15
   00CB 4E                  216 	ld	c,(hl)
   00CC 23                  217 	inc	hl
   00CD 46                  218 	ld	b,(hl)
   00CE 03                  219 	inc	bc
   00CF 03                  220 	inc	bc
   00D0 0A                  221 	ld	a,(bc)
   00D1 F8 07               222 	ldhl	sp,#7
   00D3 77                  223 	ld	(hl),a
   00D4 F8 0C               224 	ldhl	sp,#12
   00D6 4E                  225 	ld	c,(hl)
   00D7 23                  226 	inc	hl
   00D8 46                  227 	ld	b,(hl)
   00D9 03                  228 	inc	bc
   00DA 0A                  229 	ld	a,(bc)
   00DB F8 06               230 	ldhl	sp,#6
   00DD 77                  231 	ld	(hl),a
   00DE 7E                  232 	ld	a,(hl)
   00DF F5                  233 	push	af
   00E0 33                  234 	inc	sp
   00E1 23                  235 	inc	hl
   00E2 7E                  236 	ld	a,(hl)
   00E3 F5                  237 	push	af
   00E4 33                  238 	inc	sp
   00E5 CDr00s00            239 	call	__muluchar_rrx_s
   00E8 E8 02               240 	lda	sp,2(sp)
   00EA 43                  241 	ld	b,e
   00EB F8 0A               242 	ldhl	sp,#10
   00ED 7E                  243 	ld	a,(hl)
   00EE 80                  244 	add	a,b
   00EF F8 14               245 	ldhl	sp,#20
   00F1 2B                  246 	dec	hl
   00F2 5E                  247 	ld	e,(hl)
   00F3 23                  248 	inc	hl
   00F4 56                  249 	ld	d,(hl)
   00F5 12                  250 	ld	(de),a
                            251 ;../_mullong.c:711: t.i.hi += bcast(a)->b.b2 * bcast(b)->b.b0;          // E <- b lost in .lst
   00F6 F8 15               252 	ldhl	sp,#21
   00F8 4D                  253 	ld	c,l
   00F9 44                  254 	ld	b,h
   00FA 21 02 00            255 	ld	hl,#0x0002
   00FD 09                  256 	add	hl,bc
   00FE 7D                  257 	ld	a,l
   00FF 54                  258 	ld	d,h
   0100 F8 13               259 	ldhl	sp,#19
   0102 77                  260 	ld	(hl),a
   0103 23                  261 	inc	hl
   0104 72                  262 	ld	(hl),d
   0105 2B                  263 	dec	hl
   0106 5E                  264 	ld	e,(hl)
   0107 23                  265 	inc	hl
   0108 56                  266 	ld	d,(hl)
   0109 1A                  267 	ld	a,(de)
   010A F8 04               268 	ldhl	sp,#4
   010C 77                  269 	ld	(hl),a
   010D 13                  270 	inc	de
   010E 1A                  271 	ld	a,(de)
   010F 23                  272 	inc	hl
   0110 77                  273 	ld	(hl),a
   0111 F8 11               274 	ldhl	sp,#17
   0113 7E                  275 	ld	a,(hl)
   0114 F5                  276 	push	af
   0115 33                  277 	inc	sp
   0116 F8 08               278 	ldhl	sp,#8
   0118 7E                  279 	ld	a,(hl)
   0119 F5                  280 	push	af
   011A 33                  281 	inc	sp
   011B CDr00s00            282 	call	__muluchar_rrx_s
   011E E8 02               283 	lda	sp,2(sp)
   0120 42                  284 	ld	b,d
   0121 4B                  285 	ld	c,e
   0122 F8 04               286 	ldhl	sp,#4
   0124 7E                  287 	ld	a,(hl)
   0125 23                  288 	inc	hl
   0126 66                  289 	ld	h,(hl)
   0127 6F                  290 	ld	l,a
   0128 09                  291 	add	hl,bc
   0129 4D                  292 	ld	c,l
   012A 44                  293 	ld	b,h
   012B F8 14               294 	ldhl	sp,#20
   012D 2B                  295 	dec	hl
   012E 5E                  296 	ld	e,(hl)
   012F 23                  297 	inc	hl
   0130 56                  298 	ld	d,(hl)
   0131 79                  299 	ld	a,c
   0132 12                  300 	ld	(de),a
   0133 13                  301 	inc	de
   0134 78                  302 	ld	a,b
   0135 12                  303 	ld	(de),a
                            304 ;../_mullong.c:713: t.i.hi += bcast(a)->b.b1 * bcast(b)->b.b1;          // D <- b lost in .lst
   0136 2B                  305 	dec	hl
   0137 5E                  306 	ld	e,(hl)
   0138 23                  307 	inc	hl
   0139 56                  308 	ld	d,(hl)
   013A 1A                  309 	ld	a,(de)
   013B F8 04               310 	ldhl	sp,#4
   013D 77                  311 	ld	(hl),a
   013E 13                  312 	inc	de
   013F 1A                  313 	ld	a,(de)
   0140 23                  314 	inc	hl
   0141 77                  315 	ld	(hl),a
   0142 F8 0F               316 	ldhl	sp,#15
   0144 4E                  317 	ld	c,(hl)
   0145 23                  318 	inc	hl
   0146 46                  319 	ld	b,(hl)
   0147 03                  320 	inc	bc
   0148 0A                  321 	ld	a,(bc)
   0149 F8 07               322 	ldhl	sp,#7
   014B 77                  323 	ld	(hl),a
   014C 2B                  324 	dec	hl
   014D 7E                  325 	ld	a,(hl)
   014E F5                  326 	push	af
   014F 33                  327 	inc	sp
   0150 23                  328 	inc	hl
   0151 7E                  329 	ld	a,(hl)
   0152 F5                  330 	push	af
   0153 33                  331 	inc	sp
   0154 CDr00s00            332 	call	__muluchar_rrx_s
   0157 E8 02               333 	lda	sp,2(sp)
   0159 42                  334 	ld	b,d
   015A 4B                  335 	ld	c,e
   015B F8 04               336 	ldhl	sp,#4
   015D 7E                  337 	ld	a,(hl)
   015E 23                  338 	inc	hl
   015F 66                  339 	ld	h,(hl)
   0160 6F                  340 	ld	l,a
   0161 09                  341 	add	hl,bc
   0162 4D                  342 	ld	c,l
   0163 44                  343 	ld	b,h
   0164 F8 14               344 	ldhl	sp,#20
   0166 2B                  345 	dec	hl
   0167 5E                  346 	ld	e,(hl)
   0168 23                  347 	inc	hl
   0169 56                  348 	ld	d,(hl)
   016A 79                  349 	ld	a,c
   016B 12                  350 	ld	(de),a
   016C 13                  351 	inc	de
   016D 78                  352 	ld	a,b
   016E 12                  353 	ld	(de),a
                            354 ;../_mullong.c:715: bcast(a)->bi.b3 = bcast(a)->b.b1 * bcast(b)->b.b2;  // C
   016F F8 0B               355 	ldhl	sp,#11
   0171 7E                  356 	ld	a,(hl)
   0172 F5                  357 	push	af
   0173 33                  358 	inc	sp
   0174 F8 08               359 	ldhl	sp,#8
   0176 7E                  360 	ld	a,(hl)
   0177 F5                  361 	push	af
   0178 33                  362 	inc	sp
   0179 CDr00s00            363 	call	__muluchar_rrx_s
   017C E8 02               364 	lda	sp,2(sp)
   017E 4B                  365 	ld	c,e
   017F F8 09               366 	ldhl	sp,#9
   0181 2B                  367 	dec	hl
   0182 5E                  368 	ld	e,(hl)
   0183 23                  369 	inc	hl
   0184 56                  370 	ld	d,(hl)
   0185 79                  371 	ld	a,c
   0186 12                  372 	ld	(de),a
                            373 ;../_mullong.c:716: bcast(a)->bi.i12 = bcast(a)->b.b1 * bcast(b)->b.b0; // C
   0187 F8 10               374 	ldhl	sp,#16
   0189 2B                  375 	dec	hl
   018A 5E                  376 	ld	e,(hl)
   018B 23                  377 	inc	hl
   018C 56                  378 	ld	d,(hl)
   018D 21 01 00            379 	ld	hl,#0x0001
   0190 19                  380 	add	hl,de
   0191 7D                  381 	ld	a,l
   0192 54                  382 	ld	d,h
   0193 F8 04               383 	ldhl	sp,#4
   0195 77                  384 	ld	(hl),a
   0196 23                  385 	inc	hl
   0197 72                  386 	ld	(hl),d
   0198 F8 0F               387 	ldhl	sp,#15
   019A 4E                  388 	ld	c,(hl)
   019B 23                  389 	inc	hl
   019C 46                  390 	ld	b,(hl)
   019D 03                  391 	inc	bc
   019E 0A                  392 	ld	a,(bc)
   019F 4F                  393 	ld	c,a
   01A0 23                  394 	inc	hl
   01A1 7E                  395 	ld	a,(hl)
   01A2 F5                  396 	push	af
   01A3 33                  397 	inc	sp
   01A4 79                  398 	ld	a,c
   01A5 F5                  399 	push	af
   01A6 33                  400 	inc	sp
   01A7 CDr00s00            401 	call	__muluchar_rrx_s
   01AA E8 02               402 	lda	sp,2(sp)
   01AC 42                  403 	ld	b,d
   01AD 4B                  404 	ld	c,e
   01AE F8 05               405 	ldhl	sp,#5
   01B0 2B                  406 	dec	hl
   01B1 5E                  407 	ld	e,(hl)
   01B2 23                  408 	inc	hl
   01B3 56                  409 	ld	d,(hl)
   01B4 79                  410 	ld	a,c
   01B5 12                  411 	ld	(de),a
   01B6 13                  412 	inc	de
   01B7 78                  413 	ld	a,b
   01B8 12                  414 	ld	(de),a
                            415 ;../_mullong.c:718: bcast(b)->bi.b3 = bcast(a)->b.b0 * bcast(b)->b.b3;  // B
   01B9 F8 0D               416 	ldhl	sp,#13
   01BB 2B                  417 	dec	hl
   01BC 5E                  418 	ld	e,(hl)
   01BD 23                  419 	inc	hl
   01BE 56                  420 	ld	d,(hl)
   01BF 21 03 00            421 	ld	hl,#0x0003
   01C2 19                  422 	add	hl,de
   01C3 7D                  423 	ld	a,l
   01C4 54                  424 	ld	d,h
   01C5 F8 04               425 	ldhl	sp,#4
   01C7 77                  426 	ld	(hl),a
   01C8 23                  427 	inc	hl
   01C9 72                  428 	ld	(hl),d
   01CA 2B                  429 	dec	hl
   01CB 5E                  430 	ld	e,(hl)
   01CC 23                  431 	inc	hl
   01CD 56                  432 	ld	d,(hl)
   01CE 1A                  433 	ld	a,(de)
   01CF 4F                  434 	ld	c,a
   01D0 F5                  435 	push	af
   01D1 33                  436 	inc	sp
   01D2 F8 0F               437 	ldhl	sp,#15
   01D4 7E                  438 	ld	a,(hl)
   01D5 F5                  439 	push	af
   01D6 33                  440 	inc	sp
   01D7 CDr00s00            441 	call	__muluchar_rrx_s
   01DA E8 02               442 	lda	sp,2(sp)
   01DC 4B                  443 	ld	c,e
   01DD F8 05               444 	ldhl	sp,#5
   01DF 2B                  445 	dec	hl
   01E0 5E                  446 	ld	e,(hl)
   01E1 23                  447 	inc	hl
   01E2 56                  448 	ld	d,(hl)
   01E3 79                  449 	ld	a,c
   01E4 12                  450 	ld	(de),a
                            451 ;../_mullong.c:719: bcast(b)->bi.i12 = bcast(a)->b.b0 * bcast(b)->b.b1; // B
   01E5 F8 0D               452 	ldhl	sp,#13
   01E7 2B                  453 	dec	hl
   01E8 5E                  454 	ld	e,(hl)
   01E9 23                  455 	inc	hl
   01EA 56                  456 	ld	d,(hl)
   01EB 21 01 00            457 	ld	hl,#0x0001
   01EE 19                  458 	add	hl,de
   01EF 7D                  459 	ld	a,l
   01F0 54                  460 	ld	d,h
   01F1 F8 04               461 	ldhl	sp,#4
   01F3 77                  462 	ld	(hl),a
   01F4 23                  463 	inc	hl
   01F5 72                  464 	ld	(hl),d
   01F6 F8 0C               465 	ldhl	sp,#12
   01F8 4E                  466 	ld	c,(hl)
   01F9 23                  467 	inc	hl
   01FA 46                  468 	ld	b,(hl)
   01FB 03                  469 	inc	bc
   01FC 0A                  470 	ld	a,(bc)
   01FD 4F                  471 	ld	c,a
   01FE F5                  472 	push	af
   01FF 33                  473 	inc	sp
   0200 23                  474 	inc	hl
   0201 7E                  475 	ld	a,(hl)
   0202 F5                  476 	push	af
   0203 33                  477 	inc	sp
   0204 CDr00s00            478 	call	__muluchar_rrx_s
   0207 E8 02               479 	lda	sp,2(sp)
   0209 42                  480 	ld	b,d
   020A 4B                  481 	ld	c,e
   020B F8 05               482 	ldhl	sp,#5
   020D 2B                  483 	dec	hl
   020E 5E                  484 	ld	e,(hl)
   020F 23                  485 	inc	hl
   0210 56                  486 	ld	d,(hl)
   0211 79                  487 	ld	a,c
   0212 12                  488 	ld	(de),a
   0213 13                  489 	inc	de
   0214 78                  490 	ld	a,b
   0215 12                  491 	ld	(de),a
                            492 ;../_mullong.c:721: bcast(b)->bi.b0 = 0;                                // B
   0216 F8 0D               493 	ldhl	sp,#13
   0218 2B                  494 	dec	hl
   0219 5E                  495 	ld	e,(hl)
   021A 23                  496 	inc	hl
   021B 56                  497 	ld	d,(hl)
   021C 3E 00               498 	ld	a,#0x00
   021E 12                  499 	ld	(de),a
                            500 ;../_mullong.c:722: bcast(a)->bi.b0 = 0;                                // C
   021F F8 10               501 	ldhl	sp,#16
   0221 2B                  502 	dec	hl
   0222 5E                  503 	ld	e,(hl)
   0223 23                  504 	inc	hl
   0224 56                  505 	ld	d,(hl)
   0225 3E 00               506 	ld	a,#0x00
   0227 12                  507 	ld	(de),a
                            508 ;../_mullong.c:723: t.l += a;
   0228 F8 15               509 	ldhl	sp,#21
   022A 4D                  510 	ld	c,l
   022B 44                  511 	ld	b,h
   022C 59                  512 	ld	e,c
   022D 50                  513 	ld	d,b
   022E 1A                  514 	ld	a,(de)
   022F F8 00               515 	ldhl	sp,#0
   0231 77                  516 	ld	(hl),a
   0232 13                  517 	inc	de
   0233 1A                  518 	ld	a,(de)
   0234 23                  519 	inc	hl
   0235 77                  520 	ld	(hl),a
   0236 13                  521 	inc	de
   0237 1A                  522 	ld	a,(de)
   0238 23                  523 	inc	hl
   0239 77                  524 	ld	(hl),a
   023A 13                  525 	inc	de
   023B 1A                  526 	ld	a,(de)
   023C 23                  527 	inc	hl
   023D 77                  528 	ld	(hl),a
   023E 2B                  529 	dec	hl
   023F 2B                  530 	dec	hl
   0240 2B                  531 	dec	hl
   0241 5E                  532 	ld	e,(hl)
   0242 23                  533 	inc	hl
   0243 56                  534 	ld	d,(hl)
   0244 7B                  535 	ld	a,e
   0245 F8 1B               536 	ldhl	sp,#27
   0247 86                  537 	add	a,(hl)
   0248 5F                  538 	ld	e,a
   0249 7A                  539 	ld	a,d
   024A 23                  540 	inc	hl
   024B 8E                  541 	adc	a,(hl)
   024C F5                  542 	push	af
   024D F8 03               543 	ldhl	sp,#3
   024F 77                  544 	ld	(hl),a
   0250 2B                  545 	dec	hl
   0251 73                  546 	ld	(hl),e
   0252 F8 05               547 	ldhl	sp,#5
   0254 2B                  548 	dec	hl
   0255 5E                  549 	ld	e,(hl)
   0256 23                  550 	inc	hl
   0257 56                  551 	ld	d,(hl)
   0258 F8 1F               552 	ldhl	sp,#31
   025A F1                  553 	pop	af
   025B 7B                  554 	ld	a,e
   025C 8E                  555 	adc	a,(hl)
   025D 5F                  556 	ld	e,a
   025E 7A                  557 	ld	a,d
   025F 23                  558 	inc	hl
   0260 8E                  559 	adc	a,(hl)
   0261 F8 03               560 	ldhl	sp,#3
   0263 77                  561 	ld	(hl),a
   0264 2B                  562 	dec	hl
   0265 73                  563 	ld	(hl),e
   0266 59                  564 	ld	e,c
   0267 50                  565 	ld	d,b
   0268 2B                  566 	dec	hl
   0269 2B                  567 	dec	hl
   026A 7E                  568 	ld	a,(hl)
   026B 12                  569 	ld	(de),a
   026C 13                  570 	inc	de
   026D 23                  571 	inc	hl
   026E 7E                  572 	ld	a,(hl)
   026F 12                  573 	ld	(de),a
   0270 13                  574 	inc	de
   0271 23                  575 	inc	hl
   0272 7E                  576 	ld	a,(hl)
   0273 12                  577 	ld	(de),a
   0274 13                  578 	inc	de
   0275 23                  579 	inc	hl
   0276 7E                  580 	ld	a,(hl)
   0277 12                  581 	ld	(de),a
                            582 ;../_mullong.c:725: return t.l + b;
   0278 59                  583 	ld	e,c
   0279 50                  584 	ld	d,b
   027A 1A                  585 	ld	a,(de)
   027B 13                  586 	inc	de
   027C 1A                  587 	ld	a,(de)
   027D 13                  588 	inc	de
   027E 1A                  589 	ld	a,(de)
   027F 13                  590 	inc	de
   0280 1A                  591 	ld	a,(de)
   0281 2B                  592 	dec	hl
   0282 2B                  593 	dec	hl
   0283 2B                  594 	dec	hl
   0284 5E                  595 	ld	e,(hl)
   0285 23                  596 	inc	hl
   0286 56                  597 	ld	d,(hl)
   0287 7B                  598 	ld	a,e
   0288 F8 1F               599 	ldhl	sp,#31
   028A 86                  600 	add	a,(hl)
   028B 5F                  601 	ld	e,a
   028C 7A                  602 	ld	a,d
   028D 23                  603 	inc	hl
   028E 8E                  604 	adc	a,(hl)
   028F F5                  605 	push	af
   0290 F8 03               606 	ldhl	sp,#3
   0292 77                  607 	ld	(hl),a
   0293 2B                  608 	dec	hl
   0294 73                  609 	ld	(hl),e
   0295 F8 05               610 	ldhl	sp,#5
   0297 2B                  611 	dec	hl
   0298 5E                  612 	ld	e,(hl)
   0299 23                  613 	inc	hl
   029A 56                  614 	ld	d,(hl)
   029B F8 23               615 	ldhl	sp,#35
   029D F1                  616 	pop	af
   029E 7B                  617 	ld	a,e
   029F 8E                  618 	adc	a,(hl)
   02A0 5F                  619 	ld	e,a
   02A1 7A                  620 	ld	a,d
   02A2 23                  621 	inc	hl
   02A3 8E                  622 	adc	a,(hl)
   02A4 F8 03               623 	ldhl	sp,#3
   02A6 77                  624 	ld	(hl),a
   02A7 2B                  625 	dec	hl
   02A8 73                  626 	ld	(hl),e
   02A9 2B                  627 	dec	hl
   02AA 2B                  628 	dec	hl
   02AB 5E                  629 	ld	e,(hl)
   02AC 23                  630 	inc	hl
   02AD 56                  631 	ld	d,(hl)
   02AE 23                  632 	inc	hl
   02AF 7E                  633 	ld	a,(hl)
   02B0 23                  634 	inc	hl
   02B1 66                  635 	ld	h,(hl)
   02B2 6F                  636 	ld	l,a
   02B3                     637 00101$:
   02B3 E8 19               638 	lda	sp,25(sp)
   02B5 C9                  639 	ret
   02B6                     640 __mullong_end::
                            641 	.area _CODE
                            642 	.area _CABS
