;--------------------------------------------------------
; File Created by SDCC : free open source ANSI-C Compiler
; Version 3.0.1 #6227 (Oct  2 2015) (Linux)
; This file was generated Fri Oct  2 17:18:19 2015
;--------------------------------------------------------
	.module _mullong
	.optsdcc -mgbz80
	
;--------------------------------------------------------
; Public variables in this module
;--------------------------------------------------------
	.globl __mullong
;--------------------------------------------------------
;  ram data
;--------------------------------------------------------
	.area _DATA
;--------------------------------------------------------
; overlayable items in  ram 
;--------------------------------------------------------
	.area _OVERLAY
;--------------------------------------------------------
; external initialized ram data
;--------------------------------------------------------
;--------------------------------------------------------
; global & static initialisations
;--------------------------------------------------------
	.area _HOME
	.area _GSINIT
	.area _GSFINAL
	.area _GSINIT
;--------------------------------------------------------
; Home
;--------------------------------------------------------
	.area _HOME
	.area _HOME
;--------------------------------------------------------
; code
;--------------------------------------------------------
	.area _CODE
;../_mullong.c:703: _mullong (long a, long b)
;	---------------------------------
; Function _mullong
; ---------------------------------
__mullong_start::
__mullong:
	lda	sp,-25(sp)
;../_mullong.c:707: t.i.hi = bcast(a)->b.b0 * bcast(b)->b.b2;           // A
	ldhl	sp,#21
	ld	a,l
	ld	d,h
	ldhl	sp,#19
	ld	(hl),a
	inc	hl
	ld	(hl),d
	dec	hl
	ld	e,(hl)
	inc	hl
	ld	d,(hl)
	ld	hl,#0x0002
	add	hl,de
	ld	a,l
	ld	d,h
	ldhl	sp,#17
	ld	(hl),a
	inc	hl
	ld	(hl),d
	ldhl	sp,#27
	ld	a,l
	ld	d,h
	ldhl	sp,#15
	ld	(hl),a
	inc	hl
	ld	(hl),d
	dec	hl
	ld	e,(hl)
	inc	hl
	ld	d,(hl)
	ld	a,(de)
	dec	hl
	dec	hl
	ld	(hl),a
	ldhl	sp,#31
	ld	a,l
	ld	d,h
	ldhl	sp,#12
	ld	(hl),a
	inc	hl
	ld	(hl),d
	dec	hl
	ld	c,(hl)
	inc	hl
	ld	b,(hl)
	inc	bc
	inc	bc
	ld	a,(bc)
	dec	hl
	dec	hl
	ld	(hl),a
	ld	a,(hl)
	push	af
	inc	sp
	ldhl	sp,#15
	ld	a,(hl)
	push	af
	inc	sp
	call	__muluchar_rrx_s
	lda	sp,2(sp)
	ld	b,d
	ld	c,e
	ldhl	sp,#18
	dec	hl
	ld	e,(hl)
	inc	hl
	ld	d,(hl)
	ld	a,c
	ld	(de),a
	inc	de
	ld	a,b
	ld	(de),a
;../_mullong.c:708: t.i.lo = bcast(a)->b.b0 * bcast(b)->b.b0;           // A
	ldhl	sp,#13
	dec	hl
	ld	e,(hl)
	inc	hl
	ld	d,(hl)
	ld	a,(de)
	ldhl	sp,#17
	ld	(hl),a
	ld	a,(hl)
	push	af
	inc	sp
	ldhl	sp,#15
	ld	a,(hl)
	push	af
	inc	sp
	call	__muluchar_rrx_s
	lda	sp,2(sp)
	ld	b,d
	ld	c,e
	ldhl	sp,#20
	dec	hl
	ld	e,(hl)
	inc	hl
	ld	d,(hl)
	ld	a,c
	ld	(de),a
	inc	de
	ld	a,b
	ld	(de),a
;../_mullong.c:709: t.b.b3 += bcast(a)->b.b3 * bcast(b)->b.b0;          // G
	ldhl	sp,#21
	ld	c,l
	ld	b,h
	ld	hl,#0x0003
	add	hl,bc
	ld	a,l
	ld	d,h
	ldhl	sp,#19
	ld	(hl),a
	inc	hl
	ld	(hl),d
	dec	hl
	ld	e,(hl)
	inc	hl
	ld	d,(hl)
	ld	a,(de)
	ld	b,a
	ldhl	sp,#16
	dec	hl
	ld	e,(hl)
	inc	hl
	ld	d,(hl)
	ld	hl,#0x0003
	add	hl,de
	ld	a,l
	ld	d,h
	ldhl	sp,#8
	ld	(hl),a
	inc	hl
	ld	(hl),d
	dec	hl
	ld	e,(hl)
	inc	hl
	ld	d,(hl)
	ld	a,(de)
	ld	c,a
	push	bc
	ldhl	sp,#19
	ld	a,(hl)
	push	af
	inc	sp
	ld	a,c
	push	af
	inc	sp
	call	__muluchar_rrx_s
	lda	sp,2(sp)
	ld	c,e
	pop	af
	ld	b,a
	add	a,c
	ldhl	sp,#20
	dec	hl
	ld	e,(hl)
	inc	hl
	ld	d,(hl)
	ld	(de),a
;../_mullong.c:710: t.b.b3 += bcast(a)->b.b2 * bcast(b)->b.b1;          // F
	dec	hl
	ld	e,(hl)
	inc	hl
	ld	d,(hl)
	ld	a,(de)
	ldhl	sp,#10
	ld	(hl),a
	ldhl	sp,#15
	ld	c,(hl)
	inc	hl
	ld	b,(hl)
	inc	bc
	inc	bc
	ld	a,(bc)
	ldhl	sp,#7
	ld	(hl),a
	ldhl	sp,#12
	ld	c,(hl)
	inc	hl
	ld	b,(hl)
	inc	bc
	ld	a,(bc)
	ldhl	sp,#6
	ld	(hl),a
	ld	a,(hl)
	push	af
	inc	sp
	inc	hl
	ld	a,(hl)
	push	af
	inc	sp
	call	__muluchar_rrx_s
	lda	sp,2(sp)
	ld	b,e
	ldhl	sp,#10
	ld	a,(hl)
	add	a,b
	ldhl	sp,#20
	dec	hl
	ld	e,(hl)
	inc	hl
	ld	d,(hl)
	ld	(de),a
;../_mullong.c:711: t.i.hi += bcast(a)->b.b2 * bcast(b)->b.b0;          // E <- b lost in .lst
	ldhl	sp,#21
	ld	c,l
	ld	b,h
	ld	hl,#0x0002
	add	hl,bc
	ld	a,l
	ld	d,h
	ldhl	sp,#19
	ld	(hl),a
	inc	hl
	ld	(hl),d
	dec	hl
	ld	e,(hl)
	inc	hl
	ld	d,(hl)
	ld	a,(de)
	ldhl	sp,#4
	ld	(hl),a
	inc	de
	ld	a,(de)
	inc	hl
	ld	(hl),a
	ldhl	sp,#17
	ld	a,(hl)
	push	af
	inc	sp
	ldhl	sp,#8
	ld	a,(hl)
	push	af
	inc	sp
	call	__muluchar_rrx_s
	lda	sp,2(sp)
	ld	b,d
	ld	c,e
	ldhl	sp,#4
	ld	a,(hl)
	inc	hl
	ld	h,(hl)
	ld	l,a
	add	hl,bc
	ld	c,l
	ld	b,h
	ldhl	sp,#20
	dec	hl
	ld	e,(hl)
	inc	hl
	ld	d,(hl)
	ld	a,c
	ld	(de),a
	inc	de
	ld	a,b
	ld	(de),a
;../_mullong.c:713: t.i.hi += bcast(a)->b.b1 * bcast(b)->b.b1;          // D <- b lost in .lst
	dec	hl
	ld	e,(hl)
	inc	hl
	ld	d,(hl)
	ld	a,(de)
	ldhl	sp,#4
	ld	(hl),a
	inc	de
	ld	a,(de)
	inc	hl
	ld	(hl),a
	ldhl	sp,#15
	ld	c,(hl)
	inc	hl
	ld	b,(hl)
	inc	bc
	ld	a,(bc)
	ldhl	sp,#7
	ld	(hl),a
	dec	hl
	ld	a,(hl)
	push	af
	inc	sp
	inc	hl
	ld	a,(hl)
	push	af
	inc	sp
	call	__muluchar_rrx_s
	lda	sp,2(sp)
	ld	b,d
	ld	c,e
	ldhl	sp,#4
	ld	a,(hl)
	inc	hl
	ld	h,(hl)
	ld	l,a
	add	hl,bc
	ld	c,l
	ld	b,h
	ldhl	sp,#20
	dec	hl
	ld	e,(hl)
	inc	hl
	ld	d,(hl)
	ld	a,c
	ld	(de),a
	inc	de
	ld	a,b
	ld	(de),a
;../_mullong.c:715: bcast(a)->bi.b3 = bcast(a)->b.b1 * bcast(b)->b.b2;  // C
	ldhl	sp,#11
	ld	a,(hl)
	push	af
	inc	sp
	ldhl	sp,#8
	ld	a,(hl)
	push	af
	inc	sp
	call	__muluchar_rrx_s
	lda	sp,2(sp)
	ld	c,e
	ldhl	sp,#9
	dec	hl
	ld	e,(hl)
	inc	hl
	ld	d,(hl)
	ld	a,c
	ld	(de),a
;../_mullong.c:716: bcast(a)->bi.i12 = bcast(a)->b.b1 * bcast(b)->b.b0; // C
	ldhl	sp,#16
	dec	hl
	ld	e,(hl)
	inc	hl
	ld	d,(hl)
	ld	hl,#0x0001
	add	hl,de
	ld	a,l
	ld	d,h
	ldhl	sp,#4
	ld	(hl),a
	inc	hl
	ld	(hl),d
	ldhl	sp,#15
	ld	c,(hl)
	inc	hl
	ld	b,(hl)
	inc	bc
	ld	a,(bc)
	ld	c,a
	inc	hl
	ld	a,(hl)
	push	af
	inc	sp
	ld	a,c
	push	af
	inc	sp
	call	__muluchar_rrx_s
	lda	sp,2(sp)
	ld	b,d
	ld	c,e
	ldhl	sp,#5
	dec	hl
	ld	e,(hl)
	inc	hl
	ld	d,(hl)
	ld	a,c
	ld	(de),a
	inc	de
	ld	a,b
	ld	(de),a
;../_mullong.c:718: bcast(b)->bi.b3 = bcast(a)->b.b0 * bcast(b)->b.b3;  // B
	ldhl	sp,#13
	dec	hl
	ld	e,(hl)
	inc	hl
	ld	d,(hl)
	ld	hl,#0x0003
	add	hl,de
	ld	a,l
	ld	d,h
	ldhl	sp,#4
	ld	(hl),a
	inc	hl
	ld	(hl),d
	dec	hl
	ld	e,(hl)
	inc	hl
	ld	d,(hl)
	ld	a,(de)
	ld	c,a
	push	af
	inc	sp
	ldhl	sp,#15
	ld	a,(hl)
	push	af
	inc	sp
	call	__muluchar_rrx_s
	lda	sp,2(sp)
	ld	c,e
	ldhl	sp,#5
	dec	hl
	ld	e,(hl)
	inc	hl
	ld	d,(hl)
	ld	a,c
	ld	(de),a
;../_mullong.c:719: bcast(b)->bi.i12 = bcast(a)->b.b0 * bcast(b)->b.b1; // B
	ldhl	sp,#13
	dec	hl
	ld	e,(hl)
	inc	hl
	ld	d,(hl)
	ld	hl,#0x0001
	add	hl,de
	ld	a,l
	ld	d,h
	ldhl	sp,#4
	ld	(hl),a
	inc	hl
	ld	(hl),d
	ldhl	sp,#12
	ld	c,(hl)
	inc	hl
	ld	b,(hl)
	inc	bc
	ld	a,(bc)
	ld	c,a
	push	af
	inc	sp
	inc	hl
	ld	a,(hl)
	push	af
	inc	sp
	call	__muluchar_rrx_s
	lda	sp,2(sp)
	ld	b,d
	ld	c,e
	ldhl	sp,#5
	dec	hl
	ld	e,(hl)
	inc	hl
	ld	d,(hl)
	ld	a,c
	ld	(de),a
	inc	de
	ld	a,b
	ld	(de),a
;../_mullong.c:721: bcast(b)->bi.b0 = 0;                                // B
	ldhl	sp,#13
	dec	hl
	ld	e,(hl)
	inc	hl
	ld	d,(hl)
	ld	a,#0x00
	ld	(de),a
;../_mullong.c:722: bcast(a)->bi.b0 = 0;                                // C
	ldhl	sp,#16
	dec	hl
	ld	e,(hl)
	inc	hl
	ld	d,(hl)
	ld	a,#0x00
	ld	(de),a
;../_mullong.c:723: t.l += a;
	ldhl	sp,#21
	ld	c,l
	ld	b,h
	ld	e,c
	ld	d,b
	ld	a,(de)
	ldhl	sp,#0
	ld	(hl),a
	inc	de
	ld	a,(de)
	inc	hl
	ld	(hl),a
	inc	de
	ld	a,(de)
	inc	hl
	ld	(hl),a
	inc	de
	ld	a,(de)
	inc	hl
	ld	(hl),a
	dec	hl
	dec	hl
	dec	hl
	ld	e,(hl)
	inc	hl
	ld	d,(hl)
	ld	a,e
	ldhl	sp,#27
	add	a,(hl)
	ld	e,a
	ld	a,d
	inc	hl
	adc	a,(hl)
	push	af
	ldhl	sp,#3
	ld	(hl),a
	dec	hl
	ld	(hl),e
	ldhl	sp,#5
	dec	hl
	ld	e,(hl)
	inc	hl
	ld	d,(hl)
	ldhl	sp,#31
	pop	af
	ld	a,e
	adc	a,(hl)
	ld	e,a
	ld	a,d
	inc	hl
	adc	a,(hl)
	ldhl	sp,#3
	ld	(hl),a
	dec	hl
	ld	(hl),e
	ld	e,c
	ld	d,b
	dec	hl
	dec	hl
	ld	a,(hl)
	ld	(de),a
	inc	de
	inc	hl
	ld	a,(hl)
	ld	(de),a
	inc	de
	inc	hl
	ld	a,(hl)
	ld	(de),a
	inc	de
	inc	hl
	ld	a,(hl)
	ld	(de),a
;../_mullong.c:725: return t.l + b;
	ld	e,c
	ld	d,b
	ld	a,(de)
	inc	de
	ld	a,(de)
	inc	de
	ld	a,(de)
	inc	de
	ld	a,(de)
	dec	hl
	dec	hl
	dec	hl
	ld	e,(hl)
	inc	hl
	ld	d,(hl)
	ld	a,e
	ldhl	sp,#31
	add	a,(hl)
	ld	e,a
	ld	a,d
	inc	hl
	adc	a,(hl)
	push	af
	ldhl	sp,#3
	ld	(hl),a
	dec	hl
	ld	(hl),e
	ldhl	sp,#5
	dec	hl
	ld	e,(hl)
	inc	hl
	ld	d,(hl)
	ldhl	sp,#35
	pop	af
	ld	a,e
	adc	a,(hl)
	ld	e,a
	ld	a,d
	inc	hl
	adc	a,(hl)
	ldhl	sp,#3
	ld	(hl),a
	dec	hl
	ld	(hl),e
	dec	hl
	dec	hl
	ld	e,(hl)
	inc	hl
	ld	d,(hl)
	inc	hl
	ld	a,(hl)
	inc	hl
	ld	h,(hl)
	ld	l,a
00101$:
	lda	sp,25(sp)
	ret
__mullong_end::
	.area _CODE
	.area _CABS
