;--------------------------------------------------------
; File Created by SDCC : free open source ANSI-C Compiler
; Version 3.0.1 #6227 (Oct  2 2015) (Linux)
; This file was generated Fri Oct  2 17:18:19 2015
;--------------------------------------------------------
	.module asincosf
	.optsdcc -mgbz80
	
;--------------------------------------------------------
; Public variables in this module
;--------------------------------------------------------
	.globl _asincosf
;--------------------------------------------------------
;  ram data
;--------------------------------------------------------
	.area _DATA
_asincosf_a_1_1:
	.ds 8
_asincosf_b_1_1:
	.ds 8
;--------------------------------------------------------
; overlayable items in  ram 
;--------------------------------------------------------
	.area _OVERLAY
;--------------------------------------------------------
; external initialized ram data
;--------------------------------------------------------
;--------------------------------------------------------
; global & static initialisations
;--------------------------------------------------------
	.area _HOME
	.area _GSINIT
	.area _GSFINAL
	.area _GSINIT
;../asincosf.c:53: static const float a[2] = { 0.0, QUART_PI };
	ld	de,#_asincosf_a_1_1
	ld	a,#0x00
	ld	(de),a
	inc	de
	ld	a,#0x00
	ld	(de),a
	inc	de
	ld	a,#0x00
	ld	(de),a
	inc	de
	ld	a,#0x00
	ld	(de),a
	ld	de,#0x0004 + _asincosf_a_1_1
	ld	a,#0xDB
	ld	(de),a
	inc	de
	ld	a,#0x0F
	ld	(de),a
	inc	de
	ld	a,#0x49
	ld	(de),a
	inc	de
	ld	a,#0x3F
	ld	(de),a
;../asincosf.c:54: static const float b[2] = { HALF_PI, QUART_PI };
	ld	de,#_asincosf_b_1_1
	ld	a,#0xDB
	ld	(de),a
	inc	de
	ld	a,#0x0F
	ld	(de),a
	inc	de
	ld	a,#0xC9
	ld	(de),a
	inc	de
	ld	a,#0x3F
	ld	(de),a
	ld	de,#0x0004 + _asincosf_b_1_1
	ld	a,#0xDB
	ld	(de),a
	inc	de
	ld	a,#0x0F
	ld	(de),a
	inc	de
	ld	a,#0x49
	ld	(de),a
	inc	de
	ld	a,#0x3F
	ld	(de),a
;--------------------------------------------------------
; Home
;--------------------------------------------------------
	.area _HOME
	.area _HOME
;--------------------------------------------------------
; code
;--------------------------------------------------------
	.area _CODE
;../asincosf.c:47: float asincosf(const float x, const BOOL isacos)
;	---------------------------------
; Function asincosf
; ---------------------------------
_asincosf_start::
_asincosf:
	lda	sp,-20(sp)
;../asincosf.c:51: BOOL quartPI = isacos;
	ldhl	sp,#26
	ld	b,(hl)
;../asincosf.c:56: y = fabsf(x);
	push	bc
	dec	hl
	dec	hl
	ld	a,(hl)
	inc	hl
	ld	h,(hl)
	ld	l,a
	push	hl
	ldhl	sp,#26
	ld	a,(hl)
	inc	hl
	ld	h,(hl)
	ld	l,a
	push	hl
	call	_fabsf
	lda	sp,4(sp)
	push	hl
	ldhl	sp,#20
	ld	(hl),e
	inc	hl
	ld	(hl),d
	pop	de
	inc	hl
	ld	(hl),e
	inc	hl
	ld	(hl),d
	pop	bc
;../asincosf.c:57: if (y < EPS)
	push	bc
	ld	hl,#0x3980
	push	hl
	ld	hl,#0x0000
	push	hl
	ldhl	sp,#24
	ld	a,(hl)
	inc	hl
	ld	h,(hl)
	ld	l,a
	push	hl
	ldhl	sp,#24
	ld	a,(hl)
	inc	hl
	ld	h,(hl)
	ld	l,a
	push	hl
	call	___fslt
	lda	sp,8(sp)
	ld	c,e
	pop	af
	ld	b,a
	xor	a,a
	or	a,c
	jp	Z,00107$
;../asincosf.c:59: r = y;
	ldhl	sp,#16
	ld	d,h
	ld	e,l
	ldhl	sp,#8
	ld	a,(de)
	ld	(hl),a
	inc	hl
	inc	de
	ld	a,(de)
	ld	(hl),a
	inc	hl
	inc	de
	ld	a,(de)
	ld	(hl),a
	inc	hl
	inc	de
	ld	a,(de)
	ld	(hl),a
	jp	00108$
00107$:
;../asincosf.c:63: if (y > 0.5)
	push	bc
	ld	hl,#0x3F00
	push	hl
	ld	hl,#0x0000
	push	hl
	ldhl	sp,#24
	ld	a,(hl)
	inc	hl
	ld	h,(hl)
	ld	l,a
	push	hl
	ldhl	sp,#24
	ld	a,(hl)
	inc	hl
	ld	h,(hl)
	ld	l,a
	push	hl
	call	___fsgt
	lda	sp,8(sp)
	ld	c,e
	pop	af
	ld	b,a
	xor	a,a
	or	a,c
	jp	Z,00104$
;../asincosf.c:65: quartPI = !isacos;
	ld	a,b
	xor	a,#0x01
	ld	b,a
;../asincosf.c:66: if (y > 1.0)
	push	bc
	ld	hl,#0x3F80
	push	hl
	ld	hl,#0x0000
	push	hl
	ldhl	sp,#24
	ld	a,(hl)
	inc	hl
	ld	h,(hl)
	ld	l,a
	push	hl
	ldhl	sp,#24
	ld	a,(hl)
	inc	hl
	ld	h,(hl)
	ld	l,a
	push	hl
	call	___fsgt
	lda	sp,8(sp)
	ld	c,e
	pop	af
	ld	b,a
	xor	a,a
	or	a,c
	jp	Z,00102$
;../asincosf.c:68: errno = EDOM;
	ld	hl,#_errno
	ld	(hl),#0x21
	inc	hl
	ld	(hl),#0x00
;../asincosf.c:69: return 0.0;
	ld	de,#0x0000
	ld	hl,#0x0000
	jp	00117$
00102$:
;../asincosf.c:71: g = (0.5 - y) + 0.5;
	push	bc
	ldhl	sp,#20
	ld	a,(hl)
	inc	hl
	ld	h,(hl)
	ld	l,a
	push	hl
	ldhl	sp,#20
	ld	a,(hl)
	inc	hl
	ld	h,(hl)
	ld	l,a
	push	hl
	ld	hl,#0x3F80
	push	hl
	ld	hl,#0x0000
	push	hl
	call	___fssub
	lda	sp,8(sp)
	push	hl
	ldhl	sp,#16
	ld	(hl),e
	inc	hl
	ld	(hl),d
	pop	de
	inc	hl
	ld	(hl),e
	inc	hl
	ld	(hl),d
	pop	bc
;../asincosf.c:72: g = ldexpf(g, -1);
	push	bc
	ld	hl,#0xFFFFFFFF
	push	hl
	ldhl	sp,#18
	ld	a,(hl)
	inc	hl
	ld	h,(hl)
	ld	l,a
	push	hl
	ldhl	sp,#18
	ld	a,(hl)
	inc	hl
	ld	h,(hl)
	ld	l,a
	push	hl
	call	_ldexpf
	lda	sp,6(sp)
	push	hl
	ldhl	sp,#8
	ld	(hl),e
	inc	hl
	ld	(hl),d
	pop	de
	inc	hl
	ld	(hl),e
	inc	hl
	ld	(hl),d
	pop	bc
	ldhl	sp,#4
	ld	d,h
	ld	e,l
	ldhl	sp,#12
	ld	a,(de)
	ld	(hl),a
	inc	hl
	inc	de
	ld	a,(de)
	ld	(hl),a
	inc	hl
	inc	de
	ld	a,(de)
	ld	(hl),a
	inc	hl
	inc	de
	ld	a,(de)
	ld	(hl),a
;../asincosf.c:73: y = sqrtf(g);
	push	bc
	ldhl	sp,#16
	ld	a,(hl)
	inc	hl
	ld	h,(hl)
	ld	l,a
	push	hl
	ldhl	sp,#16
	ld	a,(hl)
	inc	hl
	ld	h,(hl)
	ld	l,a
	push	hl
	call	_sqrtf
	lda	sp,4(sp)
	push	hl
	ldhl	sp,#8
	ld	(hl),e
	inc	hl
	ld	(hl),d
	pop	de
	inc	hl
	ld	(hl),e
	inc	hl
	ld	(hl),d
	pop	bc
	ldhl	sp,#4
	ld	d,h
	ld	e,l
	ldhl	sp,#16
	ld	a,(de)
	ld	(hl),a
	inc	hl
	inc	de
	ld	a,(de)
	ld	(hl),a
	inc	hl
	inc	de
	ld	a,(de)
	ld	(hl),a
	inc	hl
	inc	de
	ld	a,(de)
	ld	(hl),a
;../asincosf.c:74: y = -(y + y);
	push	bc
	ldhl	sp,#20
	ld	a,(hl)
	inc	hl
	ld	h,(hl)
	ld	l,a
	push	hl
	ldhl	sp,#20
	ld	a,(hl)
	inc	hl
	ld	h,(hl)
	ld	l,a
	push	hl
	ldhl	sp,#24
	ld	a,(hl)
	inc	hl
	ld	h,(hl)
	ld	l,a
	push	hl
	ldhl	sp,#24
	ld	a,(hl)
	inc	hl
	ld	h,(hl)
	ld	l,a
	push	hl
	call	___fsadd
	lda	sp,8(sp)
	push	hl
	ldhl	sp,#8
	ld	(hl),e
	inc	hl
	ld	(hl),d
	pop	de
	inc	hl
	ld	(hl),e
	inc	hl
	ld	(hl),d
	pop	bc
	ldhl	sp,#7
	ld	a,(hl)
	xor	a,#0x80
	ld	(hl),a
	ldhl	sp,#4
	ld	a,(hl)
	ld	(hl),a
	inc	hl
	ld	a,(hl)
	ld	(hl),a
	inc	hl
	ld	a,(hl)
	ld	(hl),a
	dec	hl
	dec	hl
	ld	d,h
	ld	e,l
	ldhl	sp,#16
	ld	a,(de)
	ld	(hl),a
	inc	hl
	inc	de
	ld	a,(de)
	ld	(hl),a
	inc	hl
	inc	de
	ld	a,(de)
	ld	(hl),a
	inc	hl
	inc	de
	ld	a,(de)
	ld	(hl),a
	jp	00105$
00104$:
;../asincosf.c:78: g = y * y;
	push	bc
	ldhl	sp,#20
	ld	a,(hl)
	inc	hl
	ld	h,(hl)
	ld	l,a
	push	hl
	ldhl	sp,#20
	ld	a,(hl)
	inc	hl
	ld	h,(hl)
	ld	l,a
	push	hl
	ldhl	sp,#24
	ld	a,(hl)
	inc	hl
	ld	h,(hl)
	ld	l,a
	push	hl
	ldhl	sp,#24
	ld	a,(hl)
	inc	hl
	ld	h,(hl)
	ld	l,a
	push	hl
	call	___fsmul
	lda	sp,8(sp)
	push	hl
	ldhl	sp,#8
	ld	(hl),e
	inc	hl
	ld	(hl),d
	pop	de
	inc	hl
	ld	(hl),e
	inc	hl
	ld	(hl),d
	pop	bc
	ldhl	sp,#4
	ld	d,h
	ld	e,l
	ldhl	sp,#12
	ld	a,(de)
	ld	(hl),a
	inc	hl
	inc	de
	ld	a,(de)
	ld	(hl),a
	inc	hl
	inc	de
	ld	a,(de)
	ld	(hl),a
	inc	hl
	inc	de
	ld	a,(de)
	ld	(hl),a
00105$:
;../asincosf.c:80: r = y + y * ((P(g) * g) / Q(g));
	push	bc
	ldhl	sp,#16
	ld	a,(hl)
	inc	hl
	ld	h,(hl)
	ld	l,a
	push	hl
	ldhl	sp,#16
	ld	a,(hl)
	inc	hl
	ld	h,(hl)
	ld	l,a
	push	hl
	ld	hl,#0xBF01
	push	hl
	ld	hl,#0x2065
	push	hl
	call	___fsmul
	lda	sp,8(sp)
	push	hl
	ldhl	sp,#8
	ld	(hl),e
	inc	hl
	ld	(hl),d
	pop	de
	inc	hl
	ld	(hl),e
	inc	hl
	ld	(hl),d
	pop	bc
	push	bc
	ld	hl,#0x3F6F
	push	hl
	ld	hl,#0x166B
	push	hl
	ldhl	sp,#12
	ld	a,(hl)
	inc	hl
	ld	h,(hl)
	ld	l,a
	push	hl
	ldhl	sp,#12
	ld	a,(hl)
	inc	hl
	ld	h,(hl)
	ld	l,a
	push	hl
	call	___fsadd
	lda	sp,8(sp)
	push	hl
	ldhl	sp,#8
	ld	(hl),e
	inc	hl
	ld	(hl),d
	pop	de
	inc	hl
	ld	(hl),e
	inc	hl
	ld	(hl),d
	pop	bc
	push	bc
	ldhl	sp,#16
	ld	a,(hl)
	inc	hl
	ld	h,(hl)
	ld	l,a
	push	hl
	ldhl	sp,#16
	ld	a,(hl)
	inc	hl
	ld	h,(hl)
	ld	l,a
	push	hl
	ldhl	sp,#12
	ld	a,(hl)
	inc	hl
	ld	h,(hl)
	ld	l,a
	push	hl
	ldhl	sp,#12
	ld	a,(hl)
	inc	hl
	ld	h,(hl)
	ld	l,a
	push	hl
	call	___fsmul
	lda	sp,8(sp)
	push	hl
	ldhl	sp,#8
	ld	(hl),e
	inc	hl
	ld	(hl),d
	pop	de
	inc	hl
	ld	(hl),e
	inc	hl
	ld	(hl),d
	pop	bc
	push	bc
	ld	hl,#0xC0B1
	push	hl
	ld	hl,#0x8D0B
	push	hl
	ldhl	sp,#20
	ld	a,(hl)
	inc	hl
	ld	h,(hl)
	ld	l,a
	push	hl
	ldhl	sp,#20
	ld	a,(hl)
	inc	hl
	ld	h,(hl)
	ld	l,a
	push	hl
	call	___fsadd
	lda	sp,8(sp)
	push	hl
	ldhl	sp,#4
	ld	(hl),e
	inc	hl
	ld	(hl),d
	pop	de
	inc	hl
	ld	(hl),e
	inc	hl
	ld	(hl),d
	pop	bc
	push	bc
	ldhl	sp,#16
	ld	a,(hl)
	inc	hl
	ld	h,(hl)
	ld	l,a
	push	hl
	ldhl	sp,#16
	ld	a,(hl)
	inc	hl
	ld	h,(hl)
	ld	l,a
	push	hl
	ldhl	sp,#8
	ld	a,(hl)
	inc	hl
	ld	h,(hl)
	ld	l,a
	push	hl
	ldhl	sp,#8
	ld	a,(hl)
	inc	hl
	ld	h,(hl)
	ld	l,a
	push	hl
	call	___fsmul
	lda	sp,8(sp)
	push	hl
	ldhl	sp,#4
	ld	(hl),e
	inc	hl
	ld	(hl),d
	pop	de
	inc	hl
	ld	(hl),e
	inc	hl
	ld	(hl),d
	pop	bc
	push	bc
	ld	hl,#0x40B3
	push	hl
	ld	hl,#0x50F0
	push	hl
	ldhl	sp,#8
	ld	a,(hl)
	inc	hl
	ld	h,(hl)
	ld	l,a
	push	hl
	ldhl	sp,#8
	ld	a,(hl)
	inc	hl
	ld	h,(hl)
	ld	l,a
	push	hl
	call	___fsadd
	lda	sp,8(sp)
	push	hl
	ldhl	sp,#4
	ld	(hl),e
	inc	hl
	ld	(hl),d
	pop	de
	inc	hl
	ld	(hl),e
	inc	hl
	ld	(hl),d
	pop	bc
	push	bc
	ldhl	sp,#4
	ld	a,(hl)
	inc	hl
	ld	h,(hl)
	ld	l,a
	push	hl
	ldhl	sp,#4
	ld	a,(hl)
	inc	hl
	ld	h,(hl)
	ld	l,a
	push	hl
	ldhl	sp,#12
	ld	a,(hl)
	inc	hl
	ld	h,(hl)
	ld	l,a
	push	hl
	ldhl	sp,#12
	ld	a,(hl)
	inc	hl
	ld	h,(hl)
	ld	l,a
	push	hl
	call	___fsdiv
	lda	sp,8(sp)
	push	hl
	ldhl	sp,#4
	ld	(hl),e
	inc	hl
	ld	(hl),d
	pop	de
	inc	hl
	ld	(hl),e
	inc	hl
	ld	(hl),d
	pop	bc
	push	bc
	ldhl	sp,#4
	ld	a,(hl)
	inc	hl
	ld	h,(hl)
	ld	l,a
	push	hl
	ldhl	sp,#4
	ld	a,(hl)
	inc	hl
	ld	h,(hl)
	ld	l,a
	push	hl
	ldhl	sp,#24
	ld	a,(hl)
	inc	hl
	ld	h,(hl)
	ld	l,a
	push	hl
	ldhl	sp,#24
	ld	a,(hl)
	inc	hl
	ld	h,(hl)
	ld	l,a
	push	hl
	call	___fsmul
	lda	sp,8(sp)
	push	hl
	ldhl	sp,#4
	ld	(hl),e
	inc	hl
	ld	(hl),d
	pop	de
	inc	hl
	ld	(hl),e
	inc	hl
	ld	(hl),d
	pop	bc
	push	bc
	ldhl	sp,#4
	ld	a,(hl)
	inc	hl
	ld	h,(hl)
	ld	l,a
	push	hl
	ldhl	sp,#4
	ld	a,(hl)
	inc	hl
	ld	h,(hl)
	ld	l,a
	push	hl
	ldhl	sp,#24
	ld	a,(hl)
	inc	hl
	ld	h,(hl)
	ld	l,a
	push	hl
	ldhl	sp,#24
	ld	a,(hl)
	inc	hl
	ld	h,(hl)
	ld	l,a
	push	hl
	call	___fsadd
	lda	sp,8(sp)
	push	hl
	ldhl	sp,#4
	ld	(hl),e
	inc	hl
	ld	(hl),d
	pop	de
	inc	hl
	ld	(hl),e
	inc	hl
	ld	(hl),d
	pop	bc
	ldhl	sp,#0
	ld	d,h
	ld	e,l
	ldhl	sp,#8
	ld	a,(de)
	ld	(hl),a
	inc	hl
	inc	de
	ld	a,(de)
	ld	(hl),a
	inc	hl
	inc	de
	ld	a,(de)
	ld	(hl),a
	inc	hl
	inc	de
	ld	a,(de)
	ld	(hl),a
00108$:
;../asincosf.c:82: i = quartPI;
	ld	c,b
;../asincosf.c:83: if (isacos)
	ldhl	sp,#26
	bit	0,(hl)
	jp	Z,00115$
;../asincosf.c:85: if (x < 0.0)
	push	bc
	ld	hl,#0x0000
	push	hl
	ld	hl,#0x0000
	push	hl
	ldhl	sp,#30
	ld	a,(hl)
	inc	hl
	ld	h,(hl)
	ld	l,a
	push	hl
	ldhl	sp,#30
	ld	a,(hl)
	inc	hl
	ld	h,(hl)
	ld	l,a
	push	hl
	call	___fslt
	lda	sp,8(sp)
	ld	a,e
	pop	bc
	ld	b,a
	or	a,a
	jp	Z,00110$
;../asincosf.c:86: r = (b[i] + r) + b[i];
	ld	a,c
	add	a,a
	add	a,a
	ld	b, a
	add	a,#<(_asincosf_b_1_1)
	ld	c,a
	ld	a,#>(_asincosf_b_1_1)
	adc	a,#0x00
	ld	b,a
	ld	e,c
	ld	d,b
	ld	a,(de)
	ldhl	sp,#0
	ld	(hl),a
	inc	de
	ld	a,(de)
	inc	hl
	ld	(hl),a
	inc	de
	ld	a,(de)
	inc	hl
	ld	(hl),a
	inc	de
	ld	a,(de)
	inc	hl
	ld	(hl),a
	ldhl	sp,#10
	ld	a,(hl)
	inc	hl
	ld	h,(hl)
	ld	l,a
	push	hl
	ldhl	sp,#10
	ld	a,(hl)
	inc	hl
	ld	h,(hl)
	ld	l,a
	push	hl
	ldhl	sp,#6
	ld	a,(hl)
	inc	hl
	ld	h,(hl)
	ld	l,a
	push	hl
	ldhl	sp,#6
	ld	a,(hl)
	inc	hl
	ld	h,(hl)
	ld	l,a
	push	hl
	call	___fsadd
	lda	sp,8(sp)
	push	hl
	ldhl	sp,#6
	ld	(hl),e
	inc	hl
	ld	(hl),d
	pop	de
	inc	hl
	ld	(hl),e
	inc	hl
	ld	(hl),d
	ldhl	sp,#2
	ld	a,(hl)
	inc	hl
	ld	h,(hl)
	ld	l,a
	push	hl
	ldhl	sp,#2
	ld	a,(hl)
	inc	hl
	ld	h,(hl)
	ld	l,a
	push	hl
	ldhl	sp,#10
	ld	a,(hl)
	inc	hl
	ld	h,(hl)
	ld	l,a
	push	hl
	ldhl	sp,#10
	ld	a,(hl)
	inc	hl
	ld	h,(hl)
	ld	l,a
	push	hl
	call	___fsadd
	lda	sp,8(sp)
	push	hl
	ldhl	sp,#2
	ld	(hl),e
	inc	hl
	ld	(hl),d
	pop	de
	inc	hl
	ld	(hl),e
	inc	hl
	ld	(hl),d
	ldhl	sp,#0
	ld	d,h
	ld	e,l
	ldhl	sp,#8
	ld	a,(de)
	ld	(hl),a
	inc	hl
	inc	de
	ld	a,(de)
	ld	(hl),a
	inc	hl
	inc	de
	ld	a,(de)
	ld	(hl),a
	inc	hl
	inc	de
	ld	a,(de)
	ld	(hl),a
	jp	00116$
00110$:
;../asincosf.c:88: r = (a[i] - r) + a[i];
	ld	a,c
	add	a,a
	add	a,a
	ld	b, a
	add	a,#<(_asincosf_a_1_1)
	ld	c,a
	ld	a,#>(_asincosf_a_1_1)
	adc	a,#0x00
	ld	b,a
	ld	e,c
	ld	d,b
	ld	a,(de)
	ldhl	sp,#0
	ld	(hl),a
	inc	de
	ld	a,(de)
	inc	hl
	ld	(hl),a
	inc	de
	ld	a,(de)
	inc	hl
	ld	(hl),a
	inc	de
	ld	a,(de)
	inc	hl
	ld	(hl),a
	ldhl	sp,#10
	ld	a,(hl)
	inc	hl
	ld	h,(hl)
	ld	l,a
	push	hl
	ldhl	sp,#10
	ld	a,(hl)
	inc	hl
	ld	h,(hl)
	ld	l,a
	push	hl
	ldhl	sp,#6
	ld	a,(hl)
	inc	hl
	ld	h,(hl)
	ld	l,a
	push	hl
	ldhl	sp,#6
	ld	a,(hl)
	inc	hl
	ld	h,(hl)
	ld	l,a
	push	hl
	call	___fssub
	lda	sp,8(sp)
	push	hl
	ldhl	sp,#6
	ld	(hl),e
	inc	hl
	ld	(hl),d
	pop	de
	inc	hl
	ld	(hl),e
	inc	hl
	ld	(hl),d
	ldhl	sp,#2
	ld	a,(hl)
	inc	hl
	ld	h,(hl)
	ld	l,a
	push	hl
	ldhl	sp,#2
	ld	a,(hl)
	inc	hl
	ld	h,(hl)
	ld	l,a
	push	hl
	ldhl	sp,#10
	ld	a,(hl)
	inc	hl
	ld	h,(hl)
	ld	l,a
	push	hl
	ldhl	sp,#10
	ld	a,(hl)
	inc	hl
	ld	h,(hl)
	ld	l,a
	push	hl
	call	___fsadd
	lda	sp,8(sp)
	push	hl
	ldhl	sp,#2
	ld	(hl),e
	inc	hl
	ld	(hl),d
	pop	de
	inc	hl
	ld	(hl),e
	inc	hl
	ld	(hl),d
	ldhl	sp,#0
	ld	d,h
	ld	e,l
	ldhl	sp,#8
	ld	a,(de)
	ld	(hl),a
	inc	hl
	inc	de
	ld	a,(de)
	ld	(hl),a
	inc	hl
	inc	de
	ld	a,(de)
	ld	(hl),a
	inc	hl
	inc	de
	ld	a,(de)
	ld	(hl),a
	jp	00116$
00115$:
;../asincosf.c:92: r = (a[i] + r) + a[i];
	sla	c
	sla	c
	ld	a,#<(_asincosf_a_1_1)
	add	a,c
	ld	c,a
	ld	a,#>(_asincosf_a_1_1)
	adc	a,#0x00
	ld	b,a
	ld	e,c
	ld	d,b
	ld	a,(de)
	ldhl	sp,#0
	ld	(hl),a
	inc	de
	ld	a,(de)
	inc	hl
	ld	(hl),a
	inc	de
	ld	a,(de)
	inc	hl
	ld	(hl),a
	inc	de
	ld	a,(de)
	inc	hl
	ld	(hl),a
	ldhl	sp,#10
	ld	a,(hl)
	inc	hl
	ld	h,(hl)
	ld	l,a
	push	hl
	ldhl	sp,#10
	ld	a,(hl)
	inc	hl
	ld	h,(hl)
	ld	l,a
	push	hl
	ldhl	sp,#6
	ld	a,(hl)
	inc	hl
	ld	h,(hl)
	ld	l,a
	push	hl
	ldhl	sp,#6
	ld	a,(hl)
	inc	hl
	ld	h,(hl)
	ld	l,a
	push	hl
	call	___fsadd
	lda	sp,8(sp)
	push	hl
	ldhl	sp,#6
	ld	(hl),e
	inc	hl
	ld	(hl),d
	pop	de
	inc	hl
	ld	(hl),e
	inc	hl
	ld	(hl),d
	ldhl	sp,#2
	ld	a,(hl)
	inc	hl
	ld	h,(hl)
	ld	l,a
	push	hl
	ldhl	sp,#2
	ld	a,(hl)
	inc	hl
	ld	h,(hl)
	ld	l,a
	push	hl
	ldhl	sp,#10
	ld	a,(hl)
	inc	hl
	ld	h,(hl)
	ld	l,a
	push	hl
	ldhl	sp,#10
	ld	a,(hl)
	inc	hl
	ld	h,(hl)
	ld	l,a
	push	hl
	call	___fsadd
	lda	sp,8(sp)
	push	hl
	ldhl	sp,#2
	ld	(hl),e
	inc	hl
	ld	(hl),d
	pop	de
	inc	hl
	ld	(hl),e
	inc	hl
	ld	(hl),d
	ldhl	sp,#0
	ld	d,h
	ld	e,l
	ldhl	sp,#8
	ld	a,(de)
	ld	(hl),a
	inc	hl
	inc	de
	ld	a,(de)
	ld	(hl),a
	inc	hl
	inc	de
	ld	a,(de)
	ld	(hl),a
	inc	hl
	inc	de
	ld	a,(de)
	ld	(hl),a
;../asincosf.c:93: if (x < 0.0)
	ld	hl,#0x0000
	push	hl
	ld	hl,#0x0000
	push	hl
	ldhl	sp,#28
	ld	a,(hl)
	inc	hl
	ld	h,(hl)
	ld	l,a
	push	hl
	ldhl	sp,#28
	ld	a,(hl)
	inc	hl
	ld	h,(hl)
	ld	l,a
	push	hl
	call	___fslt
	lda	sp,8(sp)
	ld	c,e
	xor	a,a
	or	a,c
	jp	Z,00116$
;../asincosf.c:94: r = -r;
	ldhl	sp,#11
	ld	a,(hl)
	xor	a,#0x80
	ld	(hl),a
00116$:
;../asincosf.c:96: return r;
	ldhl	sp,#9
	dec	hl
	ld	e,(hl)
	inc	hl
	ld	d,(hl)
	inc	hl
	ld	a,(hl)
	inc	hl
	ld	h,(hl)
	ld	l,a
00117$:
	lda	sp,20(sp)
	ret
_asincosf_end::
	.area _CODE
	.area _CABS
