                              1 ;--------------------------------------------------------
                              2 ; File Created by SDCC : free open source ANSI-C Compiler
                              3 ; Version 3.0.1 #6227 (Oct  2 2015) (Linux)
                              4 ; This file was generated Fri Oct  2 17:18:19 2015
                              5 ;--------------------------------------------------------
                              6 	.module asincosf
                              7 	.optsdcc -mgbz80
                              8 	
                              9 ;--------------------------------------------------------
                             10 ; Public variables in this module
                             11 ;--------------------------------------------------------
                             12 	.globl _asincosf
                             13 ;--------------------------------------------------------
                             14 ;  ram data
                             15 ;--------------------------------------------------------
                             16 	.area _DATA
   0000                      17 _asincosf_a_1_1:
   0000                      18 	.ds 8
   0008                      19 _asincosf_b_1_1:
   0008                      20 	.ds 8
                             21 ;--------------------------------------------------------
                             22 ; overlayable items in  ram 
                             23 ;--------------------------------------------------------
                             24 	.area _OVERLAY
                             25 ;--------------------------------------------------------
                             26 ; external initialized ram data
                             27 ;--------------------------------------------------------
                             28 ;--------------------------------------------------------
                             29 ; global & static initialisations
                             30 ;--------------------------------------------------------
                             31 	.area _HOME
                             32 	.area _GSINIT
                             33 	.area _GSFINAL
                             34 	.area _GSINIT
                             35 ;../asincosf.c:53: static const float a[2] = { 0.0, QUART_PI };
   0000 11r00s00             36 	ld	de,#_asincosf_a_1_1
   0003 3E 00                37 	ld	a,#0x00
   0005 12                   38 	ld	(de),a
   0006 13                   39 	inc	de
   0007 3E 00                40 	ld	a,#0x00
   0009 12                   41 	ld	(de),a
   000A 13                   42 	inc	de
   000B 3E 00                43 	ld	a,#0x00
   000D 12                   44 	ld	(de),a
   000E 13                   45 	inc	de
   000F 3E 00                46 	ld	a,#0x00
   0011 12                   47 	ld	(de),a
   0012 11r04s00             48 	ld	de,#0x0004 + _asincosf_a_1_1
   0015 3E DB                49 	ld	a,#0xDB
   0017 12                   50 	ld	(de),a
   0018 13                   51 	inc	de
   0019 3E 0F                52 	ld	a,#0x0F
   001B 12                   53 	ld	(de),a
   001C 13                   54 	inc	de
   001D 3E 49                55 	ld	a,#0x49
   001F 12                   56 	ld	(de),a
   0020 13                   57 	inc	de
   0021 3E 3F                58 	ld	a,#0x3F
   0023 12                   59 	ld	(de),a
                             60 ;../asincosf.c:54: static const float b[2] = { HALF_PI, QUART_PI };
   0024 11r08s00             61 	ld	de,#_asincosf_b_1_1
   0027 3E DB                62 	ld	a,#0xDB
   0029 12                   63 	ld	(de),a
   002A 13                   64 	inc	de
   002B 3E 0F                65 	ld	a,#0x0F
   002D 12                   66 	ld	(de),a
   002E 13                   67 	inc	de
   002F 3E C9                68 	ld	a,#0xC9
   0031 12                   69 	ld	(de),a
   0032 13                   70 	inc	de
   0033 3E 3F                71 	ld	a,#0x3F
   0035 12                   72 	ld	(de),a
   0036 11r0Cs00             73 	ld	de,#0x0004 + _asincosf_b_1_1
   0039 3E DB                74 	ld	a,#0xDB
   003B 12                   75 	ld	(de),a
   003C 13                   76 	inc	de
   003D 3E 0F                77 	ld	a,#0x0F
   003F 12                   78 	ld	(de),a
   0040 13                   79 	inc	de
   0041 3E 49                80 	ld	a,#0x49
   0043 12                   81 	ld	(de),a
   0044 13                   82 	inc	de
   0045 3E 3F                83 	ld	a,#0x3F
   0047 12                   84 	ld	(de),a
                             85 ;--------------------------------------------------------
                             86 ; Home
                             87 ;--------------------------------------------------------
                             88 	.area _HOME
                             89 	.area _HOME
                             90 ;--------------------------------------------------------
                             91 ; code
                             92 ;--------------------------------------------------------
                             93 	.area _CODE
                             94 ;../asincosf.c:47: float asincosf(const float x, const BOOL isacos)
                             95 ;	---------------------------------
                             96 ; Function asincosf
                             97 ; ---------------------------------
   0000                      98 _asincosf_start::
   0000                      99 _asincosf:
   0000 E8 EC               100 	lda	sp,-20(sp)
                            101 ;../asincosf.c:51: BOOL quartPI = isacos;
   0002 F8 1A               102 	ldhl	sp,#26
   0004 46                  103 	ld	b,(hl)
                            104 ;../asincosf.c:56: y = fabsf(x);
   0005 C5                  105 	push	bc
   0006 2B                  106 	dec	hl
   0007 2B                  107 	dec	hl
   0008 7E                  108 	ld	a,(hl)
   0009 23                  109 	inc	hl
   000A 66                  110 	ld	h,(hl)
   000B 6F                  111 	ld	l,a
   000C E5                  112 	push	hl
   000D F8 1A               113 	ldhl	sp,#26
   000F 7E                  114 	ld	a,(hl)
   0010 23                  115 	inc	hl
   0011 66                  116 	ld	h,(hl)
   0012 6F                  117 	ld	l,a
   0013 E5                  118 	push	hl
   0014 CDr00s00            119 	call	_fabsf
   0017 E8 04               120 	lda	sp,4(sp)
   0019 E5                  121 	push	hl
   001A F8 14               122 	ldhl	sp,#20
   001C 73                  123 	ld	(hl),e
   001D 23                  124 	inc	hl
   001E 72                  125 	ld	(hl),d
   001F D1                  126 	pop	de
   0020 23                  127 	inc	hl
   0021 73                  128 	ld	(hl),e
   0022 23                  129 	inc	hl
   0023 72                  130 	ld	(hl),d
   0024 C1                  131 	pop	bc
                            132 ;../asincosf.c:57: if (y < EPS)
   0025 C5                  133 	push	bc
   0026 21 80 39            134 	ld	hl,#0x3980
   0029 E5                  135 	push	hl
   002A 21 00 00            136 	ld	hl,#0x0000
   002D E5                  137 	push	hl
   002E F8 18               138 	ldhl	sp,#24
   0030 7E                  139 	ld	a,(hl)
   0031 23                  140 	inc	hl
   0032 66                  141 	ld	h,(hl)
   0033 6F                  142 	ld	l,a
   0034 E5                  143 	push	hl
   0035 F8 18               144 	ldhl	sp,#24
   0037 7E                  145 	ld	a,(hl)
   0038 23                  146 	inc	hl
   0039 66                  147 	ld	h,(hl)
   003A 6F                  148 	ld	l,a
   003B E5                  149 	push	hl
   003C CDr00s00            150 	call	___fslt
   003F E8 08               151 	lda	sp,8(sp)
   0041 4B                  152 	ld	c,e
   0042 F1                  153 	pop	af
   0043 47                  154 	ld	b,a
   0044 AF                  155 	xor	a,a
   0045 B1                  156 	or	a,c
   0046 CAr60s00            157 	jp	Z,00107$
                            158 ;../asincosf.c:59: r = y;
   0049 F8 10               159 	ldhl	sp,#16
   004B 54                  160 	ld	d,h
   004C 5D                  161 	ld	e,l
   004D F8 08               162 	ldhl	sp,#8
   004F 1A                  163 	ld	a,(de)
   0050 77                  164 	ld	(hl),a
   0051 23                  165 	inc	hl
   0052 13                  166 	inc	de
   0053 1A                  167 	ld	a,(de)
   0054 77                  168 	ld	(hl),a
   0055 23                  169 	inc	hl
   0056 13                  170 	inc	de
   0057 1A                  171 	ld	a,(de)
   0058 77                  172 	ld	(hl),a
   0059 23                  173 	inc	hl
   005A 13                  174 	inc	de
   005B 1A                  175 	ld	a,(de)
   005C 77                  176 	ld	(hl),a
   005D C3r82s03            177 	jp	00108$
   0060                     178 00107$:
                            179 ;../asincosf.c:63: if (y > 0.5)
   0060 C5                  180 	push	bc
   0061 21 00 3F            181 	ld	hl,#0x3F00
   0064 E5                  182 	push	hl
   0065 21 00 00            183 	ld	hl,#0x0000
   0068 E5                  184 	push	hl
   0069 F8 18               185 	ldhl	sp,#24
   006B 7E                  186 	ld	a,(hl)
   006C 23                  187 	inc	hl
   006D 66                  188 	ld	h,(hl)
   006E 6F                  189 	ld	l,a
   006F E5                  190 	push	hl
   0070 F8 18               191 	ldhl	sp,#24
   0072 7E                  192 	ld	a,(hl)
   0073 23                  193 	inc	hl
   0074 66                  194 	ld	h,(hl)
   0075 6F                  195 	ld	l,a
   0076 E5                  196 	push	hl
   0077 CDr00s00            197 	call	___fsgt
   007A E8 08               198 	lda	sp,8(sp)
   007C 4B                  199 	ld	c,e
   007D F1                  200 	pop	af
   007E 47                  201 	ld	b,a
   007F AF                  202 	xor	a,a
   0080 B1                  203 	or	a,c
   0081 CArA6s01            204 	jp	Z,00104$
                            205 ;../asincosf.c:65: quartPI = !isacos;
   0084 78                  206 	ld	a,b
   0085 EE 01               207 	xor	a,#0x01
   0087 47                  208 	ld	b,a
                            209 ;../asincosf.c:66: if (y > 1.0)
   0088 C5                  210 	push	bc
   0089 21 80 3F            211 	ld	hl,#0x3F80
   008C E5                  212 	push	hl
   008D 21 00 00            213 	ld	hl,#0x0000
   0090 E5                  214 	push	hl
   0091 F8 18               215 	ldhl	sp,#24
   0093 7E                  216 	ld	a,(hl)
   0094 23                  217 	inc	hl
   0095 66                  218 	ld	h,(hl)
   0096 6F                  219 	ld	l,a
   0097 E5                  220 	push	hl
   0098 F8 18               221 	ldhl	sp,#24
   009A 7E                  222 	ld	a,(hl)
   009B 23                  223 	inc	hl
   009C 66                  224 	ld	h,(hl)
   009D 6F                  225 	ld	l,a
   009E E5                  226 	push	hl
   009F CDr00s00            227 	call	___fsgt
   00A2 E8 08               228 	lda	sp,8(sp)
   00A4 4B                  229 	ld	c,e
   00A5 F1                  230 	pop	af
   00A6 47                  231 	ld	b,a
   00A7 AF                  232 	xor	a,a
   00A8 B1                  233 	or	a,c
   00A9 CArBDs00            234 	jp	Z,00102$
                            235 ;../asincosf.c:68: errno = EDOM;
   00AC 21r00s00            236 	ld	hl,#_errno
   00AF 36 21               237 	ld	(hl),#0x21
   00B1 23                  238 	inc	hl
   00B2 36 00               239 	ld	(hl),#0x00
                            240 ;../asincosf.c:69: return 0.0;
   00B4 11 00 00            241 	ld	de,#0x0000
   00B7 21 00 00            242 	ld	hl,#0x0000
   00BA C3r84s05            243 	jp	00117$
   00BD                     244 00102$:
                            245 ;../asincosf.c:71: g = (0.5 - y) + 0.5;
   00BD C5                  246 	push	bc
   00BE F8 14               247 	ldhl	sp,#20
   00C0 7E                  248 	ld	a,(hl)
   00C1 23                  249 	inc	hl
   00C2 66                  250 	ld	h,(hl)
   00C3 6F                  251 	ld	l,a
   00C4 E5                  252 	push	hl
   00C5 F8 14               253 	ldhl	sp,#20
   00C7 7E                  254 	ld	a,(hl)
   00C8 23                  255 	inc	hl
   00C9 66                  256 	ld	h,(hl)
   00CA 6F                  257 	ld	l,a
   00CB E5                  258 	push	hl
   00CC 21 80 3F            259 	ld	hl,#0x3F80
   00CF E5                  260 	push	hl
   00D0 21 00 00            261 	ld	hl,#0x0000
   00D3 E5                  262 	push	hl
   00D4 CDr00s00            263 	call	___fssub
   00D7 E8 08               264 	lda	sp,8(sp)
   00D9 E5                  265 	push	hl
   00DA F8 10               266 	ldhl	sp,#16
   00DC 73                  267 	ld	(hl),e
   00DD 23                  268 	inc	hl
   00DE 72                  269 	ld	(hl),d
   00DF D1                  270 	pop	de
   00E0 23                  271 	inc	hl
   00E1 73                  272 	ld	(hl),e
   00E2 23                  273 	inc	hl
   00E3 72                  274 	ld	(hl),d
   00E4 C1                  275 	pop	bc
                            276 ;../asincosf.c:72: g = ldexpf(g, -1);
   00E5 C5                  277 	push	bc
   00E6 21 FF FF            278 	ld	hl,#0xFFFFFFFF
   00E9 E5                  279 	push	hl
   00EA F8 12               280 	ldhl	sp,#18
   00EC 7E                  281 	ld	a,(hl)
   00ED 23                  282 	inc	hl
   00EE 66                  283 	ld	h,(hl)
   00EF 6F                  284 	ld	l,a
   00F0 E5                  285 	push	hl
   00F1 F8 12               286 	ldhl	sp,#18
   00F3 7E                  287 	ld	a,(hl)
   00F4 23                  288 	inc	hl
   00F5 66                  289 	ld	h,(hl)
   00F6 6F                  290 	ld	l,a
   00F7 E5                  291 	push	hl
   00F8 CDr00s00            292 	call	_ldexpf
   00FB E8 06               293 	lda	sp,6(sp)
   00FD E5                  294 	push	hl
   00FE F8 08               295 	ldhl	sp,#8
   0100 73                  296 	ld	(hl),e
   0101 23                  297 	inc	hl
   0102 72                  298 	ld	(hl),d
   0103 D1                  299 	pop	de
   0104 23                  300 	inc	hl
   0105 73                  301 	ld	(hl),e
   0106 23                  302 	inc	hl
   0107 72                  303 	ld	(hl),d
   0108 C1                  304 	pop	bc
   0109 F8 04               305 	ldhl	sp,#4
   010B 54                  306 	ld	d,h
   010C 5D                  307 	ld	e,l
   010D F8 0C               308 	ldhl	sp,#12
   010F 1A                  309 	ld	a,(de)
   0110 77                  310 	ld	(hl),a
   0111 23                  311 	inc	hl
   0112 13                  312 	inc	de
   0113 1A                  313 	ld	a,(de)
   0114 77                  314 	ld	(hl),a
   0115 23                  315 	inc	hl
   0116 13                  316 	inc	de
   0117 1A                  317 	ld	a,(de)
   0118 77                  318 	ld	(hl),a
   0119 23                  319 	inc	hl
   011A 13                  320 	inc	de
   011B 1A                  321 	ld	a,(de)
   011C 77                  322 	ld	(hl),a
                            323 ;../asincosf.c:73: y = sqrtf(g);
   011D C5                  324 	push	bc
   011E F8 10               325 	ldhl	sp,#16
   0120 7E                  326 	ld	a,(hl)
   0121 23                  327 	inc	hl
   0122 66                  328 	ld	h,(hl)
   0123 6F                  329 	ld	l,a
   0124 E5                  330 	push	hl
   0125 F8 10               331 	ldhl	sp,#16
   0127 7E                  332 	ld	a,(hl)
   0128 23                  333 	inc	hl
   0129 66                  334 	ld	h,(hl)
   012A 6F                  335 	ld	l,a
   012B E5                  336 	push	hl
   012C CDr00s00            337 	call	_sqrtf
   012F E8 04               338 	lda	sp,4(sp)
   0131 E5                  339 	push	hl
   0132 F8 08               340 	ldhl	sp,#8
   0134 73                  341 	ld	(hl),e
   0135 23                  342 	inc	hl
   0136 72                  343 	ld	(hl),d
   0137 D1                  344 	pop	de
   0138 23                  345 	inc	hl
   0139 73                  346 	ld	(hl),e
   013A 23                  347 	inc	hl
   013B 72                  348 	ld	(hl),d
   013C C1                  349 	pop	bc
   013D F8 04               350 	ldhl	sp,#4
   013F 54                  351 	ld	d,h
   0140 5D                  352 	ld	e,l
   0141 F8 10               353 	ldhl	sp,#16
   0143 1A                  354 	ld	a,(de)
   0144 77                  355 	ld	(hl),a
   0145 23                  356 	inc	hl
   0146 13                  357 	inc	de
   0147 1A                  358 	ld	a,(de)
   0148 77                  359 	ld	(hl),a
   0149 23                  360 	inc	hl
   014A 13                  361 	inc	de
   014B 1A                  362 	ld	a,(de)
   014C 77                  363 	ld	(hl),a
   014D 23                  364 	inc	hl
   014E 13                  365 	inc	de
   014F 1A                  366 	ld	a,(de)
   0150 77                  367 	ld	(hl),a
                            368 ;../asincosf.c:74: y = -(y + y);
   0151 C5                  369 	push	bc
   0152 F8 14               370 	ldhl	sp,#20
   0154 7E                  371 	ld	a,(hl)
   0155 23                  372 	inc	hl
   0156 66                  373 	ld	h,(hl)
   0157 6F                  374 	ld	l,a
   0158 E5                  375 	push	hl
   0159 F8 14               376 	ldhl	sp,#20
   015B 7E                  377 	ld	a,(hl)
   015C 23                  378 	inc	hl
   015D 66                  379 	ld	h,(hl)
   015E 6F                  380 	ld	l,a
   015F E5                  381 	push	hl
   0160 F8 18               382 	ldhl	sp,#24
   0162 7E                  383 	ld	a,(hl)
   0163 23                  384 	inc	hl
   0164 66                  385 	ld	h,(hl)
   0165 6F                  386 	ld	l,a
   0166 E5                  387 	push	hl
   0167 F8 18               388 	ldhl	sp,#24
   0169 7E                  389 	ld	a,(hl)
   016A 23                  390 	inc	hl
   016B 66                  391 	ld	h,(hl)
   016C 6F                  392 	ld	l,a
   016D E5                  393 	push	hl
   016E CDr00s00            394 	call	___fsadd
   0171 E8 08               395 	lda	sp,8(sp)
   0173 E5                  396 	push	hl
   0174 F8 08               397 	ldhl	sp,#8
   0176 73                  398 	ld	(hl),e
   0177 23                  399 	inc	hl
   0178 72                  400 	ld	(hl),d
   0179 D1                  401 	pop	de
   017A 23                  402 	inc	hl
   017B 73                  403 	ld	(hl),e
   017C 23                  404 	inc	hl
   017D 72                  405 	ld	(hl),d
   017E C1                  406 	pop	bc
   017F F8 07               407 	ldhl	sp,#7
   0181 7E                  408 	ld	a,(hl)
   0182 EE 80               409 	xor	a,#0x80
   0184 77                  410 	ld	(hl),a
   0185 F8 04               411 	ldhl	sp,#4
   0187 7E                  412 	ld	a,(hl)
   0188 77                  413 	ld	(hl),a
   0189 23                  414 	inc	hl
   018A 7E                  415 	ld	a,(hl)
   018B 77                  416 	ld	(hl),a
   018C 23                  417 	inc	hl
   018D 7E                  418 	ld	a,(hl)
   018E 77                  419 	ld	(hl),a
   018F 2B                  420 	dec	hl
   0190 2B                  421 	dec	hl
   0191 54                  422 	ld	d,h
   0192 5D                  423 	ld	e,l
   0193 F8 10               424 	ldhl	sp,#16
   0195 1A                  425 	ld	a,(de)
   0196 77                  426 	ld	(hl),a
   0197 23                  427 	inc	hl
   0198 13                  428 	inc	de
   0199 1A                  429 	ld	a,(de)
   019A 77                  430 	ld	(hl),a
   019B 23                  431 	inc	hl
   019C 13                  432 	inc	de
   019D 1A                  433 	ld	a,(de)
   019E 77                  434 	ld	(hl),a
   019F 23                  435 	inc	hl
   01A0 13                  436 	inc	de
   01A1 1A                  437 	ld	a,(de)
   01A2 77                  438 	ld	(hl),a
   01A3 C3rE8s01            439 	jp	00105$
   01A6                     440 00104$:
                            441 ;../asincosf.c:78: g = y * y;
   01A6 C5                  442 	push	bc
   01A7 F8 14               443 	ldhl	sp,#20
   01A9 7E                  444 	ld	a,(hl)
   01AA 23                  445 	inc	hl
   01AB 66                  446 	ld	h,(hl)
   01AC 6F                  447 	ld	l,a
   01AD E5                  448 	push	hl
   01AE F8 14               449 	ldhl	sp,#20
   01B0 7E                  450 	ld	a,(hl)
   01B1 23                  451 	inc	hl
   01B2 66                  452 	ld	h,(hl)
   01B3 6F                  453 	ld	l,a
   01B4 E5                  454 	push	hl
   01B5 F8 18               455 	ldhl	sp,#24
   01B7 7E                  456 	ld	a,(hl)
   01B8 23                  457 	inc	hl
   01B9 66                  458 	ld	h,(hl)
   01BA 6F                  459 	ld	l,a
   01BB E5                  460 	push	hl
   01BC F8 18               461 	ldhl	sp,#24
   01BE 7E                  462 	ld	a,(hl)
   01BF 23                  463 	inc	hl
   01C0 66                  464 	ld	h,(hl)
   01C1 6F                  465 	ld	l,a
   01C2 E5                  466 	push	hl
   01C3 CDr00s00            467 	call	___fsmul
   01C6 E8 08               468 	lda	sp,8(sp)
   01C8 E5                  469 	push	hl
   01C9 F8 08               470 	ldhl	sp,#8
   01CB 73                  471 	ld	(hl),e
   01CC 23                  472 	inc	hl
   01CD 72                  473 	ld	(hl),d
   01CE D1                  474 	pop	de
   01CF 23                  475 	inc	hl
   01D0 73                  476 	ld	(hl),e
   01D1 23                  477 	inc	hl
   01D2 72                  478 	ld	(hl),d
   01D3 C1                  479 	pop	bc
   01D4 F8 04               480 	ldhl	sp,#4
   01D6 54                  481 	ld	d,h
   01D7 5D                  482 	ld	e,l
   01D8 F8 0C               483 	ldhl	sp,#12
   01DA 1A                  484 	ld	a,(de)
   01DB 77                  485 	ld	(hl),a
   01DC 23                  486 	inc	hl
   01DD 13                  487 	inc	de
   01DE 1A                  488 	ld	a,(de)
   01DF 77                  489 	ld	(hl),a
   01E0 23                  490 	inc	hl
   01E1 13                  491 	inc	de
   01E2 1A                  492 	ld	a,(de)
   01E3 77                  493 	ld	(hl),a
   01E4 23                  494 	inc	hl
   01E5 13                  495 	inc	de
   01E6 1A                  496 	ld	a,(de)
   01E7 77                  497 	ld	(hl),a
   01E8                     498 00105$:
                            499 ;../asincosf.c:80: r = y + y * ((P(g) * g) / Q(g));
   01E8 C5                  500 	push	bc
   01E9 F8 10               501 	ldhl	sp,#16
   01EB 7E                  502 	ld	a,(hl)
   01EC 23                  503 	inc	hl
   01ED 66                  504 	ld	h,(hl)
   01EE 6F                  505 	ld	l,a
   01EF E5                  506 	push	hl
   01F0 F8 10               507 	ldhl	sp,#16
   01F2 7E                  508 	ld	a,(hl)
   01F3 23                  509 	inc	hl
   01F4 66                  510 	ld	h,(hl)
   01F5 6F                  511 	ld	l,a
   01F6 E5                  512 	push	hl
   01F7 21 01 BF            513 	ld	hl,#0xBF01
   01FA E5                  514 	push	hl
   01FB 21 65 20            515 	ld	hl,#0x2065
   01FE E5                  516 	push	hl
   01FF CDr00s00            517 	call	___fsmul
   0202 E8 08               518 	lda	sp,8(sp)
   0204 E5                  519 	push	hl
   0205 F8 08               520 	ldhl	sp,#8
   0207 73                  521 	ld	(hl),e
   0208 23                  522 	inc	hl
   0209 72                  523 	ld	(hl),d
   020A D1                  524 	pop	de
   020B 23                  525 	inc	hl
   020C 73                  526 	ld	(hl),e
   020D 23                  527 	inc	hl
   020E 72                  528 	ld	(hl),d
   020F C1                  529 	pop	bc
   0210 C5                  530 	push	bc
   0211 21 6F 3F            531 	ld	hl,#0x3F6F
   0214 E5                  532 	push	hl
   0215 21 6B 16            533 	ld	hl,#0x166B
   0218 E5                  534 	push	hl
   0219 F8 0C               535 	ldhl	sp,#12
   021B 7E                  536 	ld	a,(hl)
   021C 23                  537 	inc	hl
   021D 66                  538 	ld	h,(hl)
   021E 6F                  539 	ld	l,a
   021F E5                  540 	push	hl
   0220 F8 0C               541 	ldhl	sp,#12
   0222 7E                  542 	ld	a,(hl)
   0223 23                  543 	inc	hl
   0224 66                  544 	ld	h,(hl)
   0225 6F                  545 	ld	l,a
   0226 E5                  546 	push	hl
   0227 CDr00s00            547 	call	___fsadd
   022A E8 08               548 	lda	sp,8(sp)
   022C E5                  549 	push	hl
   022D F8 08               550 	ldhl	sp,#8
   022F 73                  551 	ld	(hl),e
   0230 23                  552 	inc	hl
   0231 72                  553 	ld	(hl),d
   0232 D1                  554 	pop	de
   0233 23                  555 	inc	hl
   0234 73                  556 	ld	(hl),e
   0235 23                  557 	inc	hl
   0236 72                  558 	ld	(hl),d
   0237 C1                  559 	pop	bc
   0238 C5                  560 	push	bc
   0239 F8 10               561 	ldhl	sp,#16
   023B 7E                  562 	ld	a,(hl)
   023C 23                  563 	inc	hl
   023D 66                  564 	ld	h,(hl)
   023E 6F                  565 	ld	l,a
   023F E5                  566 	push	hl
   0240 F8 10               567 	ldhl	sp,#16
   0242 7E                  568 	ld	a,(hl)
   0243 23                  569 	inc	hl
   0244 66                  570 	ld	h,(hl)
   0245 6F                  571 	ld	l,a
   0246 E5                  572 	push	hl
   0247 F8 0C               573 	ldhl	sp,#12
   0249 7E                  574 	ld	a,(hl)
   024A 23                  575 	inc	hl
   024B 66                  576 	ld	h,(hl)
   024C 6F                  577 	ld	l,a
   024D E5                  578 	push	hl
   024E F8 0C               579 	ldhl	sp,#12
   0250 7E                  580 	ld	a,(hl)
   0251 23                  581 	inc	hl
   0252 66                  582 	ld	h,(hl)
   0253 6F                  583 	ld	l,a
   0254 E5                  584 	push	hl
   0255 CDr00s00            585 	call	___fsmul
   0258 E8 08               586 	lda	sp,8(sp)
   025A E5                  587 	push	hl
   025B F8 08               588 	ldhl	sp,#8
   025D 73                  589 	ld	(hl),e
   025E 23                  590 	inc	hl
   025F 72                  591 	ld	(hl),d
   0260 D1                  592 	pop	de
   0261 23                  593 	inc	hl
   0262 73                  594 	ld	(hl),e
   0263 23                  595 	inc	hl
   0264 72                  596 	ld	(hl),d
   0265 C1                  597 	pop	bc
   0266 C5                  598 	push	bc
   0267 21 B1 C0            599 	ld	hl,#0xC0B1
   026A E5                  600 	push	hl
   026B 21 0B 8D            601 	ld	hl,#0x8D0B
   026E E5                  602 	push	hl
   026F F8 14               603 	ldhl	sp,#20
   0271 7E                  604 	ld	a,(hl)
   0272 23                  605 	inc	hl
   0273 66                  606 	ld	h,(hl)
   0274 6F                  607 	ld	l,a
   0275 E5                  608 	push	hl
   0276 F8 14               609 	ldhl	sp,#20
   0278 7E                  610 	ld	a,(hl)
   0279 23                  611 	inc	hl
   027A 66                  612 	ld	h,(hl)
   027B 6F                  613 	ld	l,a
   027C E5                  614 	push	hl
   027D CDr00s00            615 	call	___fsadd
   0280 E8 08               616 	lda	sp,8(sp)
   0282 E5                  617 	push	hl
   0283 F8 04               618 	ldhl	sp,#4
   0285 73                  619 	ld	(hl),e
   0286 23                  620 	inc	hl
   0287 72                  621 	ld	(hl),d
   0288 D1                  622 	pop	de
   0289 23                  623 	inc	hl
   028A 73                  624 	ld	(hl),e
   028B 23                  625 	inc	hl
   028C 72                  626 	ld	(hl),d
   028D C1                  627 	pop	bc
   028E C5                  628 	push	bc
   028F F8 10               629 	ldhl	sp,#16
   0291 7E                  630 	ld	a,(hl)
   0292 23                  631 	inc	hl
   0293 66                  632 	ld	h,(hl)
   0294 6F                  633 	ld	l,a
   0295 E5                  634 	push	hl
   0296 F8 10               635 	ldhl	sp,#16
   0298 7E                  636 	ld	a,(hl)
   0299 23                  637 	inc	hl
   029A 66                  638 	ld	h,(hl)
   029B 6F                  639 	ld	l,a
   029C E5                  640 	push	hl
   029D F8 08               641 	ldhl	sp,#8
   029F 7E                  642 	ld	a,(hl)
   02A0 23                  643 	inc	hl
   02A1 66                  644 	ld	h,(hl)
   02A2 6F                  645 	ld	l,a
   02A3 E5                  646 	push	hl
   02A4 F8 08               647 	ldhl	sp,#8
   02A6 7E                  648 	ld	a,(hl)
   02A7 23                  649 	inc	hl
   02A8 66                  650 	ld	h,(hl)
   02A9 6F                  651 	ld	l,a
   02AA E5                  652 	push	hl
   02AB CDr00s00            653 	call	___fsmul
   02AE E8 08               654 	lda	sp,8(sp)
   02B0 E5                  655 	push	hl
   02B1 F8 04               656 	ldhl	sp,#4
   02B3 73                  657 	ld	(hl),e
   02B4 23                  658 	inc	hl
   02B5 72                  659 	ld	(hl),d
   02B6 D1                  660 	pop	de
   02B7 23                  661 	inc	hl
   02B8 73                  662 	ld	(hl),e
   02B9 23                  663 	inc	hl
   02BA 72                  664 	ld	(hl),d
   02BB C1                  665 	pop	bc
   02BC C5                  666 	push	bc
   02BD 21 B3 40            667 	ld	hl,#0x40B3
   02C0 E5                  668 	push	hl
   02C1 21 F0 50            669 	ld	hl,#0x50F0
   02C4 E5                  670 	push	hl
   02C5 F8 08               671 	ldhl	sp,#8
   02C7 7E                  672 	ld	a,(hl)
   02C8 23                  673 	inc	hl
   02C9 66                  674 	ld	h,(hl)
   02CA 6F                  675 	ld	l,a
   02CB E5                  676 	push	hl
   02CC F8 08               677 	ldhl	sp,#8
   02CE 7E                  678 	ld	a,(hl)
   02CF 23                  679 	inc	hl
   02D0 66                  680 	ld	h,(hl)
   02D1 6F                  681 	ld	l,a
   02D2 E5                  682 	push	hl
   02D3 CDr00s00            683 	call	___fsadd
   02D6 E8 08               684 	lda	sp,8(sp)
   02D8 E5                  685 	push	hl
   02D9 F8 04               686 	ldhl	sp,#4
   02DB 73                  687 	ld	(hl),e
   02DC 23                  688 	inc	hl
   02DD 72                  689 	ld	(hl),d
   02DE D1                  690 	pop	de
   02DF 23                  691 	inc	hl
   02E0 73                  692 	ld	(hl),e
   02E1 23                  693 	inc	hl
   02E2 72                  694 	ld	(hl),d
   02E3 C1                  695 	pop	bc
   02E4 C5                  696 	push	bc
   02E5 F8 04               697 	ldhl	sp,#4
   02E7 7E                  698 	ld	a,(hl)
   02E8 23                  699 	inc	hl
   02E9 66                  700 	ld	h,(hl)
   02EA 6F                  701 	ld	l,a
   02EB E5                  702 	push	hl
   02EC F8 04               703 	ldhl	sp,#4
   02EE 7E                  704 	ld	a,(hl)
   02EF 23                  705 	inc	hl
   02F0 66                  706 	ld	h,(hl)
   02F1 6F                  707 	ld	l,a
   02F2 E5                  708 	push	hl
   02F3 F8 0C               709 	ldhl	sp,#12
   02F5 7E                  710 	ld	a,(hl)
   02F6 23                  711 	inc	hl
   02F7 66                  712 	ld	h,(hl)
   02F8 6F                  713 	ld	l,a
   02F9 E5                  714 	push	hl
   02FA F8 0C               715 	ldhl	sp,#12
   02FC 7E                  716 	ld	a,(hl)
   02FD 23                  717 	inc	hl
   02FE 66                  718 	ld	h,(hl)
   02FF 6F                  719 	ld	l,a
   0300 E5                  720 	push	hl
   0301 CDr00s00            721 	call	___fsdiv
   0304 E8 08               722 	lda	sp,8(sp)
   0306 E5                  723 	push	hl
   0307 F8 04               724 	ldhl	sp,#4
   0309 73                  725 	ld	(hl),e
   030A 23                  726 	inc	hl
   030B 72                  727 	ld	(hl),d
   030C D1                  728 	pop	de
   030D 23                  729 	inc	hl
   030E 73                  730 	ld	(hl),e
   030F 23                  731 	inc	hl
   0310 72                  732 	ld	(hl),d
   0311 C1                  733 	pop	bc
   0312 C5                  734 	push	bc
   0313 F8 04               735 	ldhl	sp,#4
   0315 7E                  736 	ld	a,(hl)
   0316 23                  737 	inc	hl
   0317 66                  738 	ld	h,(hl)
   0318 6F                  739 	ld	l,a
   0319 E5                  740 	push	hl
   031A F8 04               741 	ldhl	sp,#4
   031C 7E                  742 	ld	a,(hl)
   031D 23                  743 	inc	hl
   031E 66                  744 	ld	h,(hl)
   031F 6F                  745 	ld	l,a
   0320 E5                  746 	push	hl
   0321 F8 18               747 	ldhl	sp,#24
   0323 7E                  748 	ld	a,(hl)
   0324 23                  749 	inc	hl
   0325 66                  750 	ld	h,(hl)
   0326 6F                  751 	ld	l,a
   0327 E5                  752 	push	hl
   0328 F8 18               753 	ldhl	sp,#24
   032A 7E                  754 	ld	a,(hl)
   032B 23                  755 	inc	hl
   032C 66                  756 	ld	h,(hl)
   032D 6F                  757 	ld	l,a
   032E E5                  758 	push	hl
   032F CDr00s00            759 	call	___fsmul
   0332 E8 08               760 	lda	sp,8(sp)
   0334 E5                  761 	push	hl
   0335 F8 04               762 	ldhl	sp,#4
   0337 73                  763 	ld	(hl),e
   0338 23                  764 	inc	hl
   0339 72                  765 	ld	(hl),d
   033A D1                  766 	pop	de
   033B 23                  767 	inc	hl
   033C 73                  768 	ld	(hl),e
   033D 23                  769 	inc	hl
   033E 72                  770 	ld	(hl),d
   033F C1                  771 	pop	bc
   0340 C5                  772 	push	bc
   0341 F8 04               773 	ldhl	sp,#4
   0343 7E                  774 	ld	a,(hl)
   0344 23                  775 	inc	hl
   0345 66                  776 	ld	h,(hl)
   0346 6F                  777 	ld	l,a
   0347 E5                  778 	push	hl
   0348 F8 04               779 	ldhl	sp,#4
   034A 7E                  780 	ld	a,(hl)
   034B 23                  781 	inc	hl
   034C 66                  782 	ld	h,(hl)
   034D 6F                  783 	ld	l,a
   034E E5                  784 	push	hl
   034F F8 18               785 	ldhl	sp,#24
   0351 7E                  786 	ld	a,(hl)
   0352 23                  787 	inc	hl
   0353 66                  788 	ld	h,(hl)
   0354 6F                  789 	ld	l,a
   0355 E5                  790 	push	hl
   0356 F8 18               791 	ldhl	sp,#24
   0358 7E                  792 	ld	a,(hl)
   0359 23                  793 	inc	hl
   035A 66                  794 	ld	h,(hl)
   035B 6F                  795 	ld	l,a
   035C E5                  796 	push	hl
   035D CDr00s00            797 	call	___fsadd
   0360 E8 08               798 	lda	sp,8(sp)
   0362 E5                  799 	push	hl
   0363 F8 04               800 	ldhl	sp,#4
   0365 73                  801 	ld	(hl),e
   0366 23                  802 	inc	hl
   0367 72                  803 	ld	(hl),d
   0368 D1                  804 	pop	de
   0369 23                  805 	inc	hl
   036A 73                  806 	ld	(hl),e
   036B 23                  807 	inc	hl
   036C 72                  808 	ld	(hl),d
   036D C1                  809 	pop	bc
   036E F8 00               810 	ldhl	sp,#0
   0370 54                  811 	ld	d,h
   0371 5D                  812 	ld	e,l
   0372 F8 08               813 	ldhl	sp,#8
   0374 1A                  814 	ld	a,(de)
   0375 77                  815 	ld	(hl),a
   0376 23                  816 	inc	hl
   0377 13                  817 	inc	de
   0378 1A                  818 	ld	a,(de)
   0379 77                  819 	ld	(hl),a
   037A 23                  820 	inc	hl
   037B 13                  821 	inc	de
   037C 1A                  822 	ld	a,(de)
   037D 77                  823 	ld	(hl),a
   037E 23                  824 	inc	hl
   037F 13                  825 	inc	de
   0380 1A                  826 	ld	a,(de)
   0381 77                  827 	ld	(hl),a
   0382                     828 00108$:
                            829 ;../asincosf.c:82: i = quartPI;
   0382 48                  830 	ld	c,b
                            831 ;../asincosf.c:83: if (isacos)
   0383 F8 1A               832 	ldhl	sp,#26
   0385 CB 46               833 	bit	0,(hl)
   0387 CArC7s04            834 	jp	Z,00115$
                            835 ;../asincosf.c:85: if (x < 0.0)
   038A C5                  836 	push	bc
   038B 21 00 00            837 	ld	hl,#0x0000
   038E E5                  838 	push	hl
   038F 21 00 00            839 	ld	hl,#0x0000
   0392 E5                  840 	push	hl
   0393 F8 1E               841 	ldhl	sp,#30
   0395 7E                  842 	ld	a,(hl)
   0396 23                  843 	inc	hl
   0397 66                  844 	ld	h,(hl)
   0398 6F                  845 	ld	l,a
   0399 E5                  846 	push	hl
   039A F8 1E               847 	ldhl	sp,#30
   039C 7E                  848 	ld	a,(hl)
   039D 23                  849 	inc	hl
   039E 66                  850 	ld	h,(hl)
   039F 6F                  851 	ld	l,a
   03A0 E5                  852 	push	hl
   03A1 CDr00s00            853 	call	___fslt
   03A4 E8 08               854 	lda	sp,8(sp)
   03A6 7B                  855 	ld	a,e
   03A7 C1                  856 	pop	bc
   03A8 47                  857 	ld	b,a
   03A9 B7                  858 	or	a,a
   03AA CAr3As04            859 	jp	Z,00110$
                            860 ;../asincosf.c:86: r = (b[i] + r) + b[i];
   03AD 79                  861 	ld	a,c
   03AE 87                  862 	add	a,a
   03AF 87                  863 	add	a,a
   03B0 47                  864 	ld	b, a
   03B1 C6r08               865 	add	a,#<(_asincosf_b_1_1)
   03B3 4F                  866 	ld	c,a
   03B4 3Es00               867 	ld	a,#>(_asincosf_b_1_1)
   03B6 CE 00               868 	adc	a,#0x00
   03B8 47                  869 	ld	b,a
   03B9 59                  870 	ld	e,c
   03BA 50                  871 	ld	d,b
   03BB 1A                  872 	ld	a,(de)
   03BC F8 00               873 	ldhl	sp,#0
   03BE 77                  874 	ld	(hl),a
   03BF 13                  875 	inc	de
   03C0 1A                  876 	ld	a,(de)
   03C1 23                  877 	inc	hl
   03C2 77                  878 	ld	(hl),a
   03C3 13                  879 	inc	de
   03C4 1A                  880 	ld	a,(de)
   03C5 23                  881 	inc	hl
   03C6 77                  882 	ld	(hl),a
   03C7 13                  883 	inc	de
   03C8 1A                  884 	ld	a,(de)
   03C9 23                  885 	inc	hl
   03CA 77                  886 	ld	(hl),a
   03CB F8 0A               887 	ldhl	sp,#10
   03CD 7E                  888 	ld	a,(hl)
   03CE 23                  889 	inc	hl
   03CF 66                  890 	ld	h,(hl)
   03D0 6F                  891 	ld	l,a
   03D1 E5                  892 	push	hl
   03D2 F8 0A               893 	ldhl	sp,#10
   03D4 7E                  894 	ld	a,(hl)
   03D5 23                  895 	inc	hl
   03D6 66                  896 	ld	h,(hl)
   03D7 6F                  897 	ld	l,a
   03D8 E5                  898 	push	hl
   03D9 F8 06               899 	ldhl	sp,#6
   03DB 7E                  900 	ld	a,(hl)
   03DC 23                  901 	inc	hl
   03DD 66                  902 	ld	h,(hl)
   03DE 6F                  903 	ld	l,a
   03DF E5                  904 	push	hl
   03E0 F8 06               905 	ldhl	sp,#6
   03E2 7E                  906 	ld	a,(hl)
   03E3 23                  907 	inc	hl
   03E4 66                  908 	ld	h,(hl)
   03E5 6F                  909 	ld	l,a
   03E6 E5                  910 	push	hl
   03E7 CDr00s00            911 	call	___fsadd
   03EA E8 08               912 	lda	sp,8(sp)
   03EC E5                  913 	push	hl
   03ED F8 06               914 	ldhl	sp,#6
   03EF 73                  915 	ld	(hl),e
   03F0 23                  916 	inc	hl
   03F1 72                  917 	ld	(hl),d
   03F2 D1                  918 	pop	de
   03F3 23                  919 	inc	hl
   03F4 73                  920 	ld	(hl),e
   03F5 23                  921 	inc	hl
   03F6 72                  922 	ld	(hl),d
   03F7 F8 02               923 	ldhl	sp,#2
   03F9 7E                  924 	ld	a,(hl)
   03FA 23                  925 	inc	hl
   03FB 66                  926 	ld	h,(hl)
   03FC 6F                  927 	ld	l,a
   03FD E5                  928 	push	hl
   03FE F8 02               929 	ldhl	sp,#2
   0400 7E                  930 	ld	a,(hl)
   0401 23                  931 	inc	hl
   0402 66                  932 	ld	h,(hl)
   0403 6F                  933 	ld	l,a
   0404 E5                  934 	push	hl
   0405 F8 0A               935 	ldhl	sp,#10
   0407 7E                  936 	ld	a,(hl)
   0408 23                  937 	inc	hl
   0409 66                  938 	ld	h,(hl)
   040A 6F                  939 	ld	l,a
   040B E5                  940 	push	hl
   040C F8 0A               941 	ldhl	sp,#10
   040E 7E                  942 	ld	a,(hl)
   040F 23                  943 	inc	hl
   0410 66                  944 	ld	h,(hl)
   0411 6F                  945 	ld	l,a
   0412 E5                  946 	push	hl
   0413 CDr00s00            947 	call	___fsadd
   0416 E8 08               948 	lda	sp,8(sp)
   0418 E5                  949 	push	hl
   0419 F8 02               950 	ldhl	sp,#2
   041B 73                  951 	ld	(hl),e
   041C 23                  952 	inc	hl
   041D 72                  953 	ld	(hl),d
   041E D1                  954 	pop	de
   041F 23                  955 	inc	hl
   0420 73                  956 	ld	(hl),e
   0421 23                  957 	inc	hl
   0422 72                  958 	ld	(hl),d
   0423 F8 00               959 	ldhl	sp,#0
   0425 54                  960 	ld	d,h
   0426 5D                  961 	ld	e,l
   0427 F8 08               962 	ldhl	sp,#8
   0429 1A                  963 	ld	a,(de)
   042A 77                  964 	ld	(hl),a
   042B 23                  965 	inc	hl
   042C 13                  966 	inc	de
   042D 1A                  967 	ld	a,(de)
   042E 77                  968 	ld	(hl),a
   042F 23                  969 	inc	hl
   0430 13                  970 	inc	de
   0431 1A                  971 	ld	a,(de)
   0432 77                  972 	ld	(hl),a
   0433 23                  973 	inc	hl
   0434 13                  974 	inc	de
   0435 1A                  975 	ld	a,(de)
   0436 77                  976 	ld	(hl),a
   0437 C3r79s05            977 	jp	00116$
   043A                     978 00110$:
                            979 ;../asincosf.c:88: r = (a[i] - r) + a[i];
   043A 79                  980 	ld	a,c
   043B 87                  981 	add	a,a
   043C 87                  982 	add	a,a
   043D 47                  983 	ld	b, a
   043E C6r00               984 	add	a,#<(_asincosf_a_1_1)
   0440 4F                  985 	ld	c,a
   0441 3Es00               986 	ld	a,#>(_asincosf_a_1_1)
   0443 CE 00               987 	adc	a,#0x00
   0445 47                  988 	ld	b,a
   0446 59                  989 	ld	e,c
   0447 50                  990 	ld	d,b
   0448 1A                  991 	ld	a,(de)
   0449 F8 00               992 	ldhl	sp,#0
   044B 77                  993 	ld	(hl),a
   044C 13                  994 	inc	de
   044D 1A                  995 	ld	a,(de)
   044E 23                  996 	inc	hl
   044F 77                  997 	ld	(hl),a
   0450 13                  998 	inc	de
   0451 1A                  999 	ld	a,(de)
   0452 23                 1000 	inc	hl
   0453 77                 1001 	ld	(hl),a
   0454 13                 1002 	inc	de
   0455 1A                 1003 	ld	a,(de)
   0456 23                 1004 	inc	hl
   0457 77                 1005 	ld	(hl),a
   0458 F8 0A              1006 	ldhl	sp,#10
   045A 7E                 1007 	ld	a,(hl)
   045B 23                 1008 	inc	hl
   045C 66                 1009 	ld	h,(hl)
   045D 6F                 1010 	ld	l,a
   045E E5                 1011 	push	hl
   045F F8 0A              1012 	ldhl	sp,#10
   0461 7E                 1013 	ld	a,(hl)
   0462 23                 1014 	inc	hl
   0463 66                 1015 	ld	h,(hl)
   0464 6F                 1016 	ld	l,a
   0465 E5                 1017 	push	hl
   0466 F8 06              1018 	ldhl	sp,#6
   0468 7E                 1019 	ld	a,(hl)
   0469 23                 1020 	inc	hl
   046A 66                 1021 	ld	h,(hl)
   046B 6F                 1022 	ld	l,a
   046C E5                 1023 	push	hl
   046D F8 06              1024 	ldhl	sp,#6
   046F 7E                 1025 	ld	a,(hl)
   0470 23                 1026 	inc	hl
   0471 66                 1027 	ld	h,(hl)
   0472 6F                 1028 	ld	l,a
   0473 E5                 1029 	push	hl
   0474 CDr00s00           1030 	call	___fssub
   0477 E8 08              1031 	lda	sp,8(sp)
   0479 E5                 1032 	push	hl
   047A F8 06              1033 	ldhl	sp,#6
   047C 73                 1034 	ld	(hl),e
   047D 23                 1035 	inc	hl
   047E 72                 1036 	ld	(hl),d
   047F D1                 1037 	pop	de
   0480 23                 1038 	inc	hl
   0481 73                 1039 	ld	(hl),e
   0482 23                 1040 	inc	hl
   0483 72                 1041 	ld	(hl),d
   0484 F8 02              1042 	ldhl	sp,#2
   0486 7E                 1043 	ld	a,(hl)
   0487 23                 1044 	inc	hl
   0488 66                 1045 	ld	h,(hl)
   0489 6F                 1046 	ld	l,a
   048A E5                 1047 	push	hl
   048B F8 02              1048 	ldhl	sp,#2
   048D 7E                 1049 	ld	a,(hl)
   048E 23                 1050 	inc	hl
   048F 66                 1051 	ld	h,(hl)
   0490 6F                 1052 	ld	l,a
   0491 E5                 1053 	push	hl
   0492 F8 0A              1054 	ldhl	sp,#10
   0494 7E                 1055 	ld	a,(hl)
   0495 23                 1056 	inc	hl
   0496 66                 1057 	ld	h,(hl)
   0497 6F                 1058 	ld	l,a
   0498 E5                 1059 	push	hl
   0499 F8 0A              1060 	ldhl	sp,#10
   049B 7E                 1061 	ld	a,(hl)
   049C 23                 1062 	inc	hl
   049D 66                 1063 	ld	h,(hl)
   049E 6F                 1064 	ld	l,a
   049F E5                 1065 	push	hl
   04A0 CDr00s00           1066 	call	___fsadd
   04A3 E8 08              1067 	lda	sp,8(sp)
   04A5 E5                 1068 	push	hl
   04A6 F8 02              1069 	ldhl	sp,#2
   04A8 73                 1070 	ld	(hl),e
   04A9 23                 1071 	inc	hl
   04AA 72                 1072 	ld	(hl),d
   04AB D1                 1073 	pop	de
   04AC 23                 1074 	inc	hl
   04AD 73                 1075 	ld	(hl),e
   04AE 23                 1076 	inc	hl
   04AF 72                 1077 	ld	(hl),d
   04B0 F8 00              1078 	ldhl	sp,#0
   04B2 54                 1079 	ld	d,h
   04B3 5D                 1080 	ld	e,l
   04B4 F8 08              1081 	ldhl	sp,#8
   04B6 1A                 1082 	ld	a,(de)
   04B7 77                 1083 	ld	(hl),a
   04B8 23                 1084 	inc	hl
   04B9 13                 1085 	inc	de
   04BA 1A                 1086 	ld	a,(de)
   04BB 77                 1087 	ld	(hl),a
   04BC 23                 1088 	inc	hl
   04BD 13                 1089 	inc	de
   04BE 1A                 1090 	ld	a,(de)
   04BF 77                 1091 	ld	(hl),a
   04C0 23                 1092 	inc	hl
   04C1 13                 1093 	inc	de
   04C2 1A                 1094 	ld	a,(de)
   04C3 77                 1095 	ld	(hl),a
   04C4 C3r79s05           1096 	jp	00116$
   04C7                    1097 00115$:
                           1098 ;../asincosf.c:92: r = (a[i] + r) + a[i];
   04C7 CB 21              1099 	sla	c
   04C9 CB 21              1100 	sla	c
   04CB 3Er00              1101 	ld	a,#<(_asincosf_a_1_1)
   04CD 81                 1102 	add	a,c
   04CE 4F                 1103 	ld	c,a
   04CF 3Es00              1104 	ld	a,#>(_asincosf_a_1_1)
   04D1 CE 00              1105 	adc	a,#0x00
   04D3 47                 1106 	ld	b,a
   04D4 59                 1107 	ld	e,c
   04D5 50                 1108 	ld	d,b
   04D6 1A                 1109 	ld	a,(de)
   04D7 F8 00              1110 	ldhl	sp,#0
   04D9 77                 1111 	ld	(hl),a
   04DA 13                 1112 	inc	de
   04DB 1A                 1113 	ld	a,(de)
   04DC 23                 1114 	inc	hl
   04DD 77                 1115 	ld	(hl),a
   04DE 13                 1116 	inc	de
   04DF 1A                 1117 	ld	a,(de)
   04E0 23                 1118 	inc	hl
   04E1 77                 1119 	ld	(hl),a
   04E2 13                 1120 	inc	de
   04E3 1A                 1121 	ld	a,(de)
   04E4 23                 1122 	inc	hl
   04E5 77                 1123 	ld	(hl),a
   04E6 F8 0A              1124 	ldhl	sp,#10
   04E8 7E                 1125 	ld	a,(hl)
   04E9 23                 1126 	inc	hl
   04EA 66                 1127 	ld	h,(hl)
   04EB 6F                 1128 	ld	l,a
   04EC E5                 1129 	push	hl
   04ED F8 0A              1130 	ldhl	sp,#10
   04EF 7E                 1131 	ld	a,(hl)
   04F0 23                 1132 	inc	hl
   04F1 66                 1133 	ld	h,(hl)
   04F2 6F                 1134 	ld	l,a
   04F3 E5                 1135 	push	hl
   04F4 F8 06              1136 	ldhl	sp,#6
   04F6 7E                 1137 	ld	a,(hl)
   04F7 23                 1138 	inc	hl
   04F8 66                 1139 	ld	h,(hl)
   04F9 6F                 1140 	ld	l,a
   04FA E5                 1141 	push	hl
   04FB F8 06              1142 	ldhl	sp,#6
   04FD 7E                 1143 	ld	a,(hl)
   04FE 23                 1144 	inc	hl
   04FF 66                 1145 	ld	h,(hl)
   0500 6F                 1146 	ld	l,a
   0501 E5                 1147 	push	hl
   0502 CDr00s00           1148 	call	___fsadd
   0505 E8 08              1149 	lda	sp,8(sp)
   0507 E5                 1150 	push	hl
   0508 F8 06              1151 	ldhl	sp,#6
   050A 73                 1152 	ld	(hl),e
   050B 23                 1153 	inc	hl
   050C 72                 1154 	ld	(hl),d
   050D D1                 1155 	pop	de
   050E 23                 1156 	inc	hl
   050F 73                 1157 	ld	(hl),e
   0510 23                 1158 	inc	hl
   0511 72                 1159 	ld	(hl),d
   0512 F8 02              1160 	ldhl	sp,#2
   0514 7E                 1161 	ld	a,(hl)
   0515 23                 1162 	inc	hl
   0516 66                 1163 	ld	h,(hl)
   0517 6F                 1164 	ld	l,a
   0518 E5                 1165 	push	hl
   0519 F8 02              1166 	ldhl	sp,#2
   051B 7E                 1167 	ld	a,(hl)
   051C 23                 1168 	inc	hl
   051D 66                 1169 	ld	h,(hl)
   051E 6F                 1170 	ld	l,a
   051F E5                 1171 	push	hl
   0520 F8 0A              1172 	ldhl	sp,#10
   0522 7E                 1173 	ld	a,(hl)
   0523 23                 1174 	inc	hl
   0524 66                 1175 	ld	h,(hl)
   0525 6F                 1176 	ld	l,a
   0526 E5                 1177 	push	hl
   0527 F8 0A              1178 	ldhl	sp,#10
   0529 7E                 1179 	ld	a,(hl)
   052A 23                 1180 	inc	hl
   052B 66                 1181 	ld	h,(hl)
   052C 6F                 1182 	ld	l,a
   052D E5                 1183 	push	hl
   052E CDr00s00           1184 	call	___fsadd
   0531 E8 08              1185 	lda	sp,8(sp)
   0533 E5                 1186 	push	hl
   0534 F8 02              1187 	ldhl	sp,#2
   0536 73                 1188 	ld	(hl),e
   0537 23                 1189 	inc	hl
   0538 72                 1190 	ld	(hl),d
   0539 D1                 1191 	pop	de
   053A 23                 1192 	inc	hl
   053B 73                 1193 	ld	(hl),e
   053C 23                 1194 	inc	hl
   053D 72                 1195 	ld	(hl),d
   053E F8 00              1196 	ldhl	sp,#0
   0540 54                 1197 	ld	d,h
   0541 5D                 1198 	ld	e,l
   0542 F8 08              1199 	ldhl	sp,#8
   0544 1A                 1200 	ld	a,(de)
   0545 77                 1201 	ld	(hl),a
   0546 23                 1202 	inc	hl
   0547 13                 1203 	inc	de
   0548 1A                 1204 	ld	a,(de)
   0549 77                 1205 	ld	(hl),a
   054A 23                 1206 	inc	hl
   054B 13                 1207 	inc	de
   054C 1A                 1208 	ld	a,(de)
   054D 77                 1209 	ld	(hl),a
   054E 23                 1210 	inc	hl
   054F 13                 1211 	inc	de
   0550 1A                 1212 	ld	a,(de)
   0551 77                 1213 	ld	(hl),a
                           1214 ;../asincosf.c:93: if (x < 0.0)
   0552 21 00 00           1215 	ld	hl,#0x0000
   0555 E5                 1216 	push	hl
   0556 21 00 00           1217 	ld	hl,#0x0000
   0559 E5                 1218 	push	hl
   055A F8 1C              1219 	ldhl	sp,#28
   055C 7E                 1220 	ld	a,(hl)
   055D 23                 1221 	inc	hl
   055E 66                 1222 	ld	h,(hl)
   055F 6F                 1223 	ld	l,a
   0560 E5                 1224 	push	hl
   0561 F8 1C              1225 	ldhl	sp,#28
   0563 7E                 1226 	ld	a,(hl)
   0564 23                 1227 	inc	hl
   0565 66                 1228 	ld	h,(hl)
   0566 6F                 1229 	ld	l,a
   0567 E5                 1230 	push	hl
   0568 CDr00s00           1231 	call	___fslt
   056B E8 08              1232 	lda	sp,8(sp)
   056D 4B                 1233 	ld	c,e
   056E AF                 1234 	xor	a,a
   056F B1                 1235 	or	a,c
   0570 CAr79s05           1236 	jp	Z,00116$
                           1237 ;../asincosf.c:94: r = -r;
   0573 F8 0B              1238 	ldhl	sp,#11
   0575 7E                 1239 	ld	a,(hl)
   0576 EE 80              1240 	xor	a,#0x80
   0578 77                 1241 	ld	(hl),a
   0579                    1242 00116$:
                           1243 ;../asincosf.c:96: return r;
   0579 F8 09              1244 	ldhl	sp,#9
   057B 2B                 1245 	dec	hl
   057C 5E                 1246 	ld	e,(hl)
   057D 23                 1247 	inc	hl
   057E 56                 1248 	ld	d,(hl)
   057F 23                 1249 	inc	hl
   0580 7E                 1250 	ld	a,(hl)
   0581 23                 1251 	inc	hl
   0582 66                 1252 	ld	h,(hl)
   0583 6F                 1253 	ld	l,a
   0584                    1254 00117$:
   0584 E8 14              1255 	lda	sp,20(sp)
   0586 C9                 1256 	ret
   0587                    1257 _asincosf_end::
                           1258 	.area _CODE
                           1259 	.area _CABS
