                              1 ;--------------------------------------------------------
                              2 ; File Created by SDCC : free open source ANSI-C Compiler
                              3 ; Version 3.0.1 #6227 (Oct  2 2015) (Linux)
                              4 ; This file was generated Fri Oct  2 17:18:19 2015
                              5 ;--------------------------------------------------------
                              6 	.module atan2f
                              7 	.optsdcc -mgbz80
                              8 	
                              9 ;--------------------------------------------------------
                             10 ; Public variables in this module
                             11 ;--------------------------------------------------------
                             12 	.globl _atan2f
                             13 ;--------------------------------------------------------
                             14 ;  ram data
                             15 ;--------------------------------------------------------
                             16 	.area _DATA
                             17 ;--------------------------------------------------------
                             18 ; overlayable items in  ram 
                             19 ;--------------------------------------------------------
                             20 	.area _OVERLAY
                             21 ;--------------------------------------------------------
                             22 ; external initialized ram data
                             23 ;--------------------------------------------------------
                             24 ;--------------------------------------------------------
                             25 ; global & static initialisations
                             26 ;--------------------------------------------------------
                             27 	.area _HOME
                             28 	.area _GSINIT
                             29 	.area _GSFINAL
                             30 	.area _GSINIT
                             31 ;--------------------------------------------------------
                             32 ; Home
                             33 ;--------------------------------------------------------
                             34 	.area _HOME
                             35 	.area _HOME
                             36 ;--------------------------------------------------------
                             37 ; code
                             38 ;--------------------------------------------------------
                             39 	.area _CODE
                             40 ;../atan2f.c:34: float atan2f(const float x, const float y)
                             41 ;	---------------------------------
                             42 ; Function atan2f
                             43 ; ---------------------------------
   0000                      44 _atan2f_start::
   0000                      45 _atan2f:
   0000 E8 F4                46 	lda	sp,-12(sp)
                             47 ;../atan2f.c:38: if ((x==0.0) && (y==0.0))
   0002 F8 0E                48 	ldhl	sp,#14
   0004 7E                   49 	ld	a,(hl)
   0005 23                   50 	inc	hl
   0006 B6                   51 	or	a,(hl)
   0007 23                   52 	inc	hl
   0008 B6                   53 	or	a,(hl)
   0009 23                   54 	inc	hl
   000A B6                   55 	or	a,(hl)
   000B C2r2As00             56 	jp	NZ,00102$
   000E 23                   57 	inc	hl
   000F 7E                   58 	ld	a,(hl)
   0010 23                   59 	inc	hl
   0011 B6                   60 	or	a,(hl)
   0012 23                   61 	inc	hl
   0013 B6                   62 	or	a,(hl)
   0014 23                   63 	inc	hl
   0015 B6                   64 	or	a,(hl)
   0016 C2r2As00             65 	jp	NZ,00102$
                             66 ;../atan2f.c:40: errno=EDOM;
   0019 21r00s00             67 	ld	hl,#_errno
   001C 36 21                68 	ld	(hl),#0x21
   001E 23                   69 	inc	hl
   001F 36 00                70 	ld	(hl),#0x00
                             71 ;../atan2f.c:41: return 0.0;
   0021 11 00 00             72 	ld	de,#0x0000
   0024 21 00 00             73 	ld	hl,#0x0000
   0027 C3r75s02             74 	jp	00109$
   002A                      75 00102$:
                             76 ;../atan2f.c:44: if(fabsf(y)>=fabsf(x))
   002A F8 14                77 	ldhl	sp,#20
   002C 7E                   78 	ld	a,(hl)
   002D 23                   79 	inc	hl
   002E 66                   80 	ld	h,(hl)
   002F 6F                   81 	ld	l,a
   0030 E5                   82 	push	hl
   0031 F8 14                83 	ldhl	sp,#20
   0033 7E                   84 	ld	a,(hl)
   0034 23                   85 	inc	hl
   0035 66                   86 	ld	h,(hl)
   0036 6F                   87 	ld	l,a
   0037 E5                   88 	push	hl
   0038 CDr00s00             89 	call	_fabsf
   003B E8 04                90 	lda	sp,4(sp)
   003D E5                   91 	push	hl
   003E F8 06                92 	ldhl	sp,#6
   0040 73                   93 	ld	(hl),e
   0041 23                   94 	inc	hl
   0042 72                   95 	ld	(hl),d
   0043 D1                   96 	pop	de
   0044 23                   97 	inc	hl
   0045 73                   98 	ld	(hl),e
   0046 23                   99 	inc	hl
   0047 72                  100 	ld	(hl),d
   0048 F8 10               101 	ldhl	sp,#16
   004A 7E                  102 	ld	a,(hl)
   004B 23                  103 	inc	hl
   004C 66                  104 	ld	h,(hl)
   004D 6F                  105 	ld	l,a
   004E E5                  106 	push	hl
   004F F8 10               107 	ldhl	sp,#16
   0051 7E                  108 	ld	a,(hl)
   0052 23                  109 	inc	hl
   0053 66                  110 	ld	h,(hl)
   0054 6F                  111 	ld	l,a
   0055 E5                  112 	push	hl
   0056 CDr00s00            113 	call	_fabsf
   0059 E8 04               114 	lda	sp,4(sp)
   005B E5                  115 	push	hl
   005C F8 02               116 	ldhl	sp,#2
   005E 73                  117 	ld	(hl),e
   005F 23                  118 	inc	hl
   0060 72                  119 	ld	(hl),d
   0061 D1                  120 	pop	de
   0062 23                  121 	inc	hl
   0063 73                  122 	ld	(hl),e
   0064 23                  123 	inc	hl
   0065 72                  124 	ld	(hl),d
   0066 F8 02               125 	ldhl	sp,#2
   0068 7E                  126 	ld	a,(hl)
   0069 23                  127 	inc	hl
   006A 66                  128 	ld	h,(hl)
   006B 6F                  129 	ld	l,a
   006C E5                  130 	push	hl
   006D F8 02               131 	ldhl	sp,#2
   006F 7E                  132 	ld	a,(hl)
   0070 23                  133 	inc	hl
   0071 66                  134 	ld	h,(hl)
   0072 6F                  135 	ld	l,a
   0073 E5                  136 	push	hl
   0074 F8 0A               137 	ldhl	sp,#10
   0076 7E                  138 	ld	a,(hl)
   0077 23                  139 	inc	hl
   0078 66                  140 	ld	h,(hl)
   0079 6F                  141 	ld	l,a
   007A E5                  142 	push	hl
   007B F8 0A               143 	ldhl	sp,#10
   007D 7E                  144 	ld	a,(hl)
   007E 23                  145 	inc	hl
   007F 66                  146 	ld	h,(hl)
   0080 6F                  147 	ld	l,a
   0081 E5                  148 	push	hl
   0082 CDr00s00            149 	call	___fslt
   0085 E8 08               150 	lda	sp,8(sp)
   0087 4B                  151 	ld	c,e
   0088 AF                  152 	xor	a,a
   0089 B1                  153 	or	a,c
   008A C2r7Fs01            154 	jp	NZ,00107$
                            155 ;../atan2f.c:46: r=atanf(x/y);
   008D F8 14               156 	ldhl	sp,#20
   008F 7E                  157 	ld	a,(hl)
   0090 23                  158 	inc	hl
   0091 66                  159 	ld	h,(hl)
   0092 6F                  160 	ld	l,a
   0093 E5                  161 	push	hl
   0094 F8 14               162 	ldhl	sp,#20
   0096 7E                  163 	ld	a,(hl)
   0097 23                  164 	inc	hl
   0098 66                  165 	ld	h,(hl)
   0099 6F                  166 	ld	l,a
   009A E5                  167 	push	hl
   009B F8 14               168 	ldhl	sp,#20
   009D 7E                  169 	ld	a,(hl)
   009E 23                  170 	inc	hl
   009F 66                  171 	ld	h,(hl)
   00A0 6F                  172 	ld	l,a
   00A1 E5                  173 	push	hl
   00A2 F8 14               174 	ldhl	sp,#20
   00A4 7E                  175 	ld	a,(hl)
   00A5 23                  176 	inc	hl
   00A6 66                  177 	ld	h,(hl)
   00A7 6F                  178 	ld	l,a
   00A8 E5                  179 	push	hl
   00A9 CDr00s00            180 	call	___fsdiv
   00AC E8 08               181 	lda	sp,8(sp)
   00AE E5                  182 	push	hl
   00AF F8 02               183 	ldhl	sp,#2
   00B1 73                  184 	ld	(hl),e
   00B2 23                  185 	inc	hl
   00B3 72                  186 	ld	(hl),d
   00B4 D1                  187 	pop	de
   00B5 23                  188 	inc	hl
   00B6 73                  189 	ld	(hl),e
   00B7 23                  190 	inc	hl
   00B8 72                  191 	ld	(hl),d
   00B9 F8 02               192 	ldhl	sp,#2
   00BB 7E                  193 	ld	a,(hl)
   00BC 23                  194 	inc	hl
   00BD 66                  195 	ld	h,(hl)
   00BE 6F                  196 	ld	l,a
   00BF E5                  197 	push	hl
   00C0 F8 02               198 	ldhl	sp,#2
   00C2 7E                  199 	ld	a,(hl)
   00C3 23                  200 	inc	hl
   00C4 66                  201 	ld	h,(hl)
   00C5 6F                  202 	ld	l,a
   00C6 E5                  203 	push	hl
   00C7 CDr00s00            204 	call	_atanf
   00CA E8 04               205 	lda	sp,4(sp)
   00CC E5                  206 	push	hl
   00CD F8 0A               207 	ldhl	sp,#10
   00CF 73                  208 	ld	(hl),e
   00D0 23                  209 	inc	hl
   00D1 72                  210 	ld	(hl),d
   00D2 D1                  211 	pop	de
   00D3 23                  212 	inc	hl
   00D4 73                  213 	ld	(hl),e
   00D5 23                  214 	inc	hl
   00D6 72                  215 	ld	(hl),d
                            216 ;../atan2f.c:47: if(y<0.0) r+=(x>=0?PI:-PI);
   00D7 21 00 00            217 	ld	hl,#0x0000
   00DA E5                  218 	push	hl
   00DB 21 00 00            219 	ld	hl,#0x0000
   00DE E5                  220 	push	hl
   00DF F8 18               221 	ldhl	sp,#24
   00E1 7E                  222 	ld	a,(hl)
   00E2 23                  223 	inc	hl
   00E3 66                  224 	ld	h,(hl)
   00E4 6F                  225 	ld	l,a
   00E5 E5                  226 	push	hl
   00E6 F8 18               227 	ldhl	sp,#24
   00E8 7E                  228 	ld	a,(hl)
   00E9 23                  229 	inc	hl
   00EA 66                  230 	ld	h,(hl)
   00EB 6F                  231 	ld	l,a
   00EC E5                  232 	push	hl
   00ED CDr00s00            233 	call	___fslt
   00F0 E8 08               234 	lda	sp,8(sp)
   00F2 4B                  235 	ld	c,e
   00F3 AF                  236 	xor	a,a
   00F4 B1                  237 	or	a,c
   00F5 CAr6As02            238 	jp	Z,00108$
   00F8 21 00 00            239 	ld	hl,#0x0000
   00FB E5                  240 	push	hl
   00FC 21 00 00            241 	ld	hl,#0x0000
   00FF E5                  242 	push	hl
   0100 F8 14               243 	ldhl	sp,#20
   0102 7E                  244 	ld	a,(hl)
   0103 23                  245 	inc	hl
   0104 66                  246 	ld	h,(hl)
   0105 6F                  247 	ld	l,a
   0106 E5                  248 	push	hl
   0107 F8 14               249 	ldhl	sp,#20
   0109 7E                  250 	ld	a,(hl)
   010A 23                  251 	inc	hl
   010B 66                  252 	ld	h,(hl)
   010C 6F                  253 	ld	l,a
   010D E5                  254 	push	hl
   010E CDr00s00            255 	call	___fslt
   0111 E8 08               256 	lda	sp,8(sp)
   0113 4B                  257 	ld	c,e
   0114 AF                  258 	xor	a,a
   0115 B1                  259 	or	a,c
   0116 D6 01               260 	sub	a,#0x01
   0118 3E 00               261 	ld	a,#0x00
   011A 17                  262 	rla
   011B 4F                  263 	ld	c,a
   011C B7                  264 	or	a,a
   011D CAr2Fs01            265 	jp	Z,00111$
   0120 F8 00               266 	ldhl	sp,#0
   0122 36 DB               267 	ld	(hl),#0xDB
   0124 23                  268 	inc	hl
   0125 36 0F               269 	ld	(hl),#0x0F
   0127 23                  270 	inc	hl
   0128 36 49               271 	ld	(hl),#0x49
   012A 23                  272 	inc	hl
   012B 36 40               273 	ld	(hl),#0x40
   012D 18 0D               274 	jr	00112$
   012F                     275 00111$:
   012F F8 00               276 	ldhl	sp,#0
   0131 36 DB               277 	ld	(hl),#0xDB
   0133 23                  278 	inc	hl
   0134 36 0F               279 	ld	(hl),#0x0F
   0136 23                  280 	inc	hl
   0137 36 49               281 	ld	(hl),#0x49
   0139 23                  282 	inc	hl
   013A 36 C0               283 	ld	(hl),#0xC0
   013C                     284 00112$:
   013C F8 02               285 	ldhl	sp,#2
   013E 7E                  286 	ld	a,(hl)
   013F 23                  287 	inc	hl
   0140 66                  288 	ld	h,(hl)
   0141 6F                  289 	ld	l,a
   0142 E5                  290 	push	hl
   0143 F8 02               291 	ldhl	sp,#2
   0145 7E                  292 	ld	a,(hl)
   0146 23                  293 	inc	hl
   0147 66                  294 	ld	h,(hl)
   0148 6F                  295 	ld	l,a
   0149 E5                  296 	push	hl
   014A F8 0E               297 	ldhl	sp,#14
   014C 7E                  298 	ld	a,(hl)
   014D 23                  299 	inc	hl
   014E 66                  300 	ld	h,(hl)
   014F 6F                  301 	ld	l,a
   0150 E5                  302 	push	hl
   0151 F8 0E               303 	ldhl	sp,#14
   0153 7E                  304 	ld	a,(hl)
   0154 23                  305 	inc	hl
   0155 66                  306 	ld	h,(hl)
   0156 6F                  307 	ld	l,a
   0157 E5                  308 	push	hl
   0158 CDr00s00            309 	call	___fsadd
   015B E8 08               310 	lda	sp,8(sp)
   015D E5                  311 	push	hl
   015E F8 02               312 	ldhl	sp,#2
   0160 73                  313 	ld	(hl),e
   0161 23                  314 	inc	hl
   0162 72                  315 	ld	(hl),d
   0163 D1                  316 	pop	de
   0164 23                  317 	inc	hl
   0165 73                  318 	ld	(hl),e
   0166 23                  319 	inc	hl
   0167 72                  320 	ld	(hl),d
   0168 F8 00               321 	ldhl	sp,#0
   016A 54                  322 	ld	d,h
   016B 5D                  323 	ld	e,l
   016C F8 08               324 	ldhl	sp,#8
   016E 1A                  325 	ld	a,(de)
   016F 77                  326 	ld	(hl),a
   0170 23                  327 	inc	hl
   0171 13                  328 	inc	de
   0172 1A                  329 	ld	a,(de)
   0173 77                  330 	ld	(hl),a
   0174 23                  331 	inc	hl
   0175 13                  332 	inc	de
   0176 1A                  333 	ld	a,(de)
   0177 77                  334 	ld	(hl),a
   0178 23                  335 	inc	hl
   0179 13                  336 	inc	de
   017A 1A                  337 	ld	a,(de)
   017B 77                  338 	ld	(hl),a
   017C C3r6As02            339 	jp	00108$
   017F                     340 00107$:
                            341 ;../atan2f.c:51: r=-atanf(y/x);
   017F F8 10               342 	ldhl	sp,#16
   0181 7E                  343 	ld	a,(hl)
   0182 23                  344 	inc	hl
   0183 66                  345 	ld	h,(hl)
   0184 6F                  346 	ld	l,a
   0185 E5                  347 	push	hl
   0186 F8 10               348 	ldhl	sp,#16
   0188 7E                  349 	ld	a,(hl)
   0189 23                  350 	inc	hl
   018A 66                  351 	ld	h,(hl)
   018B 6F                  352 	ld	l,a
   018C E5                  353 	push	hl
   018D F8 18               354 	ldhl	sp,#24
   018F 7E                  355 	ld	a,(hl)
   0190 23                  356 	inc	hl
   0191 66                  357 	ld	h,(hl)
   0192 6F                  358 	ld	l,a
   0193 E5                  359 	push	hl
   0194 F8 18               360 	ldhl	sp,#24
   0196 7E                  361 	ld	a,(hl)
   0197 23                  362 	inc	hl
   0198 66                  363 	ld	h,(hl)
   0199 6F                  364 	ld	l,a
   019A E5                  365 	push	hl
   019B CDr00s00            366 	call	___fsdiv
   019E E8 08               367 	lda	sp,8(sp)
   01A0 E5                  368 	push	hl
   01A1 F8 02               369 	ldhl	sp,#2
   01A3 73                  370 	ld	(hl),e
   01A4 23                  371 	inc	hl
   01A5 72                  372 	ld	(hl),d
   01A6 D1                  373 	pop	de
   01A7 23                  374 	inc	hl
   01A8 73                  375 	ld	(hl),e
   01A9 23                  376 	inc	hl
   01AA 72                  377 	ld	(hl),d
   01AB F8 02               378 	ldhl	sp,#2
   01AD 7E                  379 	ld	a,(hl)
   01AE 23                  380 	inc	hl
   01AF 66                  381 	ld	h,(hl)
   01B0 6F                  382 	ld	l,a
   01B1 E5                  383 	push	hl
   01B2 F8 02               384 	ldhl	sp,#2
   01B4 7E                  385 	ld	a,(hl)
   01B5 23                  386 	inc	hl
   01B6 66                  387 	ld	h,(hl)
   01B7 6F                  388 	ld	l,a
   01B8 E5                  389 	push	hl
   01B9 CDr00s00            390 	call	_atanf
   01BC E8 04               391 	lda	sp,4(sp)
   01BE E5                  392 	push	hl
   01BF F8 02               393 	ldhl	sp,#2
   01C1 73                  394 	ld	(hl),e
   01C2 23                  395 	inc	hl
   01C3 72                  396 	ld	(hl),d
   01C4 D1                  397 	pop	de
   01C5 23                  398 	inc	hl
   01C6 73                  399 	ld	(hl),e
   01C7 23                  400 	inc	hl
   01C8 72                  401 	ld	(hl),d
   01C9 F8 03               402 	ldhl	sp,#3
   01CB 7E                  403 	ld	a,(hl)
   01CC EE 80               404 	xor	a,#0x80
   01CE 77                  405 	ld	(hl),a
   01CF F8 00               406 	ldhl	sp,#0
   01D1 7E                  407 	ld	a,(hl)
   01D2 77                  408 	ld	(hl),a
   01D3 23                  409 	inc	hl
   01D4 7E                  410 	ld	a,(hl)
   01D5 77                  411 	ld	(hl),a
   01D6 23                  412 	inc	hl
   01D7 7E                  413 	ld	a,(hl)
   01D8 77                  414 	ld	(hl),a
   01D9 2B                  415 	dec	hl
   01DA 2B                  416 	dec	hl
   01DB 54                  417 	ld	d,h
   01DC 5D                  418 	ld	e,l
   01DD F8 08               419 	ldhl	sp,#8
   01DF 1A                  420 	ld	a,(de)
   01E0 77                  421 	ld	(hl),a
   01E1 23                  422 	inc	hl
   01E2 13                  423 	inc	de
   01E3 1A                  424 	ld	a,(de)
   01E4 77                  425 	ld	(hl),a
   01E5 23                  426 	inc	hl
   01E6 13                  427 	inc	de
   01E7 1A                  428 	ld	a,(de)
   01E8 77                  429 	ld	(hl),a
   01E9 23                  430 	inc	hl
   01EA 13                  431 	inc	de
   01EB 1A                  432 	ld	a,(de)
   01EC 77                  433 	ld	(hl),a
                            434 ;../atan2f.c:52: r+=(x<0.0?-HALF_PI:HALF_PI);
   01ED 21 00 00            435 	ld	hl,#0x0000
   01F0 E5                  436 	push	hl
   01F1 21 00 00            437 	ld	hl,#0x0000
   01F4 E5                  438 	push	hl
   01F5 F8 14               439 	ldhl	sp,#20
   01F7 7E                  440 	ld	a,(hl)
   01F8 23                  441 	inc	hl
   01F9 66                  442 	ld	h,(hl)
   01FA 6F                  443 	ld	l,a
   01FB E5                  444 	push	hl
   01FC F8 14               445 	ldhl	sp,#20
   01FE 7E                  446 	ld	a,(hl)
   01FF 23                  447 	inc	hl
   0200 66                  448 	ld	h,(hl)
   0201 6F                  449 	ld	l,a
   0202 E5                  450 	push	hl
   0203 CDr00s00            451 	call	___fslt
   0206 E8 08               452 	lda	sp,8(sp)
   0208 4B                  453 	ld	c,e
   0209 AF                  454 	xor	a,a
   020A B1                  455 	or	a,c
   020B CAr1Ds02            456 	jp	Z,00113$
   020E F8 00               457 	ldhl	sp,#0
   0210 36 DB               458 	ld	(hl),#0xDB
   0212 23                  459 	inc	hl
   0213 36 0F               460 	ld	(hl),#0x0F
   0215 23                  461 	inc	hl
   0216 36 C9               462 	ld	(hl),#0xC9
   0218 23                  463 	inc	hl
   0219 36 BF               464 	ld	(hl),#0xBF
   021B 18 0D               465 	jr	00114$
   021D                     466 00113$:
   021D F8 00               467 	ldhl	sp,#0
   021F 36 DB               468 	ld	(hl),#0xDB
   0221 23                  469 	inc	hl
   0222 36 0F               470 	ld	(hl),#0x0F
   0224 23                  471 	inc	hl
   0225 36 C9               472 	ld	(hl),#0xC9
   0227 23                  473 	inc	hl
   0228 36 3F               474 	ld	(hl),#0x3F
   022A                     475 00114$:
   022A F8 02               476 	ldhl	sp,#2
   022C 7E                  477 	ld	a,(hl)
   022D 23                  478 	inc	hl
   022E 66                  479 	ld	h,(hl)
   022F 6F                  480 	ld	l,a
   0230 E5                  481 	push	hl
   0231 F8 02               482 	ldhl	sp,#2
   0233 7E                  483 	ld	a,(hl)
   0234 23                  484 	inc	hl
   0235 66                  485 	ld	h,(hl)
   0236 6F                  486 	ld	l,a
   0237 E5                  487 	push	hl
   0238 F8 0E               488 	ldhl	sp,#14
   023A 7E                  489 	ld	a,(hl)
   023B 23                  490 	inc	hl
   023C 66                  491 	ld	h,(hl)
   023D 6F                  492 	ld	l,a
   023E E5                  493 	push	hl
   023F F8 0E               494 	ldhl	sp,#14
   0241 7E                  495 	ld	a,(hl)
   0242 23                  496 	inc	hl
   0243 66                  497 	ld	h,(hl)
   0244 6F                  498 	ld	l,a
   0245 E5                  499 	push	hl
   0246 CDr00s00            500 	call	___fsadd
   0249 E8 08               501 	lda	sp,8(sp)
   024B E5                  502 	push	hl
   024C F8 02               503 	ldhl	sp,#2
   024E 73                  504 	ld	(hl),e
   024F 23                  505 	inc	hl
   0250 72                  506 	ld	(hl),d
   0251 D1                  507 	pop	de
   0252 23                  508 	inc	hl
   0253 73                  509 	ld	(hl),e
   0254 23                  510 	inc	hl
   0255 72                  511 	ld	(hl),d
   0256 F8 00               512 	ldhl	sp,#0
   0258 54                  513 	ld	d,h
   0259 5D                  514 	ld	e,l
   025A F8 08               515 	ldhl	sp,#8
   025C 1A                  516 	ld	a,(de)
   025D 77                  517 	ld	(hl),a
   025E 23                  518 	inc	hl
   025F 13                  519 	inc	de
   0260 1A                  520 	ld	a,(de)
   0261 77                  521 	ld	(hl),a
   0262 23                  522 	inc	hl
   0263 13                  523 	inc	de
   0264 1A                  524 	ld	a,(de)
   0265 77                  525 	ld	(hl),a
   0266 23                  526 	inc	hl
   0267 13                  527 	inc	de
   0268 1A                  528 	ld	a,(de)
   0269 77                  529 	ld	(hl),a
   026A                     530 00108$:
                            531 ;../atan2f.c:54: return r;
   026A F8 09               532 	ldhl	sp,#9
   026C 2B                  533 	dec	hl
   026D 5E                  534 	ld	e,(hl)
   026E 23                  535 	inc	hl
   026F 56                  536 	ld	d,(hl)
   0270 23                  537 	inc	hl
   0271 7E                  538 	ld	a,(hl)
   0272 23                  539 	inc	hl
   0273 66                  540 	ld	h,(hl)
   0274 6F                  541 	ld	l,a
   0275                     542 00109$:
   0275 E8 0C               543 	lda	sp,12(sp)
   0277 C9                  544 	ret
   0278                     545 _atan2f_end::
                            546 	.area _CODE
                            547 	.area _CABS
