                              1 ;--------------------------------------------------------
                              2 ; File Created by SDCC : free open source ANSI-C Compiler
                              3 ; Version 3.0.1 #6227 (Oct  2 2015) (Linux)
                              4 ; This file was generated Fri Oct  2 17:18:19 2015
                              5 ;--------------------------------------------------------
                              6 	.module ceilf
                              7 	.optsdcc -mgbz80
                              8 	
                              9 ;--------------------------------------------------------
                             10 ; Public variables in this module
                             11 ;--------------------------------------------------------
                             12 	.globl _ceilf
                             13 ;--------------------------------------------------------
                             14 ;  ram data
                             15 ;--------------------------------------------------------
                             16 	.area _DATA
                             17 ;--------------------------------------------------------
                             18 ; overlayable items in  ram 
                             19 ;--------------------------------------------------------
                             20 	.area _OVERLAY
                             21 ;--------------------------------------------------------
                             22 ; external initialized ram data
                             23 ;--------------------------------------------------------
                             24 ;--------------------------------------------------------
                             25 ; global & static initialisations
                             26 ;--------------------------------------------------------
                             27 	.area _HOME
                             28 	.area _GSINIT
                             29 	.area _GSFINAL
                             30 	.area _GSINIT
                             31 ;--------------------------------------------------------
                             32 ; Home
                             33 ;--------------------------------------------------------
                             34 	.area _HOME
                             35 	.area _HOME
                             36 ;--------------------------------------------------------
                             37 ; code
                             38 ;--------------------------------------------------------
                             39 	.area _CODE
                             40 ;../ceilf.c:33: float ceilf(float x) _FLOAT_FUNC_REENTRANT
                             41 ;	---------------------------------
                             42 ; Function ceilf
                             43 ; ---------------------------------
   0000                      44 _ceilf_start::
   0000                      45 _ceilf:
   0000 E8 F8                46 	lda	sp,-8(sp)
                             47 ;../ceilf.c:36: r=x;
   0002 F8 0C                48 	ldhl	sp,#12
   0004 7E                   49 	ld	a,(hl)
   0005 23                   50 	inc	hl
   0006 66                   51 	ld	h,(hl)
   0007 6F                   52 	ld	l,a
   0008 E5                   53 	push	hl
   0009 F8 0C                54 	ldhl	sp,#12
   000B 7E                   55 	ld	a,(hl)
   000C 23                   56 	inc	hl
   000D 66                   57 	ld	h,(hl)
   000E 6F                   58 	ld	l,a
   000F E5                   59 	push	hl
   0010 CDr00s00             60 	call	___fs2slong
   0013 E8 04                61 	lda	sp,4(sp)
   0015 E5                   62 	push	hl
   0016 F8 06                63 	ldhl	sp,#6
   0018 73                   64 	ld	(hl),e
   0019 23                   65 	inc	hl
   001A 72                   66 	ld	(hl),d
   001B D1                   67 	pop	de
   001C 23                   68 	inc	hl
   001D 73                   69 	ld	(hl),e
   001E 23                   70 	inc	hl
   001F 72                   71 	ld	(hl),d
                             72 ;../ceilf.c:37: if (r<0)
   0020 F8 04                73 	ldhl	sp,#4
   0022 7E                   74 	ld	a, (hl)
   0023 D6 00                75 	sub	a, #0x00
   0025 23                   76 	inc	hl
   0026 7E                   77 	ld	a, (hl)
   0027 DE 00                78 	sbc	a, #0x00
   0029 23                   79 	inc	hl
   002A 7E                   80 	ld	a, (hl)
   002B DE 00                81 	sbc	a, #0x00
   002D 23                   82 	inc	hl
   002E 7E                   83 	ld	a, (hl)
   002F DE 00                84 	sbc	a, #0x00
   0031 56                   85 	ld	d, (hl)
   0032 3E 00                86 	ld	a, #0x00
   0034 5F                   87 	ld	e, a
   0035 CB 7B                88 	bit	7, e
   0037 CAr42s00             89 	jp	Z, 00110$
   003A CB 7A                90 	bit	7, d
   003C C2r48s00             91 	jp	NZ, 00111$
   003F BF                   92 	cp	a, a
   0040 18 06                93 	jr	00111$
   0042                      94 00110$:
   0042 CB 7A                95 	bit	7, d
   0044 CAr48s00             96 	jp	Z, 00111$
   0047 37                   97 	scf
   0048                      98 00111$:
   0048 D2r77s00             99 	jp	NC,00102$
                            100 ;../ceilf.c:38: return r;
   004B F8 06               101 	ldhl	sp,#6
   004D 7E                  102 	ld	a,(hl)
   004E 23                  103 	inc	hl
   004F 66                  104 	ld	h,(hl)
   0050 6F                  105 	ld	l,a
   0051 E5                  106 	push	hl
   0052 F8 06               107 	ldhl	sp,#6
   0054 7E                  108 	ld	a,(hl)
   0055 23                  109 	inc	hl
   0056 66                  110 	ld	h,(hl)
   0057 6F                  111 	ld	l,a
   0058 E5                  112 	push	hl
   0059 CDr00s00            113 	call	___slong2fs
   005C E8 04               114 	lda	sp,4(sp)
   005E E5                  115 	push	hl
   005F F8 02               116 	ldhl	sp,#2
   0061 73                  117 	ld	(hl),e
   0062 23                  118 	inc	hl
   0063 72                  119 	ld	(hl),d
   0064 D1                  120 	pop	de
   0065 23                  121 	inc	hl
   0066 73                  122 	ld	(hl),e
   0067 23                  123 	inc	hl
   0068 72                  124 	ld	(hl),d
   0069 F8 01               125 	ldhl	sp,#1
   006B 2B                  126 	dec	hl
   006C 5E                  127 	ld	e,(hl)
   006D 23                  128 	inc	hl
   006E 56                  129 	ld	d,(hl)
   006F 23                  130 	inc	hl
   0070 7E                  131 	ld	a,(hl)
   0071 23                  132 	inc	hl
   0072 66                  133 	ld	h,(hl)
   0073 6F                  134 	ld	l,a
   0074 C3r1Bs01            135 	jp	00104$
   0077                     136 00102$:
                            137 ;../ceilf.c:40: return (r+((r<x)?1:0));
   0077 F8 06               138 	ldhl	sp,#6
   0079 7E                  139 	ld	a,(hl)
   007A 23                  140 	inc	hl
   007B 66                  141 	ld	h,(hl)
   007C 6F                  142 	ld	l,a
   007D E5                  143 	push	hl
   007E F8 06               144 	ldhl	sp,#6
   0080 7E                  145 	ld	a,(hl)
   0081 23                  146 	inc	hl
   0082 66                  147 	ld	h,(hl)
   0083 6F                  148 	ld	l,a
   0084 E5                  149 	push	hl
   0085 CDr00s00            150 	call	___slong2fs
   0088 E8 04               151 	lda	sp,4(sp)
   008A E5                  152 	push	hl
   008B F8 02               153 	ldhl	sp,#2
   008D 73                  154 	ld	(hl),e
   008E 23                  155 	inc	hl
   008F 72                  156 	ld	(hl),d
   0090 D1                  157 	pop	de
   0091 23                  158 	inc	hl
   0092 73                  159 	ld	(hl),e
   0093 23                  160 	inc	hl
   0094 72                  161 	ld	(hl),d
   0095 F8 0C               162 	ldhl	sp,#12
   0097 7E                  163 	ld	a,(hl)
   0098 23                  164 	inc	hl
   0099 66                  165 	ld	h,(hl)
   009A 6F                  166 	ld	l,a
   009B E5                  167 	push	hl
   009C F8 0C               168 	ldhl	sp,#12
   009E 7E                  169 	ld	a,(hl)
   009F 23                  170 	inc	hl
   00A0 66                  171 	ld	h,(hl)
   00A1 6F                  172 	ld	l,a
   00A2 E5                  173 	push	hl
   00A3 F8 06               174 	ldhl	sp,#6
   00A5 7E                  175 	ld	a,(hl)
   00A6 23                  176 	inc	hl
   00A7 66                  177 	ld	h,(hl)
   00A8 6F                  178 	ld	l,a
   00A9 E5                  179 	push	hl
   00AA F8 06               180 	ldhl	sp,#6
   00AC 7E                  181 	ld	a,(hl)
   00AD 23                  182 	inc	hl
   00AE 66                  183 	ld	h,(hl)
   00AF 6F                  184 	ld	l,a
   00B0 E5                  185 	push	hl
   00B1 CDr00s00            186 	call	___fslt
   00B4 E8 08               187 	lda	sp,8(sp)
   00B6 4B                  188 	ld	c,e
   00B7 AF                  189 	xor	a,a
   00B8 B1                  190 	or	a,c
   00B9 CArC0s00            191 	jp	Z,00106$
   00BC 0E 01               192 	ld	c,#0x01
   00BE 18 02               193 	jr	00107$
   00C0                     194 00106$:
   00C0 0E 00               195 	ld	c,#0x00
   00C2                     196 00107$:
   00C2 06 00               197 	ld	b,#0x00
   00C4 F8 00               198 	ldhl	sp,#0
   00C6 71                  199 	ld	(hl),c
   00C7 23                  200 	inc	hl
   00C8 70                  201 	ld	(hl),b
   00C9 78                  202 	ld	a,b
   00CA 17                  203 	rla	
   00CB 9F                  204 	sbc	a,a
   00CC 23                  205 	inc	hl
   00CD 77                  206 	ld	(hl),a
   00CE 23                  207 	inc	hl
   00CF 77                  208 	ld	(hl),a
   00D0 23                  209 	inc	hl
   00D1 23                  210 	inc	hl
   00D2 2B                  211 	dec	hl
   00D3 5E                  212 	ld	e,(hl)
   00D4 23                  213 	inc	hl
   00D5 56                  214 	ld	d,(hl)
   00D6 7B                  215 	ld	a,e
   00D7 F8 00               216 	ldhl	sp,#0
   00D9 86                  217 	add	a,(hl)
   00DA 5F                  218 	ld	e,a
   00DB 7A                  219 	ld	a,d
   00DC 23                  220 	inc	hl
   00DD 8E                  221 	adc	a,(hl)
   00DE F5                  222 	push	af
   00DF 77                  223 	ld	(hl),a
   00E0 2B                  224 	dec	hl
   00E1 73                  225 	ld	(hl),e
   00E2 F8 09               226 	ldhl	sp,#9
   00E4 2B                  227 	dec	hl
   00E5 5E                  228 	ld	e,(hl)
   00E6 23                  229 	inc	hl
   00E7 56                  230 	ld	d,(hl)
   00E8 F8 04               231 	ldhl	sp,#4
   00EA F1                  232 	pop	af
   00EB 7B                  233 	ld	a,e
   00EC 8E                  234 	adc	a,(hl)
   00ED 5F                  235 	ld	e,a
   00EE 7A                  236 	ld	a,d
   00EF 23                  237 	inc	hl
   00F0 8E                  238 	adc	a,(hl)
   00F1 77                  239 	ld	(hl),a
   00F2 2B                  240 	dec	hl
   00F3 73                  241 	ld	(hl),e
   00F4 7E                  242 	ld	a,(hl)
   00F5 23                  243 	inc	hl
   00F6 66                  244 	ld	h,(hl)
   00F7 6F                  245 	ld	l,a
   00F8 E5                  246 	push	hl
   00F9 F8 02               247 	ldhl	sp,#2
   00FB 7E                  248 	ld	a,(hl)
   00FC 23                  249 	inc	hl
   00FD 66                  250 	ld	h,(hl)
   00FE 6F                  251 	ld	l,a
   00FF E5                  252 	push	hl
   0100 CDr00s00            253 	call	___slong2fs
   0103 E8 04               254 	lda	sp,4(sp)
   0105 E5                  255 	push	hl
   0106 F8 02               256 	ldhl	sp,#2
   0108 73                  257 	ld	(hl),e
   0109 23                  258 	inc	hl
   010A 72                  259 	ld	(hl),d
   010B D1                  260 	pop	de
   010C 23                  261 	inc	hl
   010D 73                  262 	ld	(hl),e
   010E 23                  263 	inc	hl
   010F 72                  264 	ld	(hl),d
   0110 F8 01               265 	ldhl	sp,#1
   0112 2B                  266 	dec	hl
   0113 5E                  267 	ld	e,(hl)
   0114 23                  268 	inc	hl
   0115 56                  269 	ld	d,(hl)
   0116 23                  270 	inc	hl
   0117 7E                  271 	ld	a,(hl)
   0118 23                  272 	inc	hl
   0119 66                  273 	ld	h,(hl)
   011A 6F                  274 	ld	l,a
   011B                     275 00104$:
   011B E8 08               276 	lda	sp,8(sp)
   011D C9                  277 	ret
   011E                     278 _ceilf_end::
                            279 	.area _CODE
                            280 	.area _CABS
