                              1 ;--------------------------------------------------------
                              2 ; File Created by SDCC : free open source ANSI-C Compiler
                              3 ; Version 3.0.1 #6227 (Oct  2 2015) (Linux)
                              4 ; This file was generated Fri Oct  2 17:18:19 2015
                              5 ;--------------------------------------------------------
                              6 	.module expf
                              7 	.optsdcc -mgbz80
                              8 	
                              9 ;--------------------------------------------------------
                             10 ; Public variables in this module
                             11 ;--------------------------------------------------------
                             12 	.globl _expf
                             13 ;--------------------------------------------------------
                             14 ;  ram data
                             15 ;--------------------------------------------------------
                             16 	.area _DATA
                             17 ;--------------------------------------------------------
                             18 ; overlayable items in  ram 
                             19 ;--------------------------------------------------------
                             20 	.area _OVERLAY
                             21 ;--------------------------------------------------------
                             22 ; external initialized ram data
                             23 ;--------------------------------------------------------
                             24 ;--------------------------------------------------------
                             25 ; global & static initialisations
                             26 ;--------------------------------------------------------
                             27 	.area _HOME
                             28 	.area _GSINIT
                             29 	.area _GSFINAL
                             30 	.area _GSINIT
                             31 ;--------------------------------------------------------
                             32 ; Home
                             33 ;--------------------------------------------------------
                             34 	.area _HOME
                             35 	.area _HOME
                             36 ;--------------------------------------------------------
                             37 ; code
                             38 ;--------------------------------------------------------
                             39 	.area _CODE
                             40 ;../expf.c:332: float expf(const float x)
                             41 ;	---------------------------------
                             42 ; Function expf
                             43 ; ---------------------------------
   0000                      44 _expf_start::
   0000                      45 _expf:
   0000 E8 E1                46 	lda	sp,-31(sp)
                             47 ;../expf.c:338: if(x>=0.0)
   0002 21 00 00             48 	ld	hl,#0x0000
   0005 E5                   49 	push	hl
   0006 21 00 00             50 	ld	hl,#0x0000
   0009 E5                   51 	push	hl
   000A F8 27                52 	ldhl	sp,#39
   000C 7E                   53 	ld	a,(hl)
   000D 23                   54 	inc	hl
   000E 66                   55 	ld	h,(hl)
   000F 6F                   56 	ld	l,a
   0010 E5                   57 	push	hl
   0011 F8 27                58 	ldhl	sp,#39
   0013 7E                   59 	ld	a,(hl)
   0014 23                   60 	inc	hl
   0015 66                   61 	ld	h,(hl)
   0016 6F                   62 	ld	l,a
   0017 E5                   63 	push	hl
   0018 CDr00s00             64 	call	___fslt
   001B E8 08                65 	lda	sp,8(sp)
   001D 4B                   66 	ld	c,e
   001E AF                   67 	xor	a,a
   001F B1                   68 	or	a,c
   0020 C2r3Ds00             69 	jp	NZ,00102$
                             70 ;../expf.c:339: { y=x;  sign=0; }
   0023 F8 21                71 	ldhl	sp,#33
   0025 54                   72 	ld	d,h
   0026 5D                   73 	ld	e,l
   0027 F8 09                74 	ldhl	sp,#9
   0029 1A                   75 	ld	a,(de)
   002A 77                   76 	ld	(hl),a
   002B 23                   77 	inc	hl
   002C 13                   78 	inc	de
   002D 1A                   79 	ld	a,(de)
   002E 77                   80 	ld	(hl),a
   002F 23                   81 	inc	hl
   0030 13                   82 	inc	de
   0031 1A                   83 	ld	a,(de)
   0032 77                   84 	ld	(hl),a
   0033 23                   85 	inc	hl
   0034 13                   86 	inc	de
   0035 1A                   87 	ld	a,(de)
   0036 77                   88 	ld	(hl),a
   0037 F8 08                89 	ldhl	sp,#8
   0039 36 00                90 	ld	(hl),#0x00
   003B 18 32                91 	jr	00103$
   003D                      92 00102$:
                             93 ;../expf.c:341: { y=-x; sign=1; }
   003D F8 24                94 	ldhl	sp,#36
   003F 7E                   95 	ld	a,(hl)
   0040 EE 80                96 	xor	a,#0x80
   0042 F8 07                97 	ldhl	sp,#7
   0044 77                   98 	ld	(hl),a
   0045 F8 21                99 	ldhl	sp,#33
   0047 7E                  100 	ld	a,(hl)
   0048 F8 04               101 	ldhl	sp,#4
   004A 77                  102 	ld	(hl),a
   004B F8 22               103 	ldhl	sp,#34
   004D 7E                  104 	ld	a,(hl)
   004E F8 05               105 	ldhl	sp,#5
   0050 77                  106 	ld	(hl),a
   0051 F8 23               107 	ldhl	sp,#35
   0053 7E                  108 	ld	a,(hl)
   0054 F8 06               109 	ldhl	sp,#6
   0056 77                  110 	ld	(hl),a
   0057 2B                  111 	dec	hl
   0058 2B                  112 	dec	hl
   0059 54                  113 	ld	d,h
   005A 5D                  114 	ld	e,l
   005B F8 09               115 	ldhl	sp,#9
   005D 1A                  116 	ld	a,(de)
   005E 77                  117 	ld	(hl),a
   005F 23                  118 	inc	hl
   0060 13                  119 	inc	de
   0061 1A                  120 	ld	a,(de)
   0062 77                  121 	ld	(hl),a
   0063 23                  122 	inc	hl
   0064 13                  123 	inc	de
   0065 1A                  124 	ld	a,(de)
   0066 77                  125 	ld	(hl),a
   0067 23                  126 	inc	hl
   0068 13                  127 	inc	de
   0069 1A                  128 	ld	a,(de)
   006A 77                  129 	ld	(hl),a
   006B F8 08               130 	ldhl	sp,#8
   006D 36 01               131 	ld	(hl),#0x01
   006F                     132 00103$:
                            133 ;../expf.c:343: if(y<EXPEPS) return 1.0;
   006F 21 D6 33            134 	ld	hl,#0x33D6
   0072 E5                  135 	push	hl
   0073 21 95 BF            136 	ld	hl,#0xBF95
   0076 E5                  137 	push	hl
   0077 F8 0F               138 	ldhl	sp,#15
   0079 7E                  139 	ld	a,(hl)
   007A 23                  140 	inc	hl
   007B 66                  141 	ld	h,(hl)
   007C 6F                  142 	ld	l,a
   007D E5                  143 	push	hl
   007E F8 0F               144 	ldhl	sp,#15
   0080 7E                  145 	ld	a,(hl)
   0081 23                  146 	inc	hl
   0082 66                  147 	ld	h,(hl)
   0083 6F                  148 	ld	l,a
   0084 E5                  149 	push	hl
   0085 CDr00s00            150 	call	___fslt
   0088 E8 08               151 	lda	sp,8(sp)
   008A 43                  152 	ld	b,e
   008B AF                  153 	xor	a,a
   008C B0                  154 	or	a,b
   008D CAr99s00            155 	jp	Z,00105$
   0090 11 00 00            156 	ld	de,#0x0000
   0093 21 80 3F            157 	ld	hl,#0x3F80
   0096 C3r8As04            158 	jp	00118$
   0099                     159 00105$:
                            160 ;../expf.c:345: if(y>BIGX)
   0099 21 B1 42            161 	ld	hl,#0x42B1
   009C E5                  162 	push	hl
   009D 21 18 72            163 	ld	hl,#0x7218
   00A0 E5                  164 	push	hl
   00A1 F8 0F               165 	ldhl	sp,#15
   00A3 7E                  166 	ld	a,(hl)
   00A4 23                  167 	inc	hl
   00A5 66                  168 	ld	h,(hl)
   00A6 6F                  169 	ld	l,a
   00A7 E5                  170 	push	hl
   00A8 F8 0F               171 	ldhl	sp,#15
   00AA 7E                  172 	ld	a,(hl)
   00AB 23                  173 	inc	hl
   00AC 66                  174 	ld	h,(hl)
   00AD 6F                  175 	ld	l,a
   00AE E5                  176 	push	hl
   00AF CDr00s00            177 	call	___fsgt
   00B2 E8 08               178 	lda	sp,8(sp)
   00B4 43                  179 	ld	b,e
   00B5 AF                  180 	xor	a,a
   00B6 B0                  181 	or	a,b
   00B7 CArDBs00            182 	jp	Z,00110$
                            183 ;../expf.c:347: if(sign)
   00BA F8 08               184 	ldhl	sp,#8
   00BC CB 46               185 	bit	0,(hl)
   00BE CArD2s00            186 	jp	Z,00107$
                            187 ;../expf.c:349: errno=ERANGE;
   00C1 21r00s00            188 	ld	hl,#_errno
   00C4 36 22               189 	ld	(hl),#0x22
   00C6 23                  190 	inc	hl
   00C7 36 00               191 	ld	(hl),#0x00
                            192 ;../expf.c:351: ;
   00C9 11 FF FF            193 	ld	de,#0xFFFF
   00CC 21 7F 7F            194 	ld	hl,#0x7F7F
   00CF C3r8As04            195 	jp	00118$
   00D2                     196 00107$:
                            197 ;../expf.c:355: return 0.0;
   00D2 11 00 00            198 	ld	de,#0x0000
   00D5 21 00 00            199 	ld	hl,#0x0000
   00D8 C3r8As04            200 	jp	00118$
   00DB                     201 00110$:
                            202 ;../expf.c:359: z=y*K1;
   00DB F8 0B               203 	ldhl	sp,#11
   00DD 7E                  204 	ld	a,(hl)
   00DE 23                  205 	inc	hl
   00DF 66                  206 	ld	h,(hl)
   00E0 6F                  207 	ld	l,a
   00E1 E5                  208 	push	hl
   00E2 F8 0B               209 	ldhl	sp,#11
   00E4 7E                  210 	ld	a,(hl)
   00E5 23                  211 	inc	hl
   00E6 66                  212 	ld	h,(hl)
   00E7 6F                  213 	ld	l,a
   00E8 E5                  214 	push	hl
   00E9 21 B8 3F            215 	ld	hl,#0x3FB8
   00EC E5                  216 	push	hl
   00ED 21 3B AA            217 	ld	hl,#0xAA3B
   00F0 E5                  218 	push	hl
   00F1 CDr00s00            219 	call	___fsmul
   00F4 E8 08               220 	lda	sp,8(sp)
   00F6 E5                  221 	push	hl
   00F7 F8 0F               222 	ldhl	sp,#15
   00F9 73                  223 	ld	(hl),e
   00FA 23                  224 	inc	hl
   00FB 72                  225 	ld	(hl),d
   00FC D1                  226 	pop	de
   00FD 23                  227 	inc	hl
   00FE 73                  228 	ld	(hl),e
   00FF 23                  229 	inc	hl
   0100 72                  230 	ld	(hl),d
                            231 ;../expf.c:360: n=z;
   0101 F8 0F               232 	ldhl	sp,#15
   0103 7E                  233 	ld	a,(hl)
   0104 23                  234 	inc	hl
   0105 66                  235 	ld	h,(hl)
   0106 6F                  236 	ld	l,a
   0107 E5                  237 	push	hl
   0108 F8 0F               238 	ldhl	sp,#15
   010A 7E                  239 	ld	a,(hl)
   010B 23                  240 	inc	hl
   010C 66                  241 	ld	h,(hl)
   010D 6F                  242 	ld	l,a
   010E E5                  243 	push	hl
   010F CDr00s00            244 	call	___fs2sint
   0112 E8 04               245 	lda	sp,4(sp)
   0114 42                  246 	ld	b,d
   0115 4B                  247 	ld	c,e
   0116 F8 1D               248 	ldhl	sp,#29
   0118 71                  249 	ld	(hl),c
   0119 23                  250 	inc	hl
   011A 70                  251 	ld	(hl),b
                            252 ;../expf.c:362: if(n<0) --n;
   011B 2B                  253 	dec	hl
   011C 7E                  254 	ld	a, (hl)
   011D D6 00               255 	sub	a, #0x00
   011F 23                  256 	inc	hl
   0120 7E                  257 	ld	a, (hl)
   0121 DE 00               258 	sbc	a, #0x00
   0123 56                  259 	ld	d, (hl)
   0124 3E 00               260 	ld	a, #0x00
   0126 5F                  261 	ld	e, a
   0127 CB 7B               262 	bit	7, e
   0129 CAr34s01            263 	jp	Z, 00127$
   012C CB 7A               264 	bit	7, d
   012E C2r3As01            265 	jp	NZ, 00128$
   0131 BF                  266 	cp	a, a
   0132 18 06               267 	jr	00128$
   0134                     268 00127$:
   0134 CB 7A               269 	bit	7, d
   0136 CAr3As01            270 	jp	Z, 00128$
   0139 37                  271 	scf
   013A                     272 00128$:
   013A D2r48s01            273 	jp	NC,00112$
   013D F8 1E               274 	ldhl	sp,#30
   013F 2B                  275 	dec	hl
   0140 5E                  276 	ld	e,(hl)
   0141 23                  277 	inc	hl
   0142 56                  278 	ld	d,(hl)
   0143 1B                  279 	dec	de
   0144 2B                  280 	dec	hl
   0145 73                  281 	ld	(hl),e
   0146 23                  282 	inc	hl
   0147 72                  283 	ld	(hl),d
   0148                     284 00112$:
                            285 ;../expf.c:363: if(z-n>=0.5) ++n;
   0148 F8 1D               286 	ldhl	sp,#29
   014A 7E                  287 	ld	a,(hl)
   014B 23                  288 	inc	hl
   014C 66                  289 	ld	h,(hl)
   014D 6F                  290 	ld	l,a
   014E E5                  291 	push	hl
   014F CDr00s00            292 	call	___sint2fs
   0152 E8 02               293 	lda	sp,2(sp)
   0154 E5                  294 	push	hl
   0155 F8 06               295 	ldhl	sp,#6
   0157 73                  296 	ld	(hl),e
   0158 23                  297 	inc	hl
   0159 72                  298 	ld	(hl),d
   015A D1                  299 	pop	de
   015B 23                  300 	inc	hl
   015C 73                  301 	ld	(hl),e
   015D 23                  302 	inc	hl
   015E 72                  303 	ld	(hl),d
   015F F8 06               304 	ldhl	sp,#6
   0161 7E                  305 	ld	a,(hl)
   0162 23                  306 	inc	hl
   0163 66                  307 	ld	h,(hl)
   0164 6F                  308 	ld	l,a
   0165 E5                  309 	push	hl
   0166 F8 06               310 	ldhl	sp,#6
   0168 7E                  311 	ld	a,(hl)
   0169 23                  312 	inc	hl
   016A 66                  313 	ld	h,(hl)
   016B 6F                  314 	ld	l,a
   016C E5                  315 	push	hl
   016D F8 13               316 	ldhl	sp,#19
   016F 7E                  317 	ld	a,(hl)
   0170 23                  318 	inc	hl
   0171 66                  319 	ld	h,(hl)
   0172 6F                  320 	ld	l,a
   0173 E5                  321 	push	hl
   0174 F8 13               322 	ldhl	sp,#19
   0176 7E                  323 	ld	a,(hl)
   0177 23                  324 	inc	hl
   0178 66                  325 	ld	h,(hl)
   0179 6F                  326 	ld	l,a
   017A E5                  327 	push	hl
   017B CDr00s00            328 	call	___fssub
   017E E8 08               329 	lda	sp,8(sp)
   0180 E5                  330 	push	hl
   0181 F8 06               331 	ldhl	sp,#6
   0183 73                  332 	ld	(hl),e
   0184 23                  333 	inc	hl
   0185 72                  334 	ld	(hl),d
   0186 D1                  335 	pop	de
   0187 23                  336 	inc	hl
   0188 73                  337 	ld	(hl),e
   0189 23                  338 	inc	hl
   018A 72                  339 	ld	(hl),d
   018B 21 00 3F            340 	ld	hl,#0x3F00
   018E E5                  341 	push	hl
   018F 21 00 00            342 	ld	hl,#0x0000
   0192 E5                  343 	push	hl
   0193 F8 0A               344 	ldhl	sp,#10
   0195 7E                  345 	ld	a,(hl)
   0196 23                  346 	inc	hl
   0197 66                  347 	ld	h,(hl)
   0198 6F                  348 	ld	l,a
   0199 E5                  349 	push	hl
   019A F8 0A               350 	ldhl	sp,#10
   019C 7E                  351 	ld	a,(hl)
   019D 23                  352 	inc	hl
   019E 66                  353 	ld	h,(hl)
   019F 6F                  354 	ld	l,a
   01A0 E5                  355 	push	hl
   01A1 CDr00s00            356 	call	___fslt
   01A4 E8 08               357 	lda	sp,8(sp)
   01A6 4B                  358 	ld	c,e
   01A7 AF                  359 	xor	a,a
   01A8 B1                  360 	or	a,c
   01A9 C2rB4s01            361 	jp	NZ,00114$
   01AC F8 1D               362 	ldhl	sp,#29
   01AE 34                  363 	inc	(hl)
   01AF C2rB4s01            364 	jp	NZ,00129$
   01B2 23                  365 	inc	hl
   01B3 34                  366 	inc	(hl)
   01B4                     367 00129$:
   01B4                     368 00114$:
                            369 ;../expf.c:364: xn=n;
   01B4 F8 1D               370 	ldhl	sp,#29
   01B6 7E                  371 	ld	a,(hl)
   01B7 23                  372 	inc	hl
   01B8 66                  373 	ld	h,(hl)
   01B9 6F                  374 	ld	l,a
   01BA E5                  375 	push	hl
   01BB CDr00s00            376 	call	___sint2fs
   01BE E8 02               377 	lda	sp,2(sp)
   01C0 E5                  378 	push	hl
   01C1 F8 1B               379 	ldhl	sp,#27
   01C3 73                  380 	ld	(hl),e
   01C4 23                  381 	inc	hl
   01C5 72                  382 	ld	(hl),d
   01C6 D1                  383 	pop	de
   01C7 23                  384 	inc	hl
   01C8 73                  385 	ld	(hl),e
   01C9 23                  386 	inc	hl
   01CA 72                  387 	ld	(hl),d
                            388 ;../expf.c:365: g=((y-xn*C1))-xn*C2;
   01CB F8 1B               389 	ldhl	sp,#27
   01CD 7E                  390 	ld	a,(hl)
   01CE 23                  391 	inc	hl
   01CF 66                  392 	ld	h,(hl)
   01D0 6F                  393 	ld	l,a
   01D1 E5                  394 	push	hl
   01D2 F8 1B               395 	ldhl	sp,#27
   01D4 7E                  396 	ld	a,(hl)
   01D5 23                  397 	inc	hl
   01D6 66                  398 	ld	h,(hl)
   01D7 6F                  399 	ld	l,a
   01D8 E5                  400 	push	hl
   01D9 21 31 3F            401 	ld	hl,#0x3F31
   01DC E5                  402 	push	hl
   01DD 21 00 80            403 	ld	hl,#0x8000
   01E0 E5                  404 	push	hl
   01E1 CDr00s00            405 	call	___fsmul
   01E4 E8 08               406 	lda	sp,8(sp)
   01E6 E5                  407 	push	hl
   01E7 F8 06               408 	ldhl	sp,#6
   01E9 73                  409 	ld	(hl),e
   01EA 23                  410 	inc	hl
   01EB 72                  411 	ld	(hl),d
   01EC D1                  412 	pop	de
   01ED 23                  413 	inc	hl
   01EE 73                  414 	ld	(hl),e
   01EF 23                  415 	inc	hl
   01F0 72                  416 	ld	(hl),d
   01F1 F8 06               417 	ldhl	sp,#6
   01F3 7E                  418 	ld	a,(hl)
   01F4 23                  419 	inc	hl
   01F5 66                  420 	ld	h,(hl)
   01F6 6F                  421 	ld	l,a
   01F7 E5                  422 	push	hl
   01F8 F8 06               423 	ldhl	sp,#6
   01FA 7E                  424 	ld	a,(hl)
   01FB 23                  425 	inc	hl
   01FC 66                  426 	ld	h,(hl)
   01FD 6F                  427 	ld	l,a
   01FE E5                  428 	push	hl
   01FF F8 0F               429 	ldhl	sp,#15
   0201 7E                  430 	ld	a,(hl)
   0202 23                  431 	inc	hl
   0203 66                  432 	ld	h,(hl)
   0204 6F                  433 	ld	l,a
   0205 E5                  434 	push	hl
   0206 F8 0F               435 	ldhl	sp,#15
   0208 7E                  436 	ld	a,(hl)
   0209 23                  437 	inc	hl
   020A 66                  438 	ld	h,(hl)
   020B 6F                  439 	ld	l,a
   020C E5                  440 	push	hl
   020D CDr00s00            441 	call	___fssub
   0210 E8 08               442 	lda	sp,8(sp)
   0212 E5                  443 	push	hl
   0213 F8 06               444 	ldhl	sp,#6
   0215 73                  445 	ld	(hl),e
   0216 23                  446 	inc	hl
   0217 72                  447 	ld	(hl),d
   0218 D1                  448 	pop	de
   0219 23                  449 	inc	hl
   021A 73                  450 	ld	(hl),e
   021B 23                  451 	inc	hl
   021C 72                  452 	ld	(hl),d
   021D F8 1B               453 	ldhl	sp,#27
   021F 7E                  454 	ld	a,(hl)
   0220 23                  455 	inc	hl
   0221 66                  456 	ld	h,(hl)
   0222 6F                  457 	ld	l,a
   0223 E5                  458 	push	hl
   0224 F8 1B               459 	ldhl	sp,#27
   0226 7E                  460 	ld	a,(hl)
   0227 23                  461 	inc	hl
   0228 66                  462 	ld	h,(hl)
   0229 6F                  463 	ld	l,a
   022A E5                  464 	push	hl
   022B 21 5E B9            465 	ld	hl,#0xB95E
   022E E5                  466 	push	hl
   022F 21 83 80            467 	ld	hl,#0x8083
   0232 E5                  468 	push	hl
   0233 CDr00s00            469 	call	___fsmul
   0236 E8 08               470 	lda	sp,8(sp)
   0238 E5                  471 	push	hl
   0239 F8 02               472 	ldhl	sp,#2
   023B 73                  473 	ld	(hl),e
   023C 23                  474 	inc	hl
   023D 72                  475 	ld	(hl),d
   023E D1                  476 	pop	de
   023F 23                  477 	inc	hl
   0240 73                  478 	ld	(hl),e
   0241 23                  479 	inc	hl
   0242 72                  480 	ld	(hl),d
   0243 F8 02               481 	ldhl	sp,#2
   0245 7E                  482 	ld	a,(hl)
   0246 23                  483 	inc	hl
   0247 66                  484 	ld	h,(hl)
   0248 6F                  485 	ld	l,a
   0249 E5                  486 	push	hl
   024A F8 02               487 	ldhl	sp,#2
   024C 7E                  488 	ld	a,(hl)
   024D 23                  489 	inc	hl
   024E 66                  490 	ld	h,(hl)
   024F 6F                  491 	ld	l,a
   0250 E5                  492 	push	hl
   0251 F8 0A               493 	ldhl	sp,#10
   0253 7E                  494 	ld	a,(hl)
   0254 23                  495 	inc	hl
   0255 66                  496 	ld	h,(hl)
   0256 6F                  497 	ld	l,a
   0257 E5                  498 	push	hl
   0258 F8 0A               499 	ldhl	sp,#10
   025A 7E                  500 	ld	a,(hl)
   025B 23                  501 	inc	hl
   025C 66                  502 	ld	h,(hl)
   025D 6F                  503 	ld	l,a
   025E E5                  504 	push	hl
   025F CDr00s00            505 	call	___fssub
   0262 E8 08               506 	lda	sp,8(sp)
   0264 E5                  507 	push	hl
   0265 F8 17               508 	ldhl	sp,#23
   0267 73                  509 	ld	(hl),e
   0268 23                  510 	inc	hl
   0269 72                  511 	ld	(hl),d
   026A D1                  512 	pop	de
   026B 23                  513 	inc	hl
   026C 73                  514 	ld	(hl),e
   026D 23                  515 	inc	hl
   026E 72                  516 	ld	(hl),d
                            517 ;../expf.c:366: z=g*g;
   026F F8 17               518 	ldhl	sp,#23
   0271 7E                  519 	ld	a,(hl)
   0272 23                  520 	inc	hl
   0273 66                  521 	ld	h,(hl)
   0274 6F                  522 	ld	l,a
   0275 E5                  523 	push	hl
   0276 F8 17               524 	ldhl	sp,#23
   0278 7E                  525 	ld	a,(hl)
   0279 23                  526 	inc	hl
   027A 66                  527 	ld	h,(hl)
   027B 6F                  528 	ld	l,a
   027C E5                  529 	push	hl
   027D F8 1B               530 	ldhl	sp,#27
   027F 7E                  531 	ld	a,(hl)
   0280 23                  532 	inc	hl
   0281 66                  533 	ld	h,(hl)
   0282 6F                  534 	ld	l,a
   0283 E5                  535 	push	hl
   0284 F8 1B               536 	ldhl	sp,#27
   0286 7E                  537 	ld	a,(hl)
   0287 23                  538 	inc	hl
   0288 66                  539 	ld	h,(hl)
   0289 6F                  540 	ld	l,a
   028A E5                  541 	push	hl
   028B CDr00s00            542 	call	___fsmul
   028E E8 08               543 	lda	sp,8(sp)
   0290 E5                  544 	push	hl
   0291 F8 02               545 	ldhl	sp,#2
   0293 73                  546 	ld	(hl),e
   0294 23                  547 	inc	hl
   0295 72                  548 	ld	(hl),d
   0296 D1                  549 	pop	de
   0297 23                  550 	inc	hl
   0298 73                  551 	ld	(hl),e
   0299 23                  552 	inc	hl
   029A 72                  553 	ld	(hl),d
   029B F8 00               554 	ldhl	sp,#0
   029D 54                  555 	ld	d,h
   029E 5D                  556 	ld	e,l
   029F F8 0D               557 	ldhl	sp,#13
   02A1 1A                  558 	ld	a,(de)
   02A2 77                  559 	ld	(hl),a
   02A3 23                  560 	inc	hl
   02A4 13                  561 	inc	de
   02A5 1A                  562 	ld	a,(de)
   02A6 77                  563 	ld	(hl),a
   02A7 23                  564 	inc	hl
   02A8 13                  565 	inc	de
   02A9 1A                  566 	ld	a,(de)
   02AA 77                  567 	ld	(hl),a
   02AB 23                  568 	inc	hl
   02AC 13                  569 	inc	de
   02AD 1A                  570 	ld	a,(de)
   02AE 77                  571 	ld	(hl),a
                            572 ;../expf.c:367: r=P(z)*g;
   02AF F8 0F               573 	ldhl	sp,#15
   02B1 7E                  574 	ld	a,(hl)
   02B2 23                  575 	inc	hl
   02B3 66                  576 	ld	h,(hl)
   02B4 6F                  577 	ld	l,a
   02B5 E5                  578 	push	hl
   02B6 F8 0F               579 	ldhl	sp,#15
   02B8 7E                  580 	ld	a,(hl)
   02B9 23                  581 	inc	hl
   02BA 66                  582 	ld	h,(hl)
   02BB 6F                  583 	ld	l,a
   02BC E5                  584 	push	hl
   02BD 21 88 3B            585 	ld	hl,#0x3B88
   02C0 E5                  586 	push	hl
   02C1 21 08 53            587 	ld	hl,#0x5308
   02C4 E5                  588 	push	hl
   02C5 CDr00s00            589 	call	___fsmul
   02C8 E8 08               590 	lda	sp,8(sp)
   02CA E5                  591 	push	hl
   02CB F8 02               592 	ldhl	sp,#2
   02CD 73                  593 	ld	(hl),e
   02CE 23                  594 	inc	hl
   02CF 72                  595 	ld	(hl),d
   02D0 D1                  596 	pop	de
   02D1 23                  597 	inc	hl
   02D2 73                  598 	ld	(hl),e
   02D3 23                  599 	inc	hl
   02D4 72                  600 	ld	(hl),d
   02D5 21 80 3E            601 	ld	hl,#0x3E80
   02D8 E5                  602 	push	hl
   02D9 21 00 00            603 	ld	hl,#0x0000
   02DC E5                  604 	push	hl
   02DD F8 06               605 	ldhl	sp,#6
   02DF 7E                  606 	ld	a,(hl)
   02E0 23                  607 	inc	hl
   02E1 66                  608 	ld	h,(hl)
   02E2 6F                  609 	ld	l,a
   02E3 E5                  610 	push	hl
   02E4 F8 06               611 	ldhl	sp,#6
   02E6 7E                  612 	ld	a,(hl)
   02E7 23                  613 	inc	hl
   02E8 66                  614 	ld	h,(hl)
   02E9 6F                  615 	ld	l,a
   02EA E5                  616 	push	hl
   02EB CDr00s00            617 	call	___fsadd
   02EE E8 08               618 	lda	sp,8(sp)
   02F0 E5                  619 	push	hl
   02F1 F8 02               620 	ldhl	sp,#2
   02F3 73                  621 	ld	(hl),e
   02F4 23                  622 	inc	hl
   02F5 72                  623 	ld	(hl),d
   02F6 D1                  624 	pop	de
   02F7 23                  625 	inc	hl
   02F8 73                  626 	ld	(hl),e
   02F9 23                  627 	inc	hl
   02FA 72                  628 	ld	(hl),d
   02FB F8 17               629 	ldhl	sp,#23
   02FD 7E                  630 	ld	a,(hl)
   02FE 23                  631 	inc	hl
   02FF 66                  632 	ld	h,(hl)
   0300 6F                  633 	ld	l,a
   0301 E5                  634 	push	hl
   0302 F8 17               635 	ldhl	sp,#23
   0304 7E                  636 	ld	a,(hl)
   0305 23                  637 	inc	hl
   0306 66                  638 	ld	h,(hl)
   0307 6F                  639 	ld	l,a
   0308 E5                  640 	push	hl
   0309 F8 06               641 	ldhl	sp,#6
   030B 7E                  642 	ld	a,(hl)
   030C 23                  643 	inc	hl
   030D 66                  644 	ld	h,(hl)
   030E 6F                  645 	ld	l,a
   030F E5                  646 	push	hl
   0310 F8 06               647 	ldhl	sp,#6
   0312 7E                  648 	ld	a,(hl)
   0313 23                  649 	inc	hl
   0314 66                  650 	ld	h,(hl)
   0315 6F                  651 	ld	l,a
   0316 E5                  652 	push	hl
   0317 CDr00s00            653 	call	___fsmul
   031A E8 08               654 	lda	sp,8(sp)
   031C E5                  655 	push	hl
   031D F8 13               656 	ldhl	sp,#19
   031F 73                  657 	ld	(hl),e
   0320 23                  658 	inc	hl
   0321 72                  659 	ld	(hl),d
   0322 D1                  660 	pop	de
   0323 23                  661 	inc	hl
   0324 73                  662 	ld	(hl),e
   0325 23                  663 	inc	hl
   0326 72                  664 	ld	(hl),d
                            665 ;../expf.c:368: r=0.5+(r/(Q(z)-r));
   0327 F8 0F               666 	ldhl	sp,#15
   0329 7E                  667 	ld	a,(hl)
   032A 23                  668 	inc	hl
   032B 66                  669 	ld	h,(hl)
   032C 6F                  670 	ld	l,a
   032D E5                  671 	push	hl
   032E F8 0F               672 	ldhl	sp,#15
   0330 7E                  673 	ld	a,(hl)
   0331 23                  674 	inc	hl
   0332 66                  675 	ld	h,(hl)
   0333 6F                  676 	ld	l,a
   0334 E5                  677 	push	hl
   0335 21 4C 3D            678 	ld	hl,#0x3D4C
   0338 E5                  679 	push	hl
   0339 21 5B BF            680 	ld	hl,#0xBF5B
   033C E5                  681 	push	hl
   033D CDr00s00            682 	call	___fsmul
   0340 E8 08               683 	lda	sp,8(sp)
   0342 E5                  684 	push	hl
   0343 F8 02               685 	ldhl	sp,#2
   0345 73                  686 	ld	(hl),e
   0346 23                  687 	inc	hl
   0347 72                  688 	ld	(hl),d
   0348 D1                  689 	pop	de
   0349 23                  690 	inc	hl
   034A 73                  691 	ld	(hl),e
   034B 23                  692 	inc	hl
   034C 72                  693 	ld	(hl),d
   034D 21 00 3F            694 	ld	hl,#0x3F00
   0350 E5                  695 	push	hl
   0351 21 00 00            696 	ld	hl,#0x0000
   0354 E5                  697 	push	hl
   0355 F8 06               698 	ldhl	sp,#6
   0357 7E                  699 	ld	a,(hl)
   0358 23                  700 	inc	hl
   0359 66                  701 	ld	h,(hl)
   035A 6F                  702 	ld	l,a
   035B E5                  703 	push	hl
   035C F8 06               704 	ldhl	sp,#6
   035E 7E                  705 	ld	a,(hl)
   035F 23                  706 	inc	hl
   0360 66                  707 	ld	h,(hl)
   0361 6F                  708 	ld	l,a
   0362 E5                  709 	push	hl
   0363 CDr00s00            710 	call	___fsadd
   0366 E8 08               711 	lda	sp,8(sp)
   0368 E5                  712 	push	hl
   0369 F8 02               713 	ldhl	sp,#2
   036B 73                  714 	ld	(hl),e
   036C 23                  715 	inc	hl
   036D 72                  716 	ld	(hl),d
   036E D1                  717 	pop	de
   036F 23                  718 	inc	hl
   0370 73                  719 	ld	(hl),e
   0371 23                  720 	inc	hl
   0372 72                  721 	ld	(hl),d
   0373 F8 13               722 	ldhl	sp,#19
   0375 7E                  723 	ld	a,(hl)
   0376 23                  724 	inc	hl
   0377 66                  725 	ld	h,(hl)
   0378 6F                  726 	ld	l,a
   0379 E5                  727 	push	hl
   037A F8 13               728 	ldhl	sp,#19
   037C 7E                  729 	ld	a,(hl)
   037D 23                  730 	inc	hl
   037E 66                  731 	ld	h,(hl)
   037F 6F                  732 	ld	l,a
   0380 E5                  733 	push	hl
   0381 F8 06               734 	ldhl	sp,#6
   0383 7E                  735 	ld	a,(hl)
   0384 23                  736 	inc	hl
   0385 66                  737 	ld	h,(hl)
   0386 6F                  738 	ld	l,a
   0387 E5                  739 	push	hl
   0388 F8 06               740 	ldhl	sp,#6
   038A 7E                  741 	ld	a,(hl)
   038B 23                  742 	inc	hl
   038C 66                  743 	ld	h,(hl)
   038D 6F                  744 	ld	l,a
   038E E5                  745 	push	hl
   038F CDr00s00            746 	call	___fssub
   0392 E8 08               747 	lda	sp,8(sp)
   0394 E5                  748 	push	hl
   0395 F8 02               749 	ldhl	sp,#2
   0397 73                  750 	ld	(hl),e
   0398 23                  751 	inc	hl
   0399 72                  752 	ld	(hl),d
   039A D1                  753 	pop	de
   039B 23                  754 	inc	hl
   039C 73                  755 	ld	(hl),e
   039D 23                  756 	inc	hl
   039E 72                  757 	ld	(hl),d
   039F F8 02               758 	ldhl	sp,#2
   03A1 7E                  759 	ld	a,(hl)
   03A2 23                  760 	inc	hl
   03A3 66                  761 	ld	h,(hl)
   03A4 6F                  762 	ld	l,a
   03A5 E5                  763 	push	hl
   03A6 F8 02               764 	ldhl	sp,#2
   03A8 7E                  765 	ld	a,(hl)
   03A9 23                  766 	inc	hl
   03AA 66                  767 	ld	h,(hl)
   03AB 6F                  768 	ld	l,a
   03AC E5                  769 	push	hl
   03AD F8 17               770 	ldhl	sp,#23
   03AF 7E                  771 	ld	a,(hl)
   03B0 23                  772 	inc	hl
   03B1 66                  773 	ld	h,(hl)
   03B2 6F                  774 	ld	l,a
   03B3 E5                  775 	push	hl
   03B4 F8 17               776 	ldhl	sp,#23
   03B6 7E                  777 	ld	a,(hl)
   03B7 23                  778 	inc	hl
   03B8 66                  779 	ld	h,(hl)
   03B9 6F                  780 	ld	l,a
   03BA E5                  781 	push	hl
   03BB CDr00s00            782 	call	___fsdiv
   03BE E8 08               783 	lda	sp,8(sp)
   03C0 E5                  784 	push	hl
   03C1 F8 02               785 	ldhl	sp,#2
   03C3 73                  786 	ld	(hl),e
   03C4 23                  787 	inc	hl
   03C5 72                  788 	ld	(hl),d
   03C6 D1                  789 	pop	de
   03C7 23                  790 	inc	hl
   03C8 73                  791 	ld	(hl),e
   03C9 23                  792 	inc	hl
   03CA 72                  793 	ld	(hl),d
   03CB 21 00 3F            794 	ld	hl,#0x3F00
   03CE E5                  795 	push	hl
   03CF 21 00 00            796 	ld	hl,#0x0000
   03D2 E5                  797 	push	hl
   03D3 F8 06               798 	ldhl	sp,#6
   03D5 7E                  799 	ld	a,(hl)
   03D6 23                  800 	inc	hl
   03D7 66                  801 	ld	h,(hl)
   03D8 6F                  802 	ld	l,a
   03D9 E5                  803 	push	hl
   03DA F8 06               804 	ldhl	sp,#6
   03DC 7E                  805 	ld	a,(hl)
   03DD 23                  806 	inc	hl
   03DE 66                  807 	ld	h,(hl)
   03DF 6F                  808 	ld	l,a
   03E0 E5                  809 	push	hl
   03E1 CDr00s00            810 	call	___fsadd
   03E4 E8 08               811 	lda	sp,8(sp)
   03E6 E5                  812 	push	hl
   03E7 F8 02               813 	ldhl	sp,#2
   03E9 73                  814 	ld	(hl),e
   03EA 23                  815 	inc	hl
   03EB 72                  816 	ld	(hl),d
   03EC D1                  817 	pop	de
   03ED 23                  818 	inc	hl
   03EE 73                  819 	ld	(hl),e
   03EF 23                  820 	inc	hl
   03F0 72                  821 	ld	(hl),d
   03F1 F8 00               822 	ldhl	sp,#0
   03F3 54                  823 	ld	d,h
   03F4 5D                  824 	ld	e,l
   03F5 F8 11               825 	ldhl	sp,#17
   03F7 1A                  826 	ld	a,(de)
   03F8 77                  827 	ld	(hl),a
   03F9 23                  828 	inc	hl
   03FA 13                  829 	inc	de
   03FB 1A                  830 	ld	a,(de)
   03FC 77                  831 	ld	(hl),a
   03FD 23                  832 	inc	hl
   03FE 13                  833 	inc	de
   03FF 1A                  834 	ld	a,(de)
   0400 77                  835 	ld	(hl),a
   0401 23                  836 	inc	hl
   0402 13                  837 	inc	de
   0403 1A                  838 	ld	a,(de)
   0404 77                  839 	ld	(hl),a
                            840 ;../expf.c:370: n++;
   0405 F8 1D               841 	ldhl	sp,#29
   0407 34                  842 	inc	(hl)
   0408 C2r0Ds04            843 	jp	NZ,00130$
   040B 23                  844 	inc	hl
   040C 34                  845 	inc	(hl)
   040D                     846 00130$:
                            847 ;../expf.c:371: z=ldexpf(r, n);
   040D 2B                  848 	dec	hl
   040E 7E                  849 	ld	a,(hl)
   040F 23                  850 	inc	hl
   0410 66                  851 	ld	h,(hl)
   0411 6F                  852 	ld	l,a
   0412 E5                  853 	push	hl
   0413 F8 15               854 	ldhl	sp,#21
   0415 7E                  855 	ld	a,(hl)
   0416 23                  856 	inc	hl
   0417 66                  857 	ld	h,(hl)
   0418 6F                  858 	ld	l,a
   0419 E5                  859 	push	hl
   041A F8 15               860 	ldhl	sp,#21
   041C 7E                  861 	ld	a,(hl)
   041D 23                  862 	inc	hl
   041E 66                  863 	ld	h,(hl)
   041F 6F                  864 	ld	l,a
   0420 E5                  865 	push	hl
   0421 CDr00s00            866 	call	_ldexpf
   0424 E8 06               867 	lda	sp,6(sp)
   0426 E5                  868 	push	hl
   0427 F8 02               869 	ldhl	sp,#2
   0429 73                  870 	ld	(hl),e
   042A 23                  871 	inc	hl
   042B 72                  872 	ld	(hl),d
   042C D1                  873 	pop	de
   042D 23                  874 	inc	hl
   042E 73                  875 	ld	(hl),e
   042F 23                  876 	inc	hl
   0430 72                  877 	ld	(hl),d
   0431 F8 00               878 	ldhl	sp,#0
   0433 54                  879 	ld	d,h
   0434 5D                  880 	ld	e,l
   0435 F8 0D               881 	ldhl	sp,#13
   0437 1A                  882 	ld	a,(de)
   0438 77                  883 	ld	(hl),a
   0439 23                  884 	inc	hl
   043A 13                  885 	inc	de
   043B 1A                  886 	ld	a,(de)
   043C 77                  887 	ld	(hl),a
   043D 23                  888 	inc	hl
   043E 13                  889 	inc	de
   043F 1A                  890 	ld	a,(de)
   0440 77                  891 	ld	(hl),a
   0441 23                  892 	inc	hl
   0442 13                  893 	inc	de
   0443 1A                  894 	ld	a,(de)
   0444 77                  895 	ld	(hl),a
                            896 ;../expf.c:372: if(sign)
   0445 F8 08               897 	ldhl	sp,#8
   0447 CB 46               898 	bit	0,(hl)
   0449 CAr7Fs04            899 	jp	Z,00116$
                            900 ;../expf.c:373: return 1.0/z;
   044C F8 0F               901 	ldhl	sp,#15
   044E 7E                  902 	ld	a,(hl)
   044F 23                  903 	inc	hl
   0450 66                  904 	ld	h,(hl)
   0451 6F                  905 	ld	l,a
   0452 E5                  906 	push	hl
   0453 F8 0F               907 	ldhl	sp,#15
   0455 7E                  908 	ld	a,(hl)
   0456 23                  909 	inc	hl
   0457 66                  910 	ld	h,(hl)
   0458 6F                  911 	ld	l,a
   0459 E5                  912 	push	hl
   045A 21 80 3F            913 	ld	hl,#0x3F80
   045D E5                  914 	push	hl
   045E 21 00 00            915 	ld	hl,#0x0000
   0461 E5                  916 	push	hl
   0462 CDr00s00            917 	call	___fsdiv
   0465 E8 08               918 	lda	sp,8(sp)
   0467 E5                  919 	push	hl
   0468 F8 02               920 	ldhl	sp,#2
   046A 73                  921 	ld	(hl),e
   046B 23                  922 	inc	hl
   046C 72                  923 	ld	(hl),d
   046D D1                  924 	pop	de
   046E 23                  925 	inc	hl
   046F 73                  926 	ld	(hl),e
   0470 23                  927 	inc	hl
   0471 72                  928 	ld	(hl),d
   0472 F8 01               929 	ldhl	sp,#1
   0474 2B                  930 	dec	hl
   0475 5E                  931 	ld	e,(hl)
   0476 23                  932 	inc	hl
   0477 56                  933 	ld	d,(hl)
   0478 23                  934 	inc	hl
   0479 7E                  935 	ld	a,(hl)
   047A 23                  936 	inc	hl
   047B 66                  937 	ld	h,(hl)
   047C 6F                  938 	ld	l,a
   047D 18 0B               939 	jr	00118$
   047F                     940 00116$:
                            941 ;../expf.c:375: return z;
   047F F8 0E               942 	ldhl	sp,#14
   0481 2B                  943 	dec	hl
   0482 5E                  944 	ld	e,(hl)
   0483 23                  945 	inc	hl
   0484 56                  946 	ld	d,(hl)
   0485 23                  947 	inc	hl
   0486 7E                  948 	ld	a,(hl)
   0487 23                  949 	inc	hl
   0488 66                  950 	ld	h,(hl)
   0489 6F                  951 	ld	l,a
   048A                     952 00118$:
   048A E8 1F               953 	lda	sp,31(sp)
   048C C9                  954 	ret
   048D                     955 _expf_end::
                            956 	.area _CODE
                            957 	.area _CABS
