;--------------------------------------------------------
; File Created by SDCC : free open source ANSI-C Compiler
; Version 3.0.1 #6227 (Oct  2 2015) (Linux)
; This file was generated Fri Oct  2 17:18:19 2015
;--------------------------------------------------------
	.module logf
	.optsdcc -mgbz80
	
;--------------------------------------------------------
; Public variables in this module
;--------------------------------------------------------
	.globl _logf
;--------------------------------------------------------
;  ram data
;--------------------------------------------------------
	.area _DATA
;--------------------------------------------------------
; overlayable items in  ram 
;--------------------------------------------------------
	.area _OVERLAY
;--------------------------------------------------------
; external initialized ram data
;--------------------------------------------------------
;--------------------------------------------------------
; global & static initialisations
;--------------------------------------------------------
	.area _HOME
	.area _GSINIT
	.area _GSFINAL
	.area _GSINIT
;--------------------------------------------------------
; Home
;--------------------------------------------------------
	.area _HOME
	.area _HOME
;--------------------------------------------------------
; code
;--------------------------------------------------------
	.area _CODE
;../logf.c:216: float logf(const float x) _FLOAT_FUNC_REENTRANT
;	---------------------------------
; Function logf
; ---------------------------------
_logf_start::
_logf:
	lda	sp,-38(sp)
;../logf.c:226: if (x<=0.0)
	ld	hl,#0x0000
	push	hl
	ld	hl,#0x0000
	push	hl
	ldhl	sp,#46
	ld	a,(hl)
	inc	hl
	ld	h,(hl)
	ld	l,a
	push	hl
	ldhl	sp,#46
	ld	a,(hl)
	inc	hl
	ld	h,(hl)
	ld	l,a
	push	hl
	call	___fsgt
	lda	sp,8(sp)
	ld	c,e
	xor	a,a
	or	a,c
	jp	NZ,00102$
;../logf.c:228: errno=EDOM;
	ld	hl,#_errno
	ld	(hl),#0x21
	inc	hl
	ld	(hl),#0x00
;../logf.c:229: return 0.0;
	ld	de,#0x0000
	ld	hl,#0x0000
	jp	00106$
00102$:
;../logf.c:231: f=frexpf(x, &n);
	ldhl	sp,#8
	ld	c,l
	ld	b,h
	push	bc
	ldhl	sp,#44
	ld	a,(hl)
	inc	hl
	ld	h,(hl)
	ld	l,a
	push	hl
	ldhl	sp,#44
	ld	a,(hl)
	inc	hl
	ld	h,(hl)
	ld	l,a
	push	hl
	call	_frexpf
	lda	sp,6(sp)
	push	hl
	ldhl	sp,#32
	ld	(hl),e
	inc	hl
	ld	(hl),d
	pop	de
	inc	hl
	ld	(hl),e
	inc	hl
	ld	(hl),d
;../logf.c:232: znum=f-0.5;
	ld	hl,#0x3F00
	push	hl
	ld	hl,#0x0000
	push	hl
	ldhl	sp,#36
	ld	a,(hl)
	inc	hl
	ld	h,(hl)
	ld	l,a
	push	hl
	ldhl	sp,#36
	ld	a,(hl)
	inc	hl
	ld	h,(hl)
	ld	l,a
	push	hl
	call	___fssub
	lda	sp,8(sp)
	push	hl
	ldhl	sp,#20
	ld	(hl),e
	inc	hl
	ld	(hl),d
	pop	de
	inc	hl
	ld	(hl),e
	inc	hl
	ld	(hl),d
;../logf.c:233: if (f>C0)
	ld	hl,#0x3F35
	push	hl
	ld	hl,#0x04F3
	push	hl
	ldhl	sp,#36
	ld	a,(hl)
	inc	hl
	ld	h,(hl)
	ld	l,a
	push	hl
	ldhl	sp,#36
	ld	a,(hl)
	inc	hl
	ld	h,(hl)
	ld	l,a
	push	hl
	call	___fsgt
	lda	sp,8(sp)
	ld	c,e
	xor	a,a
	or	a,c
	jp	Z,00104$
;../logf.c:235: znum-=0.5;
	ld	hl,#0x3F00
	push	hl
	ld	hl,#0x0000
	push	hl
	ldhl	sp,#24
	ld	a,(hl)
	inc	hl
	ld	h,(hl)
	ld	l,a
	push	hl
	ldhl	sp,#24
	ld	a,(hl)
	inc	hl
	ld	h,(hl)
	ld	l,a
	push	hl
	call	___fssub
	lda	sp,8(sp)
	push	hl
	ldhl	sp,#6
	ld	(hl),e
	inc	hl
	ld	(hl),d
	pop	de
	inc	hl
	ld	(hl),e
	inc	hl
	ld	(hl),d
	ldhl	sp,#4
	ld	d,h
	ld	e,l
	ldhl	sp,#18
	ld	a,(de)
	ld	(hl),a
	inc	hl
	inc	de
	ld	a,(de)
	ld	(hl),a
	inc	hl
	inc	de
	ld	a,(de)
	ld	(hl),a
	inc	hl
	inc	de
	ld	a,(de)
	ld	(hl),a
;../logf.c:236: zden=(f*0.5)+0.5;
	ldhl	sp,#32
	ld	a,(hl)
	inc	hl
	ld	h,(hl)
	ld	l,a
	push	hl
	ldhl	sp,#32
	ld	a,(hl)
	inc	hl
	ld	h,(hl)
	ld	l,a
	push	hl
	ld	hl,#0x3F00
	push	hl
	ld	hl,#0x0000
	push	hl
	call	___fsmul
	lda	sp,8(sp)
	push	hl
	ldhl	sp,#6
	ld	(hl),e
	inc	hl
	ld	(hl),d
	pop	de
	inc	hl
	ld	(hl),e
	inc	hl
	ld	(hl),d
	ld	hl,#0x3F00
	push	hl
	ld	hl,#0x0000
	push	hl
	ldhl	sp,#10
	ld	a,(hl)
	inc	hl
	ld	h,(hl)
	ld	l,a
	push	hl
	ldhl	sp,#10
	ld	a,(hl)
	inc	hl
	ld	h,(hl)
	ld	l,a
	push	hl
	call	___fsadd
	lda	sp,8(sp)
	push	hl
	ldhl	sp,#16
	ld	(hl),e
	inc	hl
	ld	(hl),d
	pop	de
	inc	hl
	ld	(hl),e
	inc	hl
	ld	(hl),d
	ldhl	sp,#14
	ld	d,h
	ld	e,l
	ldhl	sp,#4
	ld	a,(de)
	ld	(hl),a
	inc	hl
	inc	de
	ld	a,(de)
	ld	(hl),a
	inc	hl
	inc	de
	ld	a,(de)
	ld	(hl),a
	inc	hl
	inc	de
	ld	a,(de)
	ld	(hl),a
	jp	00105$
00104$:
;../logf.c:240: n--;
	ldhl	sp,#9
	dec	hl
	ld	e,(hl)
	inc	hl
	ld	d,(hl)
	dec	de
	dec	hl
	ld	(hl),e
	inc	hl
	ld	(hl),d
;../logf.c:241: zden=znum*0.5+0.5;
	ldhl	sp,#20
	ld	a,(hl)
	inc	hl
	ld	h,(hl)
	ld	l,a
	push	hl
	ldhl	sp,#20
	ld	a,(hl)
	inc	hl
	ld	h,(hl)
	ld	l,a
	push	hl
	ld	hl,#0x3F00
	push	hl
	ld	hl,#0x0000
	push	hl
	call	___fsmul
	lda	sp,8(sp)
	push	hl
	ldhl	sp,#2
	ld	(hl),e
	inc	hl
	ld	(hl),d
	pop	de
	inc	hl
	ld	(hl),e
	inc	hl
	ld	(hl),d
	ld	hl,#0x3F00
	push	hl
	ld	hl,#0x0000
	push	hl
	ldhl	sp,#6
	ld	a,(hl)
	inc	hl
	ld	h,(hl)
	ld	l,a
	push	hl
	ldhl	sp,#6
	ld	a,(hl)
	inc	hl
	ld	h,(hl)
	ld	l,a
	push	hl
	call	___fsadd
	lda	sp,8(sp)
	push	hl
	ldhl	sp,#16
	ld	(hl),e
	inc	hl
	ld	(hl),d
	pop	de
	inc	hl
	ld	(hl),e
	inc	hl
	ld	(hl),d
	ldhl	sp,#14
	ld	d,h
	ld	e,l
	ldhl	sp,#4
	ld	a,(de)
	ld	(hl),a
	inc	hl
	inc	de
	ld	a,(de)
	ld	(hl),a
	inc	hl
	inc	de
	ld	a,(de)
	ld	(hl),a
	inc	hl
	inc	de
	ld	a,(de)
	ld	(hl),a
00105$:
;../logf.c:243: z=znum/zden;
	ldhl	sp,#6
	ld	a,(hl)
	inc	hl
	ld	h,(hl)
	ld	l,a
	push	hl
	ldhl	sp,#6
	ld	a,(hl)
	inc	hl
	ld	h,(hl)
	ld	l,a
	push	hl
	ldhl	sp,#24
	ld	a,(hl)
	inc	hl
	ld	h,(hl)
	ld	l,a
	push	hl
	ldhl	sp,#24
	ld	a,(hl)
	inc	hl
	ld	h,(hl)
	ld	l,a
	push	hl
	call	___fsdiv
	lda	sp,8(sp)
	push	hl
	ldhl	sp,#28
	ld	(hl),e
	inc	hl
	ld	(hl),d
	pop	de
	inc	hl
	ld	(hl),e
	inc	hl
	ld	(hl),d
;../logf.c:244: w=z*z;
	ldhl	sp,#28
	ld	a,(hl)
	inc	hl
	ld	h,(hl)
	ld	l,a
	push	hl
	ldhl	sp,#28
	ld	a,(hl)
	inc	hl
	ld	h,(hl)
	ld	l,a
	push	hl
	ldhl	sp,#32
	ld	a,(hl)
	inc	hl
	ld	h,(hl)
	ld	l,a
	push	hl
	ldhl	sp,#32
	ld	a,(hl)
	inc	hl
	ld	h,(hl)
	ld	l,a
	push	hl
	call	___fsmul
	lda	sp,8(sp)
	push	hl
	ldhl	sp,#24
	ld	(hl),e
	inc	hl
	ld	(hl),d
	pop	de
	inc	hl
	ld	(hl),e
	inc	hl
	ld	(hl),d
;../logf.c:246: Rz=z+z*(w*A(w)/B(w));
	ldhl	sp,#24
	ld	a,(hl)
	inc	hl
	ld	h,(hl)
	ld	l,a
	push	hl
	ldhl	sp,#24
	ld	a,(hl)
	inc	hl
	ld	h,(hl)
	ld	l,a
	push	hl
	ld	hl,#0xBF0D
	push	hl
	ld	hl,#0x7E3D
	push	hl
	call	___fsmul
	lda	sp,8(sp)
	push	hl
	ldhl	sp,#2
	ld	(hl),e
	inc	hl
	ld	(hl),d
	pop	de
	inc	hl
	ld	(hl),e
	inc	hl
	ld	(hl),d
	ld	hl,#0xC0D4
	push	hl
	ld	hl,#0x3F3A
	push	hl
	ldhl	sp,#28
	ld	a,(hl)
	inc	hl
	ld	h,(hl)
	ld	l,a
	push	hl
	ldhl	sp,#28
	ld	a,(hl)
	inc	hl
	ld	h,(hl)
	ld	l,a
	push	hl
	call	___fsadd
	lda	sp,8(sp)
	push	hl
	ldhl	sp,#6
	ld	(hl),e
	inc	hl
	ld	(hl),d
	pop	de
	inc	hl
	ld	(hl),e
	inc	hl
	ld	(hl),d
	ldhl	sp,#6
	ld	a,(hl)
	inc	hl
	ld	h,(hl)
	ld	l,a
	push	hl
	ldhl	sp,#6
	ld	a,(hl)
	inc	hl
	ld	h,(hl)
	ld	l,a
	push	hl
	ldhl	sp,#6
	ld	a,(hl)
	inc	hl
	ld	h,(hl)
	ld	l,a
	push	hl
	ldhl	sp,#6
	ld	a,(hl)
	inc	hl
	ld	h,(hl)
	ld	l,a
	push	hl
	call	___fsdiv
	lda	sp,8(sp)
	push	hl
	ldhl	sp,#2
	ld	(hl),e
	inc	hl
	ld	(hl),d
	pop	de
	inc	hl
	ld	(hl),e
	inc	hl
	ld	(hl),d
	ldhl	sp,#2
	ld	a,(hl)
	inc	hl
	ld	h,(hl)
	ld	l,a
	push	hl
	ldhl	sp,#2
	ld	a,(hl)
	inc	hl
	ld	h,(hl)
	ld	l,a
	push	hl
	ldhl	sp,#32
	ld	a,(hl)
	inc	hl
	ld	h,(hl)
	ld	l,a
	push	hl
	ldhl	sp,#32
	ld	a,(hl)
	inc	hl
	ld	h,(hl)
	ld	l,a
	push	hl
	call	___fsmul
	lda	sp,8(sp)
	push	hl
	ldhl	sp,#2
	ld	(hl),e
	inc	hl
	ld	(hl),d
	pop	de
	inc	hl
	ld	(hl),e
	inc	hl
	ld	(hl),d
	ldhl	sp,#2
	ld	a,(hl)
	inc	hl
	ld	h,(hl)
	ld	l,a
	push	hl
	ldhl	sp,#2
	ld	a,(hl)
	inc	hl
	ld	h,(hl)
	ld	l,a
	push	hl
	ldhl	sp,#32
	ld	a,(hl)
	inc	hl
	ld	h,(hl)
	ld	l,a
	push	hl
	ldhl	sp,#32
	ld	a,(hl)
	inc	hl
	ld	h,(hl)
	ld	l,a
	push	hl
	call	___fsadd
	lda	sp,8(sp)
	push	hl
	ldhl	sp,#36
	ld	(hl),e
	inc	hl
	ld	(hl),d
	pop	de
	inc	hl
	ld	(hl),e
	inc	hl
	ld	(hl),d
;../logf.c:247: xn=n;
	ldhl	sp,#8
	ld	a,(hl)
	inc	hl
	ld	h,(hl)
	ld	l,a
	push	hl
	call	___sint2fs
	lda	sp,2(sp)
	push	hl
	ldhl	sp,#12
	ld	(hl),e
	inc	hl
	ld	(hl),d
	pop	de
	inc	hl
	ld	(hl),e
	inc	hl
	ld	(hl),d
;../logf.c:248: return ((xn*C2+Rz)+xn*C1);
	ldhl	sp,#12
	ld	a,(hl)
	inc	hl
	ld	h,(hl)
	ld	l,a
	push	hl
	ldhl	sp,#12
	ld	a,(hl)
	inc	hl
	ld	h,(hl)
	ld	l,a
	push	hl
	ld	hl,#0xB95E
	push	hl
	ld	hl,#0x8083
	push	hl
	call	___fsmul
	lda	sp,8(sp)
	push	hl
	ldhl	sp,#2
	ld	(hl),e
	inc	hl
	ld	(hl),d
	pop	de
	inc	hl
	ld	(hl),e
	inc	hl
	ld	(hl),d
	ldhl	sp,#36
	ld	a,(hl)
	inc	hl
	ld	h,(hl)
	ld	l,a
	push	hl
	ldhl	sp,#36
	ld	a,(hl)
	inc	hl
	ld	h,(hl)
	ld	l,a
	push	hl
	ldhl	sp,#6
	ld	a,(hl)
	inc	hl
	ld	h,(hl)
	ld	l,a
	push	hl
	ldhl	sp,#6
	ld	a,(hl)
	inc	hl
	ld	h,(hl)
	ld	l,a
	push	hl
	call	___fsadd
	lda	sp,8(sp)
	push	hl
	ldhl	sp,#2
	ld	(hl),e
	inc	hl
	ld	(hl),d
	pop	de
	inc	hl
	ld	(hl),e
	inc	hl
	ld	(hl),d
	ldhl	sp,#12
	ld	a,(hl)
	inc	hl
	ld	h,(hl)
	ld	l,a
	push	hl
	ldhl	sp,#12
	ld	a,(hl)
	inc	hl
	ld	h,(hl)
	ld	l,a
	push	hl
	ld	hl,#0x3F31
	push	hl
	ld	hl,#0x8000
	push	hl
	call	___fsmul
	lda	sp,8(sp)
	push	hl
	ldhl	sp,#6
	ld	(hl),e
	inc	hl
	ld	(hl),d
	pop	de
	inc	hl
	ld	(hl),e
	inc	hl
	ld	(hl),d
	ldhl	sp,#6
	ld	a,(hl)
	inc	hl
	ld	h,(hl)
	ld	l,a
	push	hl
	ldhl	sp,#6
	ld	a,(hl)
	inc	hl
	ld	h,(hl)
	ld	l,a
	push	hl
	ldhl	sp,#6
	ld	a,(hl)
	inc	hl
	ld	h,(hl)
	ld	l,a
	push	hl
	ldhl	sp,#6
	ld	a,(hl)
	inc	hl
	ld	h,(hl)
	ld	l,a
	push	hl
	call	___fsadd
	lda	sp,8(sp)
	push	hl
	ldhl	sp,#2
	ld	(hl),e
	inc	hl
	ld	(hl),d
	pop	de
	inc	hl
	ld	(hl),e
	inc	hl
	ld	(hl),d
	ldhl	sp,#1
	dec	hl
	ld	e,(hl)
	inc	hl
	ld	d,(hl)
	inc	hl
	ld	a,(hl)
	inc	hl
	ld	h,(hl)
	ld	l,a
00106$:
	lda	sp,38(sp)
	ret
_logf_end::
	.area _CODE
	.area _CABS
