                              1 ;--------------------------------------------------------
                              2 ; File Created by SDCC : free open source ANSI-C Compiler
                              3 ; Version 3.0.1 #6227 (Oct  2 2015) (Linux)
                              4 ; This file was generated Fri Oct  2 17:18:19 2015
                              5 ;--------------------------------------------------------
                              6 	.module logf
                              7 	.optsdcc -mgbz80
                              8 	
                              9 ;--------------------------------------------------------
                             10 ; Public variables in this module
                             11 ;--------------------------------------------------------
                             12 	.globl _logf
                             13 ;--------------------------------------------------------
                             14 ;  ram data
                             15 ;--------------------------------------------------------
                             16 	.area _DATA
                             17 ;--------------------------------------------------------
                             18 ; overlayable items in  ram 
                             19 ;--------------------------------------------------------
                             20 	.area _OVERLAY
                             21 ;--------------------------------------------------------
                             22 ; external initialized ram data
                             23 ;--------------------------------------------------------
                             24 ;--------------------------------------------------------
                             25 ; global & static initialisations
                             26 ;--------------------------------------------------------
                             27 	.area _HOME
                             28 	.area _GSINIT
                             29 	.area _GSFINAL
                             30 	.area _GSINIT
                             31 ;--------------------------------------------------------
                             32 ; Home
                             33 ;--------------------------------------------------------
                             34 	.area _HOME
                             35 	.area _HOME
                             36 ;--------------------------------------------------------
                             37 ; code
                             38 ;--------------------------------------------------------
                             39 	.area _CODE
                             40 ;../logf.c:216: float logf(const float x) _FLOAT_FUNC_REENTRANT
                             41 ;	---------------------------------
                             42 ; Function logf
                             43 ; ---------------------------------
   0000                      44 _logf_start::
   0000                      45 _logf:
   0000 E8 DA                46 	lda	sp,-38(sp)
                             47 ;../logf.c:226: if (x<=0.0)
   0002 21 00 00             48 	ld	hl,#0x0000
   0005 E5                   49 	push	hl
   0006 21 00 00             50 	ld	hl,#0x0000
   0009 E5                   51 	push	hl
   000A F8 2E                52 	ldhl	sp,#46
   000C 7E                   53 	ld	a,(hl)
   000D 23                   54 	inc	hl
   000E 66                   55 	ld	h,(hl)
   000F 6F                   56 	ld	l,a
   0010 E5                   57 	push	hl
   0011 F8 2E                58 	ldhl	sp,#46
   0013 7E                   59 	ld	a,(hl)
   0014 23                   60 	inc	hl
   0015 66                   61 	ld	h,(hl)
   0016 6F                   62 	ld	l,a
   0017 E5                   63 	push	hl
   0018 CDr00s00             64 	call	___fsgt
   001B E8 08                65 	lda	sp,8(sp)
   001D 4B                   66 	ld	c,e
   001E AF                   67 	xor	a,a
   001F B1                   68 	or	a,c
   0020 C2r34s00             69 	jp	NZ,00102$
                             70 ;../logf.c:228: errno=EDOM;
   0023 21r00s00             71 	ld	hl,#_errno
   0026 36 21                72 	ld	(hl),#0x21
   0028 23                   73 	inc	hl
   0029 36 00                74 	ld	(hl),#0x00
                             75 ;../logf.c:229: return 0.0;
   002B 11 00 00             76 	ld	de,#0x0000
   002E 21 00 00             77 	ld	hl,#0x0000
   0031 C3r94s03             78 	jp	00106$
   0034                      79 00102$:
                             80 ;../logf.c:231: f=frexpf(x, &n);
   0034 F8 08                81 	ldhl	sp,#8
   0036 4D                   82 	ld	c,l
   0037 44                   83 	ld	b,h
   0038 C5                   84 	push	bc
   0039 F8 2C                85 	ldhl	sp,#44
   003B 7E                   86 	ld	a,(hl)
   003C 23                   87 	inc	hl
   003D 66                   88 	ld	h,(hl)
   003E 6F                   89 	ld	l,a
   003F E5                   90 	push	hl
   0040 F8 2C                91 	ldhl	sp,#44
   0042 7E                   92 	ld	a,(hl)
   0043 23                   93 	inc	hl
   0044 66                   94 	ld	h,(hl)
   0045 6F                   95 	ld	l,a
   0046 E5                   96 	push	hl
   0047 CDr00s00             97 	call	_frexpf
   004A E8 06                98 	lda	sp,6(sp)
   004C E5                   99 	push	hl
   004D F8 20               100 	ldhl	sp,#32
   004F 73                  101 	ld	(hl),e
   0050 23                  102 	inc	hl
   0051 72                  103 	ld	(hl),d
   0052 D1                  104 	pop	de
   0053 23                  105 	inc	hl
   0054 73                  106 	ld	(hl),e
   0055 23                  107 	inc	hl
   0056 72                  108 	ld	(hl),d
                            109 ;../logf.c:232: znum=f-0.5;
   0057 21 00 3F            110 	ld	hl,#0x3F00
   005A E5                  111 	push	hl
   005B 21 00 00            112 	ld	hl,#0x0000
   005E E5                  113 	push	hl
   005F F8 24               114 	ldhl	sp,#36
   0061 7E                  115 	ld	a,(hl)
   0062 23                  116 	inc	hl
   0063 66                  117 	ld	h,(hl)
   0064 6F                  118 	ld	l,a
   0065 E5                  119 	push	hl
   0066 F8 24               120 	ldhl	sp,#36
   0068 7E                  121 	ld	a,(hl)
   0069 23                  122 	inc	hl
   006A 66                  123 	ld	h,(hl)
   006B 6F                  124 	ld	l,a
   006C E5                  125 	push	hl
   006D CDr00s00            126 	call	___fssub
   0070 E8 08               127 	lda	sp,8(sp)
   0072 E5                  128 	push	hl
   0073 F8 14               129 	ldhl	sp,#20
   0075 73                  130 	ld	(hl),e
   0076 23                  131 	inc	hl
   0077 72                  132 	ld	(hl),d
   0078 D1                  133 	pop	de
   0079 23                  134 	inc	hl
   007A 73                  135 	ld	(hl),e
   007B 23                  136 	inc	hl
   007C 72                  137 	ld	(hl),d
                            138 ;../logf.c:233: if (f>C0)
   007D 21 35 3F            139 	ld	hl,#0x3F35
   0080 E5                  140 	push	hl
   0081 21 F3 04            141 	ld	hl,#0x04F3
   0084 E5                  142 	push	hl
   0085 F8 24               143 	ldhl	sp,#36
   0087 7E                  144 	ld	a,(hl)
   0088 23                  145 	inc	hl
   0089 66                  146 	ld	h,(hl)
   008A 6F                  147 	ld	l,a
   008B E5                  148 	push	hl
   008C F8 24               149 	ldhl	sp,#36
   008E 7E                  150 	ld	a,(hl)
   008F 23                  151 	inc	hl
   0090 66                  152 	ld	h,(hl)
   0091 6F                  153 	ld	l,a
   0092 E5                  154 	push	hl
   0093 CDr00s00            155 	call	___fsgt
   0096 E8 08               156 	lda	sp,8(sp)
   0098 4B                  157 	ld	c,e
   0099 AF                  158 	xor	a,a
   009A B1                  159 	or	a,c
   009B CAr3Bs01            160 	jp	Z,00104$
                            161 ;../logf.c:235: znum-=0.5;
   009E 21 00 3F            162 	ld	hl,#0x3F00
   00A1 E5                  163 	push	hl
   00A2 21 00 00            164 	ld	hl,#0x0000
   00A5 E5                  165 	push	hl
   00A6 F8 18               166 	ldhl	sp,#24
   00A8 7E                  167 	ld	a,(hl)
   00A9 23                  168 	inc	hl
   00AA 66                  169 	ld	h,(hl)
   00AB 6F                  170 	ld	l,a
   00AC E5                  171 	push	hl
   00AD F8 18               172 	ldhl	sp,#24
   00AF 7E                  173 	ld	a,(hl)
   00B0 23                  174 	inc	hl
   00B1 66                  175 	ld	h,(hl)
   00B2 6F                  176 	ld	l,a
   00B3 E5                  177 	push	hl
   00B4 CDr00s00            178 	call	___fssub
   00B7 E8 08               179 	lda	sp,8(sp)
   00B9 E5                  180 	push	hl
   00BA F8 06               181 	ldhl	sp,#6
   00BC 73                  182 	ld	(hl),e
   00BD 23                  183 	inc	hl
   00BE 72                  184 	ld	(hl),d
   00BF D1                  185 	pop	de
   00C0 23                  186 	inc	hl
   00C1 73                  187 	ld	(hl),e
   00C2 23                  188 	inc	hl
   00C3 72                  189 	ld	(hl),d
   00C4 F8 04               190 	ldhl	sp,#4
   00C6 54                  191 	ld	d,h
   00C7 5D                  192 	ld	e,l
   00C8 F8 12               193 	ldhl	sp,#18
   00CA 1A                  194 	ld	a,(de)
   00CB 77                  195 	ld	(hl),a
   00CC 23                  196 	inc	hl
   00CD 13                  197 	inc	de
   00CE 1A                  198 	ld	a,(de)
   00CF 77                  199 	ld	(hl),a
   00D0 23                  200 	inc	hl
   00D1 13                  201 	inc	de
   00D2 1A                  202 	ld	a,(de)
   00D3 77                  203 	ld	(hl),a
   00D4 23                  204 	inc	hl
   00D5 13                  205 	inc	de
   00D6 1A                  206 	ld	a,(de)
   00D7 77                  207 	ld	(hl),a
                            208 ;../logf.c:236: zden=(f*0.5)+0.5;
   00D8 F8 20               209 	ldhl	sp,#32
   00DA 7E                  210 	ld	a,(hl)
   00DB 23                  211 	inc	hl
   00DC 66                  212 	ld	h,(hl)
   00DD 6F                  213 	ld	l,a
   00DE E5                  214 	push	hl
   00DF F8 20               215 	ldhl	sp,#32
   00E1 7E                  216 	ld	a,(hl)
   00E2 23                  217 	inc	hl
   00E3 66                  218 	ld	h,(hl)
   00E4 6F                  219 	ld	l,a
   00E5 E5                  220 	push	hl
   00E6 21 00 3F            221 	ld	hl,#0x3F00
   00E9 E5                  222 	push	hl
   00EA 21 00 00            223 	ld	hl,#0x0000
   00ED E5                  224 	push	hl
   00EE CDr00s00            225 	call	___fsmul
   00F1 E8 08               226 	lda	sp,8(sp)
   00F3 E5                  227 	push	hl
   00F4 F8 06               228 	ldhl	sp,#6
   00F6 73                  229 	ld	(hl),e
   00F7 23                  230 	inc	hl
   00F8 72                  231 	ld	(hl),d
   00F9 D1                  232 	pop	de
   00FA 23                  233 	inc	hl
   00FB 73                  234 	ld	(hl),e
   00FC 23                  235 	inc	hl
   00FD 72                  236 	ld	(hl),d
   00FE 21 00 3F            237 	ld	hl,#0x3F00
   0101 E5                  238 	push	hl
   0102 21 00 00            239 	ld	hl,#0x0000
   0105 E5                  240 	push	hl
   0106 F8 0A               241 	ldhl	sp,#10
   0108 7E                  242 	ld	a,(hl)
   0109 23                  243 	inc	hl
   010A 66                  244 	ld	h,(hl)
   010B 6F                  245 	ld	l,a
   010C E5                  246 	push	hl
   010D F8 0A               247 	ldhl	sp,#10
   010F 7E                  248 	ld	a,(hl)
   0110 23                  249 	inc	hl
   0111 66                  250 	ld	h,(hl)
   0112 6F                  251 	ld	l,a
   0113 E5                  252 	push	hl
   0114 CDr00s00            253 	call	___fsadd
   0117 E8 08               254 	lda	sp,8(sp)
   0119 E5                  255 	push	hl
   011A F8 10               256 	ldhl	sp,#16
   011C 73                  257 	ld	(hl),e
   011D 23                  258 	inc	hl
   011E 72                  259 	ld	(hl),d
   011F D1                  260 	pop	de
   0120 23                  261 	inc	hl
   0121 73                  262 	ld	(hl),e
   0122 23                  263 	inc	hl
   0123 72                  264 	ld	(hl),d
   0124 F8 0E               265 	ldhl	sp,#14
   0126 54                  266 	ld	d,h
   0127 5D                  267 	ld	e,l
   0128 F8 04               268 	ldhl	sp,#4
   012A 1A                  269 	ld	a,(de)
   012B 77                  270 	ld	(hl),a
   012C 23                  271 	inc	hl
   012D 13                  272 	inc	de
   012E 1A                  273 	ld	a,(de)
   012F 77                  274 	ld	(hl),a
   0130 23                  275 	inc	hl
   0131 13                  276 	inc	de
   0132 1A                  277 	ld	a,(de)
   0133 77                  278 	ld	(hl),a
   0134 23                  279 	inc	hl
   0135 13                  280 	inc	de
   0136 1A                  281 	ld	a,(de)
   0137 77                  282 	ld	(hl),a
   0138 C3rA6s01            283 	jp	00105$
   013B                     284 00104$:
                            285 ;../logf.c:240: n--;
   013B F8 09               286 	ldhl	sp,#9
   013D 2B                  287 	dec	hl
   013E 5E                  288 	ld	e,(hl)
   013F 23                  289 	inc	hl
   0140 56                  290 	ld	d,(hl)
   0141 1B                  291 	dec	de
   0142 2B                  292 	dec	hl
   0143 73                  293 	ld	(hl),e
   0144 23                  294 	inc	hl
   0145 72                  295 	ld	(hl),d
                            296 ;../logf.c:241: zden=znum*0.5+0.5;
   0146 F8 14               297 	ldhl	sp,#20
   0148 7E                  298 	ld	a,(hl)
   0149 23                  299 	inc	hl
   014A 66                  300 	ld	h,(hl)
   014B 6F                  301 	ld	l,a
   014C E5                  302 	push	hl
   014D F8 14               303 	ldhl	sp,#20
   014F 7E                  304 	ld	a,(hl)
   0150 23                  305 	inc	hl
   0151 66                  306 	ld	h,(hl)
   0152 6F                  307 	ld	l,a
   0153 E5                  308 	push	hl
   0154 21 00 3F            309 	ld	hl,#0x3F00
   0157 E5                  310 	push	hl
   0158 21 00 00            311 	ld	hl,#0x0000
   015B E5                  312 	push	hl
   015C CDr00s00            313 	call	___fsmul
   015F E8 08               314 	lda	sp,8(sp)
   0161 E5                  315 	push	hl
   0162 F8 02               316 	ldhl	sp,#2
   0164 73                  317 	ld	(hl),e
   0165 23                  318 	inc	hl
   0166 72                  319 	ld	(hl),d
   0167 D1                  320 	pop	de
   0168 23                  321 	inc	hl
   0169 73                  322 	ld	(hl),e
   016A 23                  323 	inc	hl
   016B 72                  324 	ld	(hl),d
   016C 21 00 3F            325 	ld	hl,#0x3F00
   016F E5                  326 	push	hl
   0170 21 00 00            327 	ld	hl,#0x0000
   0173 E5                  328 	push	hl
   0174 F8 06               329 	ldhl	sp,#6
   0176 7E                  330 	ld	a,(hl)
   0177 23                  331 	inc	hl
   0178 66                  332 	ld	h,(hl)
   0179 6F                  333 	ld	l,a
   017A E5                  334 	push	hl
   017B F8 06               335 	ldhl	sp,#6
   017D 7E                  336 	ld	a,(hl)
   017E 23                  337 	inc	hl
   017F 66                  338 	ld	h,(hl)
   0180 6F                  339 	ld	l,a
   0181 E5                  340 	push	hl
   0182 CDr00s00            341 	call	___fsadd
   0185 E8 08               342 	lda	sp,8(sp)
   0187 E5                  343 	push	hl
   0188 F8 10               344 	ldhl	sp,#16
   018A 73                  345 	ld	(hl),e
   018B 23                  346 	inc	hl
   018C 72                  347 	ld	(hl),d
   018D D1                  348 	pop	de
   018E 23                  349 	inc	hl
   018F 73                  350 	ld	(hl),e
   0190 23                  351 	inc	hl
   0191 72                  352 	ld	(hl),d
   0192 F8 0E               353 	ldhl	sp,#14
   0194 54                  354 	ld	d,h
   0195 5D                  355 	ld	e,l
   0196 F8 04               356 	ldhl	sp,#4
   0198 1A                  357 	ld	a,(de)
   0199 77                  358 	ld	(hl),a
   019A 23                  359 	inc	hl
   019B 13                  360 	inc	de
   019C 1A                  361 	ld	a,(de)
   019D 77                  362 	ld	(hl),a
   019E 23                  363 	inc	hl
   019F 13                  364 	inc	de
   01A0 1A                  365 	ld	a,(de)
   01A1 77                  366 	ld	(hl),a
   01A2 23                  367 	inc	hl
   01A3 13                  368 	inc	de
   01A4 1A                  369 	ld	a,(de)
   01A5 77                  370 	ld	(hl),a
   01A6                     371 00105$:
                            372 ;../logf.c:243: z=znum/zden;
   01A6 F8 06               373 	ldhl	sp,#6
   01A8 7E                  374 	ld	a,(hl)
   01A9 23                  375 	inc	hl
   01AA 66                  376 	ld	h,(hl)
   01AB 6F                  377 	ld	l,a
   01AC E5                  378 	push	hl
   01AD F8 06               379 	ldhl	sp,#6
   01AF 7E                  380 	ld	a,(hl)
   01B0 23                  381 	inc	hl
   01B1 66                  382 	ld	h,(hl)
   01B2 6F                  383 	ld	l,a
   01B3 E5                  384 	push	hl
   01B4 F8 18               385 	ldhl	sp,#24
   01B6 7E                  386 	ld	a,(hl)
   01B7 23                  387 	inc	hl
   01B8 66                  388 	ld	h,(hl)
   01B9 6F                  389 	ld	l,a
   01BA E5                  390 	push	hl
   01BB F8 18               391 	ldhl	sp,#24
   01BD 7E                  392 	ld	a,(hl)
   01BE 23                  393 	inc	hl
   01BF 66                  394 	ld	h,(hl)
   01C0 6F                  395 	ld	l,a
   01C1 E5                  396 	push	hl
   01C2 CDr00s00            397 	call	___fsdiv
   01C5 E8 08               398 	lda	sp,8(sp)
   01C7 E5                  399 	push	hl
   01C8 F8 1C               400 	ldhl	sp,#28
   01CA 73                  401 	ld	(hl),e
   01CB 23                  402 	inc	hl
   01CC 72                  403 	ld	(hl),d
   01CD D1                  404 	pop	de
   01CE 23                  405 	inc	hl
   01CF 73                  406 	ld	(hl),e
   01D0 23                  407 	inc	hl
   01D1 72                  408 	ld	(hl),d
                            409 ;../logf.c:244: w=z*z;
   01D2 F8 1C               410 	ldhl	sp,#28
   01D4 7E                  411 	ld	a,(hl)
   01D5 23                  412 	inc	hl
   01D6 66                  413 	ld	h,(hl)
   01D7 6F                  414 	ld	l,a
   01D8 E5                  415 	push	hl
   01D9 F8 1C               416 	ldhl	sp,#28
   01DB 7E                  417 	ld	a,(hl)
   01DC 23                  418 	inc	hl
   01DD 66                  419 	ld	h,(hl)
   01DE 6F                  420 	ld	l,a
   01DF E5                  421 	push	hl
   01E0 F8 20               422 	ldhl	sp,#32
   01E2 7E                  423 	ld	a,(hl)
   01E3 23                  424 	inc	hl
   01E4 66                  425 	ld	h,(hl)
   01E5 6F                  426 	ld	l,a
   01E6 E5                  427 	push	hl
   01E7 F8 20               428 	ldhl	sp,#32
   01E9 7E                  429 	ld	a,(hl)
   01EA 23                  430 	inc	hl
   01EB 66                  431 	ld	h,(hl)
   01EC 6F                  432 	ld	l,a
   01ED E5                  433 	push	hl
   01EE CDr00s00            434 	call	___fsmul
   01F1 E8 08               435 	lda	sp,8(sp)
   01F3 E5                  436 	push	hl
   01F4 F8 18               437 	ldhl	sp,#24
   01F6 73                  438 	ld	(hl),e
   01F7 23                  439 	inc	hl
   01F8 72                  440 	ld	(hl),d
   01F9 D1                  441 	pop	de
   01FA 23                  442 	inc	hl
   01FB 73                  443 	ld	(hl),e
   01FC 23                  444 	inc	hl
   01FD 72                  445 	ld	(hl),d
                            446 ;../logf.c:246: Rz=z+z*(w*A(w)/B(w));
   01FE F8 18               447 	ldhl	sp,#24
   0200 7E                  448 	ld	a,(hl)
   0201 23                  449 	inc	hl
   0202 66                  450 	ld	h,(hl)
   0203 6F                  451 	ld	l,a
   0204 E5                  452 	push	hl
   0205 F8 18               453 	ldhl	sp,#24
   0207 7E                  454 	ld	a,(hl)
   0208 23                  455 	inc	hl
   0209 66                  456 	ld	h,(hl)
   020A 6F                  457 	ld	l,a
   020B E5                  458 	push	hl
   020C 21 0D BF            459 	ld	hl,#0xBF0D
   020F E5                  460 	push	hl
   0210 21 3D 7E            461 	ld	hl,#0x7E3D
   0213 E5                  462 	push	hl
   0214 CDr00s00            463 	call	___fsmul
   0217 E8 08               464 	lda	sp,8(sp)
   0219 E5                  465 	push	hl
   021A F8 02               466 	ldhl	sp,#2
   021C 73                  467 	ld	(hl),e
   021D 23                  468 	inc	hl
   021E 72                  469 	ld	(hl),d
   021F D1                  470 	pop	de
   0220 23                  471 	inc	hl
   0221 73                  472 	ld	(hl),e
   0222 23                  473 	inc	hl
   0223 72                  474 	ld	(hl),d
   0224 21 D4 C0            475 	ld	hl,#0xC0D4
   0227 E5                  476 	push	hl
   0228 21 3A 3F            477 	ld	hl,#0x3F3A
   022B E5                  478 	push	hl
   022C F8 1C               479 	ldhl	sp,#28
   022E 7E                  480 	ld	a,(hl)
   022F 23                  481 	inc	hl
   0230 66                  482 	ld	h,(hl)
   0231 6F                  483 	ld	l,a
   0232 E5                  484 	push	hl
   0233 F8 1C               485 	ldhl	sp,#28
   0235 7E                  486 	ld	a,(hl)
   0236 23                  487 	inc	hl
   0237 66                  488 	ld	h,(hl)
   0238 6F                  489 	ld	l,a
   0239 E5                  490 	push	hl
   023A CDr00s00            491 	call	___fsadd
   023D E8 08               492 	lda	sp,8(sp)
   023F E5                  493 	push	hl
   0240 F8 06               494 	ldhl	sp,#6
   0242 73                  495 	ld	(hl),e
   0243 23                  496 	inc	hl
   0244 72                  497 	ld	(hl),d
   0245 D1                  498 	pop	de
   0246 23                  499 	inc	hl
   0247 73                  500 	ld	(hl),e
   0248 23                  501 	inc	hl
   0249 72                  502 	ld	(hl),d
   024A F8 06               503 	ldhl	sp,#6
   024C 7E                  504 	ld	a,(hl)
   024D 23                  505 	inc	hl
   024E 66                  506 	ld	h,(hl)
   024F 6F                  507 	ld	l,a
   0250 E5                  508 	push	hl
   0251 F8 06               509 	ldhl	sp,#6
   0253 7E                  510 	ld	a,(hl)
   0254 23                  511 	inc	hl
   0255 66                  512 	ld	h,(hl)
   0256 6F                  513 	ld	l,a
   0257 E5                  514 	push	hl
   0258 F8 06               515 	ldhl	sp,#6
   025A 7E                  516 	ld	a,(hl)
   025B 23                  517 	inc	hl
   025C 66                  518 	ld	h,(hl)
   025D 6F                  519 	ld	l,a
   025E E5                  520 	push	hl
   025F F8 06               521 	ldhl	sp,#6
   0261 7E                  522 	ld	a,(hl)
   0262 23                  523 	inc	hl
   0263 66                  524 	ld	h,(hl)
   0264 6F                  525 	ld	l,a
   0265 E5                  526 	push	hl
   0266 CDr00s00            527 	call	___fsdiv
   0269 E8 08               528 	lda	sp,8(sp)
   026B E5                  529 	push	hl
   026C F8 02               530 	ldhl	sp,#2
   026E 73                  531 	ld	(hl),e
   026F 23                  532 	inc	hl
   0270 72                  533 	ld	(hl),d
   0271 D1                  534 	pop	de
   0272 23                  535 	inc	hl
   0273 73                  536 	ld	(hl),e
   0274 23                  537 	inc	hl
   0275 72                  538 	ld	(hl),d
   0276 F8 02               539 	ldhl	sp,#2
   0278 7E                  540 	ld	a,(hl)
   0279 23                  541 	inc	hl
   027A 66                  542 	ld	h,(hl)
   027B 6F                  543 	ld	l,a
   027C E5                  544 	push	hl
   027D F8 02               545 	ldhl	sp,#2
   027F 7E                  546 	ld	a,(hl)
   0280 23                  547 	inc	hl
   0281 66                  548 	ld	h,(hl)
   0282 6F                  549 	ld	l,a
   0283 E5                  550 	push	hl
   0284 F8 20               551 	ldhl	sp,#32
   0286 7E                  552 	ld	a,(hl)
   0287 23                  553 	inc	hl
   0288 66                  554 	ld	h,(hl)
   0289 6F                  555 	ld	l,a
   028A E5                  556 	push	hl
   028B F8 20               557 	ldhl	sp,#32
   028D 7E                  558 	ld	a,(hl)
   028E 23                  559 	inc	hl
   028F 66                  560 	ld	h,(hl)
   0290 6F                  561 	ld	l,a
   0291 E5                  562 	push	hl
   0292 CDr00s00            563 	call	___fsmul
   0295 E8 08               564 	lda	sp,8(sp)
   0297 E5                  565 	push	hl
   0298 F8 02               566 	ldhl	sp,#2
   029A 73                  567 	ld	(hl),e
   029B 23                  568 	inc	hl
   029C 72                  569 	ld	(hl),d
   029D D1                  570 	pop	de
   029E 23                  571 	inc	hl
   029F 73                  572 	ld	(hl),e
   02A0 23                  573 	inc	hl
   02A1 72                  574 	ld	(hl),d
   02A2 F8 02               575 	ldhl	sp,#2
   02A4 7E                  576 	ld	a,(hl)
   02A5 23                  577 	inc	hl
   02A6 66                  578 	ld	h,(hl)
   02A7 6F                  579 	ld	l,a
   02A8 E5                  580 	push	hl
   02A9 F8 02               581 	ldhl	sp,#2
   02AB 7E                  582 	ld	a,(hl)
   02AC 23                  583 	inc	hl
   02AD 66                  584 	ld	h,(hl)
   02AE 6F                  585 	ld	l,a
   02AF E5                  586 	push	hl
   02B0 F8 20               587 	ldhl	sp,#32
   02B2 7E                  588 	ld	a,(hl)
   02B3 23                  589 	inc	hl
   02B4 66                  590 	ld	h,(hl)
   02B5 6F                  591 	ld	l,a
   02B6 E5                  592 	push	hl
   02B7 F8 20               593 	ldhl	sp,#32
   02B9 7E                  594 	ld	a,(hl)
   02BA 23                  595 	inc	hl
   02BB 66                  596 	ld	h,(hl)
   02BC 6F                  597 	ld	l,a
   02BD E5                  598 	push	hl
   02BE CDr00s00            599 	call	___fsadd
   02C1 E8 08               600 	lda	sp,8(sp)
   02C3 E5                  601 	push	hl
   02C4 F8 24               602 	ldhl	sp,#36
   02C6 73                  603 	ld	(hl),e
   02C7 23                  604 	inc	hl
   02C8 72                  605 	ld	(hl),d
   02C9 D1                  606 	pop	de
   02CA 23                  607 	inc	hl
   02CB 73                  608 	ld	(hl),e
   02CC 23                  609 	inc	hl
   02CD 72                  610 	ld	(hl),d
                            611 ;../logf.c:247: xn=n;
   02CE F8 08               612 	ldhl	sp,#8
   02D0 7E                  613 	ld	a,(hl)
   02D1 23                  614 	inc	hl
   02D2 66                  615 	ld	h,(hl)
   02D3 6F                  616 	ld	l,a
   02D4 E5                  617 	push	hl
   02D5 CDr00s00            618 	call	___sint2fs
   02D8 E8 02               619 	lda	sp,2(sp)
   02DA E5                  620 	push	hl
   02DB F8 0C               621 	ldhl	sp,#12
   02DD 73                  622 	ld	(hl),e
   02DE 23                  623 	inc	hl
   02DF 72                  624 	ld	(hl),d
   02E0 D1                  625 	pop	de
   02E1 23                  626 	inc	hl
   02E2 73                  627 	ld	(hl),e
   02E3 23                  628 	inc	hl
   02E4 72                  629 	ld	(hl),d
                            630 ;../logf.c:248: return ((xn*C2+Rz)+xn*C1);
   02E5 F8 0C               631 	ldhl	sp,#12
   02E7 7E                  632 	ld	a,(hl)
   02E8 23                  633 	inc	hl
   02E9 66                  634 	ld	h,(hl)
   02EA 6F                  635 	ld	l,a
   02EB E5                  636 	push	hl
   02EC F8 0C               637 	ldhl	sp,#12
   02EE 7E                  638 	ld	a,(hl)
   02EF 23                  639 	inc	hl
   02F0 66                  640 	ld	h,(hl)
   02F1 6F                  641 	ld	l,a
   02F2 E5                  642 	push	hl
   02F3 21 5E B9            643 	ld	hl,#0xB95E
   02F6 E5                  644 	push	hl
   02F7 21 83 80            645 	ld	hl,#0x8083
   02FA E5                  646 	push	hl
   02FB CDr00s00            647 	call	___fsmul
   02FE E8 08               648 	lda	sp,8(sp)
   0300 E5                  649 	push	hl
   0301 F8 02               650 	ldhl	sp,#2
   0303 73                  651 	ld	(hl),e
   0304 23                  652 	inc	hl
   0305 72                  653 	ld	(hl),d
   0306 D1                  654 	pop	de
   0307 23                  655 	inc	hl
   0308 73                  656 	ld	(hl),e
   0309 23                  657 	inc	hl
   030A 72                  658 	ld	(hl),d
   030B F8 24               659 	ldhl	sp,#36
   030D 7E                  660 	ld	a,(hl)
   030E 23                  661 	inc	hl
   030F 66                  662 	ld	h,(hl)
   0310 6F                  663 	ld	l,a
   0311 E5                  664 	push	hl
   0312 F8 24               665 	ldhl	sp,#36
   0314 7E                  666 	ld	a,(hl)
   0315 23                  667 	inc	hl
   0316 66                  668 	ld	h,(hl)
   0317 6F                  669 	ld	l,a
   0318 E5                  670 	push	hl
   0319 F8 06               671 	ldhl	sp,#6
   031B 7E                  672 	ld	a,(hl)
   031C 23                  673 	inc	hl
   031D 66                  674 	ld	h,(hl)
   031E 6F                  675 	ld	l,a
   031F E5                  676 	push	hl
   0320 F8 06               677 	ldhl	sp,#6
   0322 7E                  678 	ld	a,(hl)
   0323 23                  679 	inc	hl
   0324 66                  680 	ld	h,(hl)
   0325 6F                  681 	ld	l,a
   0326 E5                  682 	push	hl
   0327 CDr00s00            683 	call	___fsadd
   032A E8 08               684 	lda	sp,8(sp)
   032C E5                  685 	push	hl
   032D F8 02               686 	ldhl	sp,#2
   032F 73                  687 	ld	(hl),e
   0330 23                  688 	inc	hl
   0331 72                  689 	ld	(hl),d
   0332 D1                  690 	pop	de
   0333 23                  691 	inc	hl
   0334 73                  692 	ld	(hl),e
   0335 23                  693 	inc	hl
   0336 72                  694 	ld	(hl),d
   0337 F8 0C               695 	ldhl	sp,#12
   0339 7E                  696 	ld	a,(hl)
   033A 23                  697 	inc	hl
   033B 66                  698 	ld	h,(hl)
   033C 6F                  699 	ld	l,a
   033D E5                  700 	push	hl
   033E F8 0C               701 	ldhl	sp,#12
   0340 7E                  702 	ld	a,(hl)
   0341 23                  703 	inc	hl
   0342 66                  704 	ld	h,(hl)
   0343 6F                  705 	ld	l,a
   0344 E5                  706 	push	hl
   0345 21 31 3F            707 	ld	hl,#0x3F31
   0348 E5                  708 	push	hl
   0349 21 00 80            709 	ld	hl,#0x8000
   034C E5                  710 	push	hl
   034D CDr00s00            711 	call	___fsmul
   0350 E8 08               712 	lda	sp,8(sp)
   0352 E5                  713 	push	hl
   0353 F8 06               714 	ldhl	sp,#6
   0355 73                  715 	ld	(hl),e
   0356 23                  716 	inc	hl
   0357 72                  717 	ld	(hl),d
   0358 D1                  718 	pop	de
   0359 23                  719 	inc	hl
   035A 73                  720 	ld	(hl),e
   035B 23                  721 	inc	hl
   035C 72                  722 	ld	(hl),d
   035D F8 06               723 	ldhl	sp,#6
   035F 7E                  724 	ld	a,(hl)
   0360 23                  725 	inc	hl
   0361 66                  726 	ld	h,(hl)
   0362 6F                  727 	ld	l,a
   0363 E5                  728 	push	hl
   0364 F8 06               729 	ldhl	sp,#6
   0366 7E                  730 	ld	a,(hl)
   0367 23                  731 	inc	hl
   0368 66                  732 	ld	h,(hl)
   0369 6F                  733 	ld	l,a
   036A E5                  734 	push	hl
   036B F8 06               735 	ldhl	sp,#6
   036D 7E                  736 	ld	a,(hl)
   036E 23                  737 	inc	hl
   036F 66                  738 	ld	h,(hl)
   0370 6F                  739 	ld	l,a
   0371 E5                  740 	push	hl
   0372 F8 06               741 	ldhl	sp,#6
   0374 7E                  742 	ld	a,(hl)
   0375 23                  743 	inc	hl
   0376 66                  744 	ld	h,(hl)
   0377 6F                  745 	ld	l,a
   0378 E5                  746 	push	hl
   0379 CDr00s00            747 	call	___fsadd
   037C E8 08               748 	lda	sp,8(sp)
   037E E5                  749 	push	hl
   037F F8 02               750 	ldhl	sp,#2
   0381 73                  751 	ld	(hl),e
   0382 23                  752 	inc	hl
   0383 72                  753 	ld	(hl),d
   0384 D1                  754 	pop	de
   0385 23                  755 	inc	hl
   0386 73                  756 	ld	(hl),e
   0387 23                  757 	inc	hl
   0388 72                  758 	ld	(hl),d
   0389 F8 01               759 	ldhl	sp,#1
   038B 2B                  760 	dec	hl
   038C 5E                  761 	ld	e,(hl)
   038D 23                  762 	inc	hl
   038E 56                  763 	ld	d,(hl)
   038F 23                  764 	inc	hl
   0390 7E                  765 	ld	a,(hl)
   0391 23                  766 	inc	hl
   0392 66                  767 	ld	h,(hl)
   0393 6F                  768 	ld	l,a
   0394                     769 00106$:
   0394 E8 26               770 	lda	sp,38(sp)
   0396 C9                  771 	ret
   0397                     772 _logf_end::
                            773 	.area _CODE
                            774 	.area _CABS
