                              1 ;--------------------------------------------------------
                              2 ; File Created by SDCC : free open source ANSI-C Compiler
                              3 ; Version 3.0.1 #6227 (Oct  2 2015) (Linux)
                              4 ; This file was generated Fri Oct  2 17:18:20 2015
                              5 ;--------------------------------------------------------
                              6 	.module printf_large
                              7 	.optsdcc -mgbz80
                              8 	
                              9 ;--------------------------------------------------------
                             10 ; Public variables in this module
                             11 ;--------------------------------------------------------
                             12 	.globl __print_format
                             13 ;--------------------------------------------------------
                             14 ;  ram data
                             15 ;--------------------------------------------------------
                             16 	.area _DATA
                             17 ;--------------------------------------------------------
                             18 ; overlayable items in  ram 
                             19 ;--------------------------------------------------------
                             20 	.area _OVERLAY
                             21 ;--------------------------------------------------------
                             22 ; external initialized ram data
                             23 ;--------------------------------------------------------
                             24 ;--------------------------------------------------------
                             25 ; global & static initialisations
                             26 ;--------------------------------------------------------
                             27 	.area _HOME
                             28 	.area _GSINIT
                             29 	.area _GSFINAL
                             30 	.area _GSINIT
                             31 ;--------------------------------------------------------
                             32 ; Home
                             33 ;--------------------------------------------------------
                             34 	.area _HOME
                             35 	.area _HOME
                             36 ;--------------------------------------------------------
                             37 ; code
                             38 ;--------------------------------------------------------
                             39 	.area _CODE
                             40 ;../printf_large.c:116: output_digit (unsigned char n, BOOL lower_case, pfn_outputchar output_char, void* p)
                             41 ;	---------------------------------
                             42 ; Function output_digit
                             43 ; ---------------------------------
   0000                      44 _output_digit:
                             45 	
                             46 ;../printf_large.c:118: register unsigned char c = n + (unsigned char)'0';
   0000 F8 02                47 	ldhl	sp,#2
   0002 7E                   48 	ld	a,(hl)
   0003 C6 30                49 	add	a,#0x30
   0005 4F                   50 	ld	c,a
                             51 ;../printf_large.c:120: if (c > (unsigned char)'9')
   0006 3E 39                52 	ld	a,#0x39
   0008 91                   53 	sub	a, c
   0009 D2r1As00             54 	jp	NC,00104$
                             55 ;../printf_large.c:122: c += (unsigned char)('A' - '0' - 10);
   000C 79                   56 	ld	a,c
   000D C6 07                57 	add	a,#0x07
   000F 4F                   58 	ld	c,a
                             59 ;../printf_large.c:123: if (lower_case)
   0010 23                   60 	inc	hl
   0011 CB 46                61 	bit	0,(hl)
   0013 CAr1As00             62 	jp	Z,00104$
                             63 ;../printf_large.c:124: c += (unsigned char)('a' - 'A');
   0016 79                   64 	ld	a,c
   0017 C6 20                65 	add	a,#0x20
   0019 4F                   66 	ld	c,a
   001A                      67 00104$:
                             68 ;../printf_large.c:126: output_char( c, p );
   001A F8 06                69 	ldhl	sp,#6
   001C 7E                   70 	ld	a,(hl)
   001D 23                   71 	inc	hl
   001E 66                   72 	ld	h,(hl)
   001F 6F                   73 	ld	l,a
   0020 E5                   74 	push	hl
   0021 79                   75 	ld	a,c
   0022 F5                   76 	push	af
   0023 33                   77 	inc	sp
   0024 21r2Fs00             78 	ld	hl,#00109$
   0027 E5                   79 	push	hl
   0028 F8 09                80 	ldhl	sp,#9
   002A 7E                   81 	ld	a,(hl)
   002B 23                   82 	inc	hl
   002C 66                   83 	ld	h,(hl)
   002D 6F                   84 	ld	l,a
   002E E9                   85 	jp	(hl)
   002F                      86 00109$:
   002F E8 03                87 	lda	sp,3(sp)
   0031                      88 00105$:
                             89 	
   0031 C9                   90 	ret
                             91 ;../printf_large.c:149: output_2digits (unsigned char b, BOOL lower_case, pfn_outputchar output_char, void* p)
                             92 ;	---------------------------------
                             93 ; Function output_2digits
                             94 ; ---------------------------------
   0032                      95 _output_2digits:
                             96 	
                             97 ;../printf_large.c:151: output_digit( b>>4,   lower_case, output_char, p );
   0032 F8 02                98 	ldhl	sp,#2
   0034 4E                   99 	ld	c,(hl)
   0035 CB 39               100 	srl	c
   0037 CB 39               101 	srl	c
   0039 CB 39               102 	srl	c
   003B CB 39               103 	srl	c
   003D F8 06               104 	ldhl	sp,#6
   003F 7E                  105 	ld	a,(hl)
   0040 23                  106 	inc	hl
   0041 66                  107 	ld	h,(hl)
   0042 6F                  108 	ld	l,a
   0043 E5                  109 	push	hl
   0044 F8 06               110 	ldhl	sp,#6
   0046 7E                  111 	ld	a,(hl)
   0047 23                  112 	inc	hl
   0048 66                  113 	ld	h,(hl)
   0049 6F                  114 	ld	l,a
   004A E5                  115 	push	hl
   004B F8 07               116 	ldhl	sp,#7
   004D 7E                  117 	ld	a,(hl)
   004E F5                  118 	push	af
   004F 33                  119 	inc	sp
   0050 79                  120 	ld	a,c
   0051 F5                  121 	push	af
   0052 33                  122 	inc	sp
   0053 CDr00s00            123 	call	_output_digit
   0056 E8 06               124 	lda	sp,6(sp)
                            125 ;../printf_large.c:152: output_digit( b&0x0F, lower_case, output_char, p );
   0058 F8 02               126 	ldhl	sp,#2
   005A 7E                  127 	ld	a,(hl)
   005B E6 0F               128 	and	a,#0x0F
   005D 4F                  129 	ld	c,a
   005E F8 06               130 	ldhl	sp,#6
   0060 7E                  131 	ld	a,(hl)
   0061 23                  132 	inc	hl
   0062 66                  133 	ld	h,(hl)
   0063 6F                  134 	ld	l,a
   0064 E5                  135 	push	hl
   0065 F8 06               136 	ldhl	sp,#6
   0067 7E                  137 	ld	a,(hl)
   0068 23                  138 	inc	hl
   0069 66                  139 	ld	h,(hl)
   006A 6F                  140 	ld	l,a
   006B E5                  141 	push	hl
   006C F8 07               142 	ldhl	sp,#7
   006E 7E                  143 	ld	a,(hl)
   006F F5                  144 	push	af
   0070 33                  145 	inc	sp
   0071 79                  146 	ld	a,c
   0072 F5                  147 	push	af
   0073 33                  148 	inc	sp
   0074 CDr00s00            149 	call	_output_digit
   0077 E8 06               150 	lda	sp,6(sp)
   0079                     151 00101$:
                            152 	
   0079 C9                  153 	ret
                            154 ;../printf_large.c:168: calculate_digit (value_t _AUTOMEM * value, unsigned char radix)
                            155 ;	---------------------------------
                            156 ; Function calculate_digit
                            157 ; ---------------------------------
   007A                     158 _calculate_digit:
   007A E8 F4               159 	lda	sp,-12(sp)
                            160 ;../printf_large.c:170: unsigned long ul = value->ul;
   007C F8 0E               161 	ldhl	sp,#14
   007E 7E                  162 	ld	a,(hl)
   007F 23                  163 	inc	hl
   0080 5E                  164 	ld	e,(hl)
   0081 F8 04               165 	ldhl	sp,#4
   0083 77                  166 	ld	(hl),a
   0084 23                  167 	inc	hl
   0085 73                  168 	ld	(hl),e
   0086 2B                  169 	dec	hl
   0087 5E                  170 	ld	e,(hl)
   0088 23                  171 	inc	hl
   0089 56                  172 	ld	d,(hl)
   008A 1A                  173 	ld	a,(de)
   008B F8 08               174 	ldhl	sp,#8
   008D 77                  175 	ld	(hl),a
   008E 13                  176 	inc	de
   008F 1A                  177 	ld	a,(de)
   0090 23                  178 	inc	hl
   0091 77                  179 	ld	(hl),a
   0092 13                  180 	inc	de
   0093 1A                  181 	ld	a,(de)
   0094 23                  182 	inc	hl
   0095 77                  183 	ld	(hl),a
   0096 13                  184 	inc	de
   0097 1A                  185 	ld	a,(de)
   0098 23                  186 	inc	hl
   0099 77                  187 	ld	(hl),a
                            188 ;../printf_large.c:171: unsigned char _AUTOMEM * pb4 = &value->byte[4];
   009A F8 05               189 	ldhl	sp,#5
   009C 2B                  190 	dec	hl
   009D 5E                  191 	ld	e,(hl)
   009E 23                  192 	inc	hl
   009F 56                  193 	ld	d,(hl)
   00A0 21 04 00            194 	ld	hl,#0x0004
   00A3 19                  195 	add	hl,de
   00A4 7D                  196 	ld	a,l
   00A5 54                  197 	ld	d,h
   00A6 F8 06               198 	ldhl	sp,#6
   00A8 77                  199 	ld	(hl),a
   00A9 23                  200 	inc	hl
   00AA 72                  201 	ld	(hl),d
                            202 ;../printf_large.c:174: do
   00AB 06 20               203 	ld	b,#0x20
   00AD                     204 00103$:
                            205 ;../printf_large.c:176: *pb4 = (*pb4 << 1) | ((ul >> 31) & 0x01);
   00AD F8 07               206 	ldhl	sp,#7
   00AF 2B                  207 	dec	hl
   00B0 5E                  208 	ld	e,(hl)
   00B1 23                  209 	inc	hl
   00B2 56                  210 	ld	d,(hl)
   00B3 1A                  211 	ld	a,(de)
   00B4 87                  212 	add	a,a
   00B5 4F                  213 	ld	c,a
   00B6 F8 0B               214 	ldhl	sp,#11
   00B8 7E                  215 	ld	a,(hl)
   00B9 CB 07               216 	rlc	a
   00BB E6 01               217 	and	a,#0x01
   00BD B1                  218 	or	a, c
   00BE F8 07               219 	ldhl	sp,#7
   00C0 2B                  220 	dec	hl
   00C1 5E                  221 	ld	e,(hl)
   00C2 23                  222 	inc	hl
   00C3 56                  223 	ld	d,(hl)
   00C4 12                  224 	ld	(de),a
                            225 ;../printf_large.c:177: ul <<= 1;
   00C5 C5                  226 	push	bc
   00C6 3E 01               227 	ld	a,#0x01
   00C8 F5                  228 	push	af
   00C9 33                  229 	inc	sp
   00CA F8 0D               230 	ldhl	sp,#13
   00CC 7E                  231 	ld	a,(hl)
   00CD 23                  232 	inc	hl
   00CE 66                  233 	ld	h,(hl)
   00CF 6F                  234 	ld	l,a
   00D0 E5                  235 	push	hl
   00D1 F8 0D               236 	ldhl	sp,#13
   00D3 7E                  237 	ld	a,(hl)
   00D4 23                  238 	inc	hl
   00D5 66                  239 	ld	h,(hl)
   00D6 6F                  240 	ld	l,a
   00D7 E5                  241 	push	hl
   00D8 CDr00s00            242 	call	__rlulong_rrx_s
   00DB E8 05               243 	lda	sp,5(sp)
   00DD E5                  244 	push	hl
   00DE F8 04               245 	ldhl	sp,#4
   00E0 73                  246 	ld	(hl),e
   00E1 23                  247 	inc	hl
   00E2 72                  248 	ld	(hl),d
   00E3 D1                  249 	pop	de
   00E4 23                  250 	inc	hl
   00E5 73                  251 	ld	(hl),e
   00E6 23                  252 	inc	hl
   00E7 72                  253 	ld	(hl),d
   00E8 C1                  254 	pop	bc
   00E9 F8 00               255 	ldhl	sp,#0
   00EB 54                  256 	ld	d,h
   00EC 5D                  257 	ld	e,l
   00ED F8 08               258 	ldhl	sp,#8
   00EF 1A                  259 	ld	a,(de)
   00F0 77                  260 	ld	(hl),a
   00F1 23                  261 	inc	hl
   00F2 13                  262 	inc	de
   00F3 1A                  263 	ld	a,(de)
   00F4 77                  264 	ld	(hl),a
   00F5 23                  265 	inc	hl
   00F6 13                  266 	inc	de
   00F7 1A                  267 	ld	a,(de)
   00F8 77                  268 	ld	(hl),a
   00F9 23                  269 	inc	hl
   00FA 13                  270 	inc	de
   00FB 1A                  271 	ld	a,(de)
   00FC 77                  272 	ld	(hl),a
                            273 ;../printf_large.c:179: if (radix <= *pb4 )
   00FD F8 07               274 	ldhl	sp,#7
   00FF 2B                  275 	dec	hl
   0100 5E                  276 	ld	e,(hl)
   0101 23                  277 	inc	hl
   0102 56                  278 	ld	d,(hl)
   0103 1A                  279 	ld	a,(de)
   0104 4F                  280 	ld	c,a
   0105 F8 10               281 	ldhl	sp,#16
   0107 96                  282 	sub	a, (hl)
   0108 DAr19s01            283 	jp	C,00104$
                            284 ;../printf_large.c:181: *pb4 -= radix;
   010B 79                  285 	ld	a,c
   010C 96                  286 	sub	a,(hl)
   010D F8 07               287 	ldhl	sp,#7
   010F 2B                  288 	dec	hl
   0110 5E                  289 	ld	e,(hl)
   0111 23                  290 	inc	hl
   0112 56                  291 	ld	d,(hl)
   0113 12                  292 	ld	(de),a
                            293 ;../printf_large.c:182: ul |= 1;
   0114 23                  294 	inc	hl
   0115 7E                  295 	ld	a,(hl)
   0116 CB C7               296 	set	0, a
   0118 77                  297 	ld	(hl),a
   0119                     298 00104$:
                            299 ;../printf_large.c:184: } while (--i);
   0119 05                  300 	dec	b
   011A AF                  301 	xor	a,a
   011B B0                  302 	or	a,b
   011C C2rADs00            303 	jp	NZ,00103$
                            304 ;../printf_large.c:185: value->ul = ul;
   011F F8 05               305 	ldhl	sp,#5
   0121 2B                  306 	dec	hl
   0122 5E                  307 	ld	e,(hl)
   0123 23                  308 	inc	hl
   0124 56                  309 	ld	d,(hl)
   0125 F8 08               310 	ldhl	sp,#8
   0127 7E                  311 	ld	a,(hl)
   0128 12                  312 	ld	(de),a
   0129 13                  313 	inc	de
   012A 23                  314 	inc	hl
   012B 7E                  315 	ld	a,(hl)
   012C 12                  316 	ld	(de),a
   012D 13                  317 	inc	de
   012E 23                  318 	inc	hl
   012F 7E                  319 	ld	a,(hl)
   0130 12                  320 	ld	(de),a
   0131 13                  321 	inc	de
   0132 23                  322 	inc	hl
   0133 7E                  323 	ld	a,(hl)
   0134 12                  324 	ld	(de),a
   0135                     325 00106$:
   0135 E8 0C               326 	lda	sp,12(sp)
   0137 C9                  327 	ret
                            328 ;../printf_large.c:414: _print_format (pfn_outputchar pfn, void* pvoid, const char *format, va_list ap)
                            329 ;	---------------------------------
                            330 ; Function _print_format
                            331 ; ---------------------------------
   0138                     332 __print_format_start::
   0138                     333 __print_format:
   0138 E8 CB               334 	lda	sp,-53(sp)
                            335 ;../printf_large.c:446: charsOutputted = 0;
   013A F8 15               336 	ldhl	sp,#21
   013C 36 00               337 	ld	(hl),#0x00
   013E 23                  338 	inc	hl
   013F 36 00               339 	ld	(hl),#0x00
                            340 ;../printf_large.c:454: while( c=*format++ )
   0141 F8 27               341 	ldhl	sp,#39
   0143 7D                  342 	ld	a,l
   0144 54                  343 	ld	d,h
   0145 F8 17               344 	ldhl	sp,#23
   0147 77                  345 	ld	(hl),a
   0148 23                  346 	inc	hl
   0149 72                  347 	ld	(hl),d
   014A F8 1B               348 	ldhl	sp,#27
   014C 4D                  349 	ld	c,l
   014D 44                  350 	ld	b,h
   014E 21 05 00            351 	ld	hl,#0x0005
   0151 09                  352 	add	hl,bc
   0152 7D                  353 	ld	a,l
   0153 54                  354 	ld	d,h
   0154 F8 11               355 	ldhl	sp,#17
   0156 77                  356 	ld	(hl),a
   0157 23                  357 	inc	hl
   0158 72                  358 	ld	(hl),d
   0159 F8 27               359 	ldhl	sp,#39
   015B 7D                  360 	ld	a,l
   015C 54                  361 	ld	d,h
   015D F8 13               362 	ldhl	sp,#19
   015F 77                  363 	ld	(hl),a
   0160 23                  364 	inc	hl
   0161 72                  365 	ld	(hl),d
   0162                     366 00227$:
   0162 F8 3B               367 	ldhl	sp,#59
   0164 7E                  368 	ld	a,(hl)
   0165 23                  369 	inc	hl
   0166 5E                  370 	ld	e,(hl)
   0167 F8 0F               371 	ldhl	sp,#15
   0169 77                  372 	ld	(hl),a
   016A 23                  373 	inc	hl
   016B 73                  374 	ld	(hl),e
   016C 2B                  375 	dec	hl
   016D 5E                  376 	ld	e,(hl)
   016E 23                  377 	inc	hl
   016F 56                  378 	ld	d,(hl)
   0170 1A                  379 	ld	a,(de)
   0171 4F                  380 	ld	c,a
   0172 2B                  381 	dec	hl
   0173 5E                  382 	ld	e,(hl)
   0174 23                  383 	inc	hl
   0175 56                  384 	ld	d,(hl)
   0176 21 01 00            385 	ld	hl,#0x0001
   0179 19                  386 	add	hl,de
   017A 7D                  387 	ld	a,l
   017B 54                  388 	ld	d,h
   017C F8 3B               389 	ldhl	sp,#59
   017E 77                  390 	ld	(hl),a
   017F 23                  391 	inc	hl
   0180 72                  392 	ld	(hl),d
   0181 41                  393 	ld	b,c
   0182 AF                  394 	xor	a,a
   0183 B1                  395 	or	a,c
   0184 CArEFs0C            396 	jp	Z,00229$
                            397 ;../printf_large.c:456: if ( c=='%' )
   0187 78                  398 	ld	a,b
   0188 D6 25               399 	sub	a,#0x25
   018A CAr90s01            400 	jp	Z,00312$
   018D                     401 00311$:
   018D C3rCEs0C            402 	jp	00225$
   0190                     403 00312$:
                            404 ;../printf_large.c:458: left_justify    = 0;
   0190 F8 34               405 	ldhl	sp,#52
   0192 36 00               406 	ld	(hl),#0x00
                            407 ;../printf_large.c:459: zero_padding    = 0;
   0194 2B                  408 	dec	hl
   0195 36 00               409 	ld	(hl),#0x00
                            410 ;../printf_large.c:460: prefix_sign     = 0;
   0197 2B                  411 	dec	hl
   0198 36 00               412 	ld	(hl),#0x00
                            413 ;../printf_large.c:461: prefix_space    = 0;
   019A 2B                  414 	dec	hl
   019B 36 00               415 	ld	(hl),#0x00
                            416 ;../printf_large.c:462: signed_argument = 0;
   019D 2B                  417 	dec	hl
   019E 36 00               418 	ld	(hl),#0x00
                            419 ;../printf_large.c:463: char_argument   = 0;
   01A0 2B                  420 	dec	hl
   01A1 36 00               421 	ld	(hl),#0x00
                            422 ;../printf_large.c:464: long_argument   = 0;
   01A3 2B                  423 	dec	hl
   01A4 36 00               424 	ld	(hl),#0x00
                            425 ;../printf_large.c:465: float_argument  = 0;
   01A6 2B                  426 	dec	hl
   01A7 36 00               427 	ld	(hl),#0x00
                            428 ;../printf_large.c:466: radix           = 0;
   01A9 F8 24               429 	ldhl	sp,#36
   01AB 36 00               430 	ld	(hl),#0x00
                            431 ;../printf_large.c:467: width           = 0;
   01AD 2B                  432 	dec	hl
   01AE 36 00               433 	ld	(hl),#0x00
                            434 ;../printf_large.c:468: decimals        = -1;
   01B0 2B                  435 	dec	hl
   01B1 36 FF               436 	ld	(hl),#0xFF
                            437 ;../printf_large.c:470: get_conversion_spec:
   01B3 F8 3B               438 	ldhl	sp,#59
   01B5 7E                  439 	ld	a,(hl)
   01B6 23                  440 	inc	hl
   01B7 5E                  441 	ld	e,(hl)
   01B8 F8 0F               442 	ldhl	sp,#15
   01BA 77                  443 	ld	(hl),a
   01BB 23                  444 	inc	hl
   01BC 73                  445 	ld	(hl),e
   01BD                     446 00101$:
                            447 ;../printf_large.c:472: c = *format++;
   01BD F8 10               448 	ldhl	sp,#16
   01BF 2B                  449 	dec	hl
   01C0 5E                  450 	ld	e,(hl)
   01C1 23                  451 	inc	hl
   01C2 56                  452 	ld	d,(hl)
   01C3 1A                  453 	ld	a,(de)
   01C4 4F                  454 	ld	c,a
   01C5 2B                  455 	dec	hl
   01C6 34                  456 	inc	(hl)
   01C7 C2rCCs01            457 	jp	NZ,00313$
   01CA 23                  458 	inc	hl
   01CB 34                  459 	inc	(hl)
   01CC                     460 00313$:
   01CC 2B                  461 	dec	hl
   01CD 7E                  462 	ld	a,(hl)
   01CE 23                  463 	inc	hl
   01CF 5E                  464 	ld	e,(hl)
   01D0 F8 3B               465 	ldhl	sp,#59
   01D2 77                  466 	ld	(hl),a
   01D3 23                  467 	inc	hl
   01D4 73                  468 	ld	(hl),e
   01D5 41                  469 	ld	b,c
                            470 ;../printf_large.c:474: if (c=='%') {
   01D6 78                  471 	ld	a,b
   01D7 D6 25               472 	sub	a,#0x25
   01D9 CArDEs01            473 	jp	Z,00315$
   01DC                     474 00314$:
   01DC 18 21               475 	jr	00103$
   01DE                     476 00315$:
                            477 ;../printf_large.c:475: OUTPUT_CHAR(c, p);
   01DE F8 39               478 	ldhl	sp,#57
   01E0 7E                  479 	ld	a,(hl)
   01E1 23                  480 	inc	hl
   01E2 66                  481 	ld	h,(hl)
   01E3 6F                  482 	ld	l,a
   01E4 E5                  483 	push	hl
   01E5 C5                  484 	push	bc
   01E6 33                  485 	inc	sp
   01E7 21rF2s01            486 	ld	hl,#00316$
   01EA E5                  487 	push	hl
   01EB F8 3C               488 	ldhl	sp,#60
   01ED 7E                  489 	ld	a,(hl)
   01EE 23                  490 	inc	hl
   01EF 66                  491 	ld	h,(hl)
   01F0 6F                  492 	ld	l,a
   01F1 E9                  493 	jp	(hl)
   01F2                     494 00316$:
   01F2 E8 03               495 	lda	sp,3(sp)
   01F4 F8 15               496 	ldhl	sp,#21
   01F6 34                  497 	inc	(hl)
   01F7 C2r62s01            498 	jp	NZ,00227$
   01FA 23                  499 	inc	hl
   01FB 34                  500 	inc	(hl)
   01FC                     501 00317$:
                            502 ;../printf_large.c:476: continue;
   01FC C3r62s01            503 	jp	00227$
   01FF                     504 00103$:
                            505 ;../printf_large.c:479: if (isdigit(c)) {
   01FF 48                  506 	ld	c,b
   0200 79                  507 	ld	a,c
   0201 D6 30               508 	sub	a, #0x30
   0203 DAr43s02            509 	jp	C,00110$
   0206 48                  510 	ld	c,b
   0207 3E 39               511 	ld	a,#0x39
   0209 91                  512 	sub	a, c
   020A DAr43s02            513 	jp	C,00110$
                            514 ;../printf_large.c:480: if (decimals==-1) {
   020D F8 22               515 	ldhl	sp,#34
   020F 7E                  516 	ld	a,(hl)
   0210 3C                  517 	inc	a
   0211 CAr16s02            518 	jp	Z,00319$
   0214                     519 00318$:
   0214 18 1A               520 	jr	00107$
   0216                     521 00319$:
                            522 ;../printf_large.c:481: width = 10*width + c - '0';
   0216 23                  523 	inc	hl
   0217 7E                  524 	ld	a,(hl)
   0218 5F                  525 	ld	e,a
   0219 87                  526 	add	a,a
   021A 87                  527 	add	a,a
   021B 83                  528 	add	a,e
   021C 87                  529 	add	a,a
   021D 4F                  530 	ld	c,a
   021E 80                  531 	add	a,b
   021F 4F                  532 	ld	c,a
   0220 C6 D0               533 	add	a,#0xD0
   0222 F8 23               534 	ldhl	sp,#35
                            535 ;../printf_large.c:482: if (width == 0) {
   0224 77                  536 	ld	(hl),a
   0225 B7                  537 	or	a,a
   0226 C2rBDs01            538 	jp	NZ,00101$
                            539 ;../printf_large.c:484: zero_padding = 1;
   0229 F8 33               540 	ldhl	sp,#51
   022B 36 01               541 	ld	(hl),#0x01
   022D C3rBDs01            542 	jp	00101$
   0230                     543 00107$:
                            544 ;../printf_large.c:487: decimals = 10*decimals + c - '0';
   0230 F8 22               545 	ldhl	sp,#34
   0232 7E                  546 	ld	a,(hl)
   0233 5F                  547 	ld	e,a
   0234 87                  548 	add	a,a
   0235 87                  549 	add	a,a
   0236 83                  550 	add	a,e
   0237 87                  551 	add	a,a
   0238 4F                  552 	ld	c,a
   0239 80                  553 	add	a,b
   023A 4F                  554 	ld	c,a
   023B C6 D0               555 	add	a,#0xD0
   023D F8 22               556 	ldhl	sp,#34
   023F 77                  557 	ld	(hl),a
                            558 ;../printf_large.c:489: goto get_conversion_spec;
   0240 C3rBDs01            559 	jp	00101$
   0243                     560 00110$:
                            561 ;../printf_large.c:492: if (c=='.') {
   0243 78                  562 	ld	a,b
   0244 D6 2E               563 	sub	a,#0x2E
   0246 CAr4Bs02            564 	jp	Z,00321$
   0249                     565 00320$:
   0249 18 0F               566 	jr	00115$
   024B                     567 00321$:
                            568 ;../printf_large.c:493: if (decimals==-1) decimals=0;
   024B F8 22               569 	ldhl	sp,#34
   024D 7E                  570 	ld	a,(hl)
   024E 3C                  571 	inc	a
   024F CAr55s02            572 	jp	Z,00323$
   0252                     573 00322$:
   0252 C3rBDs01            574 	jp	00101$
   0255                     575 00323$:
   0255 36 00               576 	ld	(hl),#0x00
                            577 ;../printf_large.c:496: goto get_conversion_spec;
   0257 C3rBDs01            578 	jp	00101$
   025A                     579 00115$:
                            580 ;../printf_large.c:499: if (islower(c))
   025A 48                  581 	ld	c,b
   025B 79                  582 	ld	a,c
   025C D6 61               583 	sub	a, #0x61
   025E DAr72s02            584 	jp	C,00117$
   0261 48                  585 	ld	c,b
   0262 3E 7A               586 	ld	a,#0x7A
   0264 91                  587 	sub	a, c
   0265 DAr72s02            588 	jp	C,00117$
                            589 ;../printf_large.c:501: c = toupper(c);
   0268 78                  590 	ld	a,b
   0269 E6 DF               591 	and	a,#0xDF
   026B 47                  592 	ld	b,a
                            593 ;../printf_large.c:502: lower_case = 1;
   026C F8 2C               594 	ldhl	sp,#44
   026E 36 01               595 	ld	(hl),#0x01
   0270 18 04               596 	jr	00118$
   0272                     597 00117$:
                            598 ;../printf_large.c:505: lower_case = 0;
   0272 F8 2C               599 	ldhl	sp,#44
   0274 36 00               600 	ld	(hl),#0x00
   0276                     601 00118$:
                            602 ;../printf_large.c:507: switch( c )
   0276 78                  603 	ld	a,b
   0277 D6 20               604 	sub	a,#0x20
   0279 CArDBs02            605 	jp	Z,00122$
   027C                     606 00324$:
   027C 78                  607 	ld	a,b
   027D D6 2B               608 	sub	a,#0x2B
   027F CArD4s02            609 	jp	Z,00121$
   0282                     610 00325$:
   0282 78                  611 	ld	a,b
   0283 D6 2D               612 	sub	a,#0x2D
   0285 CArCDs02            613 	jp	Z,00120$
   0288                     614 00326$:
   0288 78                  615 	ld	a,b
   0289 D6 42               616 	sub	a,#0x42
   028B CArE2s02            617 	jp	Z,00123$
   028E                     618 00327$:
   028E 78                  619 	ld	a,b
   028F D6 43               620 	sub	a,#0x43
   0291 CArF0s02            621 	jp	Z,00125$
   0294                     622 00328$:
   0294 78                  623 	ld	a,b
   0295 D6 44               624 	sub	a,#0x44
   0297 CArE1s05            625 	jp	Z,00150$
   029A                     626 00329$:
   029A 78                  627 	ld	a,b
   029B D6 46               628 	sub	a,#0x46
   029D CArFFs05            629 	jp	Z,00154$
   02A0                     630 00330$:
   02A0 78                  631 	ld	a,b
   02A1 D6 49               632 	sub	a,#0x49
   02A3 CArE1s05            633 	jp	Z,00150$
   02A6                     634 00331$:
   02A6 78                  635 	ld	a,b
   02A7 D6 4C               636 	sub	a,#0x4C
   02A9 CArE9s02            637 	jp	Z,00124$
   02AC                     638 00332$:
   02AC 78                  639 	ld	a,b
   02AD D6 4F               640 	sub	a,#0x4F
   02AF CArECs05            641 	jp	Z,00151$
   02B2                     642 00333$:
   02B2 78                  643 	ld	a,b
   02B3 D6 50               644 	sub	a,#0x50
   02B5 CArFBs04            645 	jp	Z,00148$
   02B8                     646 00334$:
   02B8 78                  647 	ld	a,b
   02B9 D6 53               648 	sub	a,#0x53
   02BB CAr40s03            649 	jp	Z,00129$
   02BE                     650 00335$:
   02BE 78                  651 	ld	a,b
   02BF D6 55               652 	sub	a,#0x55
   02C1 CArF3s05            653 	jp	Z,00152$
   02C4                     654 00336$:
   02C4 78                  655 	ld	a,b
   02C5 D6 58               656 	sub	a,#0x58
   02C7 CArF9s05            657 	jp	Z,00153$
   02CA                     658 00337$:
   02CA C3r05s06            659 	jp	00155$
                            660 ;../printf_large.c:509: case '-':
   02CD                     661 00120$:
                            662 ;../printf_large.c:510: left_justify = 1;
   02CD F8 34               663 	ldhl	sp,#52
   02CF 36 01               664 	ld	(hl),#0x01
                            665 ;../printf_large.c:511: goto get_conversion_spec;
   02D1 C3rBDs01            666 	jp	00101$
                            667 ;../printf_large.c:512: case '+':
   02D4                     668 00121$:
                            669 ;../printf_large.c:513: prefix_sign = 1;
   02D4 F8 32               670 	ldhl	sp,#50
   02D6 36 01               671 	ld	(hl),#0x01
                            672 ;../printf_large.c:514: goto get_conversion_spec;
   02D8 C3rBDs01            673 	jp	00101$
                            674 ;../printf_large.c:515: case ' ':
   02DB                     675 00122$:
                            676 ;../printf_large.c:516: prefix_space = 1;
   02DB F8 31               677 	ldhl	sp,#49
   02DD 36 01               678 	ld	(hl),#0x01
                            679 ;../printf_large.c:517: goto get_conversion_spec;
   02DF C3rBDs01            680 	jp	00101$
                            681 ;../printf_large.c:518: case 'B':
   02E2                     682 00123$:
                            683 ;../printf_large.c:519: char_argument = 1;
   02E2 F8 2F               684 	ldhl	sp,#47
   02E4 36 01               685 	ld	(hl),#0x01
                            686 ;../printf_large.c:520: goto get_conversion_spec;
   02E6 C3rBDs01            687 	jp	00101$
                            688 ;../printf_large.c:521: case 'L':
   02E9                     689 00124$:
                            690 ;../printf_large.c:522: long_argument = 1;
   02E9 F8 2E               691 	ldhl	sp,#46
   02EB 36 01               692 	ld	(hl),#0x01
                            693 ;../printf_large.c:523: goto get_conversion_spec;
   02ED C3rBDs01            694 	jp	00101$
                            695 ;../printf_large.c:525: case 'C':
   02F0                     696 00125$:
                            697 ;../printf_large.c:526: if( char_argument )
   02F0 F8 2F               698 	ldhl	sp,#47
   02F2 CB 46               699 	bit	0,(hl)
   02F4 CAr06s03            700 	jp	Z,00127$
                            701 ;../printf_large.c:527: c = va_arg(ap,char);
   02F7 F8 3D               702 	ldhl	sp,#61
   02F9 4E                  703 	ld	c,(hl)
   02FA 23                  704 	inc	hl
   02FB 46                  705 	ld	b,(hl)
   02FC 03                  706 	inc	bc
   02FD 2B                  707 	dec	hl
   02FE 71                  708 	ld	(hl),c
   02FF 23                  709 	inc	hl
   0300 70                  710 	ld	(hl),b
   0301 0B                  711 	dec	bc
   0302 0A                  712 	ld	a,(bc)
   0303 47                  713 	ld	b,a
   0304 18 19               714 	jr	00128$
   0306                     715 00127$:
                            716 ;../printf_large.c:529: c = va_arg(ap,int);
   0306 F8 3D               717 	ldhl	sp,#61
   0308 4E                  718 	ld	c,(hl)
   0309 23                  719 	inc	hl
   030A 46                  720 	ld	b,(hl)
   030B 03                  721 	inc	bc
   030C 03                  722 	inc	bc
   030D 2B                  723 	dec	hl
   030E 71                  724 	ld	(hl),c
   030F 23                  725 	inc	hl
   0310 70                  726 	ld	(hl),b
   0311 0B                  727 	dec	bc
   0312 0B                  728 	dec	bc
   0313 59                  729 	ld	e,c
   0314 50                  730 	ld	d,b
   0315 1A                  731 	ld	a,(de)
   0316 F8 0F               732 	ldhl	sp,#15
   0318 77                  733 	ld	(hl),a
   0319 13                  734 	inc	de
   031A 1A                  735 	ld	a,(de)
   031B 23                  736 	inc	hl
   031C 77                  737 	ld	(hl),a
   031D 2B                  738 	dec	hl
   031E 46                  739 	ld	b,(hl)
   031F                     740 00128$:
                            741 ;../printf_large.c:530: OUTPUT_CHAR( c, p );
   031F F8 39               742 	ldhl	sp,#57
   0321 7E                  743 	ld	a,(hl)
   0322 23                  744 	inc	hl
   0323 66                  745 	ld	h,(hl)
   0324 6F                  746 	ld	l,a
   0325 E5                  747 	push	hl
   0326 C5                  748 	push	bc
   0327 33                  749 	inc	sp
   0328 21r33s03            750 	ld	hl,#00338$
   032B E5                  751 	push	hl
   032C F8 3C               752 	ldhl	sp,#60
   032E 7E                  753 	ld	a,(hl)
   032F 23                  754 	inc	hl
   0330 66                  755 	ld	h,(hl)
   0331 6F                  756 	ld	l,a
   0332 E9                  757 	jp	(hl)
   0333                     758 00338$:
   0333 E8 03               759 	lda	sp,3(sp)
   0335 F8 15               760 	ldhl	sp,#21
   0337 34                  761 	inc	(hl)
   0338 C2r32s06            762 	jp	NZ,00156$
   033B 23                  763 	inc	hl
   033C 34                  764 	inc	(hl)
   033D                     765 00339$:
                            766 ;../printf_large.c:531: break;
   033D C3r32s06            767 	jp	00156$
                            768 ;../printf_large.c:533: case 'S':
   0340                     769 00129$:
                            770 ;../printf_large.c:534: PTR = va_arg(ap,ptr_t);
   0340 F8 27               771 	ldhl	sp,#39
   0342 4D                  772 	ld	c,l
   0343 44                  773 	ld	b,h
   0344 F8 3E               774 	ldhl	sp,#62
   0346 2B                  775 	dec	hl
   0347 5E                  776 	ld	e,(hl)
   0348 23                  777 	inc	hl
   0349 56                  778 	ld	d,(hl)
   034A 21 02 00            779 	ld	hl,#0x0002
   034D 19                  780 	add	hl,de
   034E 7D                  781 	ld	a,l
   034F 54                  782 	ld	d,h
   0350 F8 0D               783 	ldhl	sp,#13
   0352 77                  784 	ld	(hl),a
   0353 23                  785 	inc	hl
   0354 72                  786 	ld	(hl),d
   0355 2B                  787 	dec	hl
   0356 7E                  788 	ld	a,(hl)
   0357 23                  789 	inc	hl
   0358 5E                  790 	ld	e,(hl)
   0359 F8 3D               791 	ldhl	sp,#61
   035B 77                  792 	ld	(hl),a
   035C 23                  793 	inc	hl
   035D 73                  794 	ld	(hl),e
   035E F8 0E               795 	ldhl	sp,#14
   0360 2B                  796 	dec	hl
   0361 5E                  797 	ld	e,(hl)
   0362 23                  798 	inc	hl
   0363 56                  799 	ld	d,(hl)
   0364 1B                  800 	dec	de
   0365 1B                  801 	dec	de
   0366 2B                  802 	dec	hl
   0367 73                  803 	ld	(hl),e
   0368 23                  804 	inc	hl
   0369 72                  805 	ld	(hl),d
   036A 2B                  806 	dec	hl
   036B 5E                  807 	ld	e,(hl)
   036C 23                  808 	inc	hl
   036D 56                  809 	ld	d,(hl)
   036E 1A                  810 	ld	a,(de)
   036F 2B                  811 	dec	hl
   0370 77                  812 	ld	(hl),a
   0371 13                  813 	inc	de
   0372 1A                  814 	ld	a,(de)
   0373 23                  815 	inc	hl
   0374 77                  816 	ld	(hl),a
   0375 59                  817 	ld	e,c
   0376 50                  818 	ld	d,b
   0377 2B                  819 	dec	hl
   0378 7E                  820 	ld	a,(hl)
   0379 12                  821 	ld	(de),a
   037A 13                  822 	inc	de
   037B 23                  823 	inc	hl
   037C 7E                  824 	ld	a,(hl)
   037D 12                  825 	ld	(de),a
                            826 ;../printf_large.c:544: length = strlen(PTR);
   037E 2B                  827 	dec	hl
   037F 7E                  828 	ld	a,(hl)
   0380 23                  829 	inc	hl
   0381 66                  830 	ld	h,(hl)
   0382 6F                  831 	ld	l,a
   0383 E5                  832 	push	hl
   0384 CDr00s00            833 	call	_strlen
   0387 E8 02               834 	lda	sp,2(sp)
   0389 42                  835 	ld	b,d
   038A 4B                  836 	ld	c,e
   038B F8 0C               837 	ldhl	sp,#12
   038D 71                  838 	ld	(hl),c
                            839 ;../printf_large.c:546: if ( decimals == -1 )
   038E F8 22               840 	ldhl	sp,#34
   0390 7E                  841 	ld	a,(hl)
   0391 3C                  842 	inc	a
   0392 CAr97s03            843 	jp	Z,00341$
   0395                     844 00340$:
   0395 18 08               845 	jr	00131$
   0397                     846 00341$:
                            847 ;../printf_large.c:548: decimals = length;
   0397 E5                  848 	push	hl
   0398 F8 0C               849 	ldhl	sp,#12
   039A 7E                  850 	ld	a,(hl)
   039B F8 22               851 	ldhl	sp,#34
   039D 77                  852 	ld	(hl),a
   039E E1                  853 	pop	hl
   039F                     854 00131$:
                            855 ;../printf_large.c:550: if ( ( !left_justify ) && (length < width) )
   039F F8 34               856 	ldhl	sp,#52
   03A1 CB 46               857 	bit	0,(hl)
   03A3 C2r07s04            858 	jp	NZ,00269$
   03A6 F8 0C               859 	ldhl	sp,#12
   03A8 7E                  860 	ld	a,(hl)
   03A9 F8 23               861 	ldhl	sp,#35
   03AB 96                  862 	sub	a, (hl)
   03AC D2r07s04            863 	jp	NC,00269$
                            864 ;../printf_large.c:552: width -= length;
   03AF 7E                  865 	ld	a,(hl)
   03B0 F8 0C               866 	ldhl	sp,#12
   03B2 96                  867 	sub	a,(hl)
   03B3 F8 23               868 	ldhl	sp,#35
   03B5 77                  869 	ld	(hl),a
                            870 ;../printf_large.c:553: while( width-- != 0 )
   03B6 F8 15               871 	ldhl	sp,#21
   03B8 7E                  872 	ld	a,(hl)
   03B9 23                  873 	inc	hl
   03BA 5E                  874 	ld	e,(hl)
   03BB F8 0D               875 	ldhl	sp,#13
   03BD 77                  876 	ld	(hl),a
   03BE 23                  877 	inc	hl
   03BF 73                  878 	ld	(hl),e
   03C0 F8 23               879 	ldhl	sp,#35
   03C2 46                  880 	ld	b,(hl)
   03C3                     881 00132$:
   03C3 48                  882 	ld	c,b
   03C4 05                  883 	dec	b
   03C5 F8 23               884 	ldhl	sp,#35
   03C7 70                  885 	ld	(hl),b
   03C8 AF                  886 	xor	a,a
   03C9 B1                  887 	or	a,c
   03CA CArFAs03            888 	jp	Z,00304$
                            889 ;../printf_large.c:555: OUTPUT_CHAR( ' ', p );
   03CD C5                  890 	push	bc
   03CE F8 3B               891 	ldhl	sp,#59
   03D0 7E                  892 	ld	a,(hl)
   03D1 23                  893 	inc	hl
   03D2 66                  894 	ld	h,(hl)
   03D3 6F                  895 	ld	l,a
   03D4 E5                  896 	push	hl
   03D5 3E 20               897 	ld	a,#0x20
   03D7 F5                  898 	push	af
   03D8 33                  899 	inc	sp
   03D9 21rE4s03            900 	ld	hl,#00342$
   03DC E5                  901 	push	hl
   03DD F8 3E               902 	ldhl	sp,#62
   03DF 7E                  903 	ld	a,(hl)
   03E0 23                  904 	inc	hl
   03E1 66                  905 	ld	h,(hl)
   03E2 6F                  906 	ld	l,a
   03E3 E9                  907 	jp	(hl)
   03E4                     908 00342$:
   03E4 E8 03               909 	lda	sp,3(sp)
   03E6 C1                  910 	pop	bc
   03E7 F8 0D               911 	ldhl	sp,#13
   03E9 34                  912 	inc	(hl)
   03EA C2rEFs03            913 	jp	NZ,00343$
   03ED 23                  914 	inc	hl
   03EE 34                  915 	inc	(hl)
   03EF                     916 00343$:
   03EF 2B                  917 	dec	hl
   03F0 7E                  918 	ld	a,(hl)
   03F1 23                  919 	inc	hl
   03F2 5E                  920 	ld	e,(hl)
   03F3 F8 15               921 	ldhl	sp,#21
   03F5 77                  922 	ld	(hl),a
   03F6 23                  923 	inc	hl
   03F7 73                  924 	ld	(hl),e
   03F8 18 C9               925 	jr	00132$
                            926 ;../printf_large.c:559: while ( (c = *PTR)  && (decimals-- > 0))
   03FA                     927 00304$:
   03FA F8 0D               928 	ldhl	sp,#13
   03FC 7E                  929 	ld	a,(hl)
   03FD 23                  930 	inc	hl
   03FE 5E                  931 	ld	e,(hl)
   03FF F8 15               932 	ldhl	sp,#21
   0401 77                  933 	ld	(hl),a
   0402 23                  934 	inc	hl
   0403 73                  935 	ld	(hl),e
   0404 F8 23               936 	ldhl	sp,#35
   0406 70                  937 	ld	(hl),b
   0407                     938 00269$:
   0407 E5                  939 	push	hl
   0408 F8 22               940 	ldhl	sp,#34
   040A 7E                  941 	ld	a,(hl)
   040B F8 0F               942 	ldhl	sp,#15
   040D 77                  943 	ld	(hl),a
   040E E1                  944 	pop	hl
   040F F8 15               945 	ldhl	sp,#21
   0411 7E                  946 	ld	a,(hl)
   0412 23                  947 	inc	hl
   0413 5E                  948 	ld	e,(hl)
   0414 F8 0D               949 	ldhl	sp,#13
   0416 77                  950 	ld	(hl),a
   0417 23                  951 	inc	hl
   0418 73                  952 	ld	(hl),e
   0419                     953 00139$:
   0419 F8 18               954 	ldhl	sp,#24
   041B 2B                  955 	dec	hl
   041C 5E                  956 	ld	e,(hl)
   041D 23                  957 	inc	hl
   041E 56                  958 	ld	d,(hl)
   041F 1A                  959 	ld	a,(de)
   0420 4F                  960 	ld	c,a
   0421 13                  961 	inc	de
   0422 1A                  962 	ld	a,(de)
   0423 47                  963 	ld	b,a
   0424 0A                  964 	ld	a,(bc)
   0425 4F                  965 	ld	c,a
   0426 41                  966 	ld	b,c
   0427 AF                  967 	xor	a,a
   0428 B1                  968 	or	a,c
   0429 CAr96s04            969 	jp	Z,00305$
   042C F8 0F               970 	ldhl	sp,#15
   042E 4E                  971 	ld	c,(hl)
   042F 35                  972 	dec	(hl)
   0430 79                  973 	ld	a, c
   0431 5F                  974 	ld	e, a
   0432 3E 00               975 	ld	a, #0x00
   0434 57                  976 	ld	d, a
   0435 3E 00               977 	ld	a,#0x00
   0437 91                  978 	sub	a, c
   0438 CB 7B               979 	bit	7, e
   043A CAr45s04            980 	jp	Z, 00344$
   043D CB 7A               981 	bit	7, d
   043F C2r4Bs04            982 	jp	NZ, 00345$
   0442 BF                  983 	cp	a, a
   0443 18 06               984 	jr	00345$
   0445                     985 00344$:
   0445 CB 7A               986 	bit	7, d
   0447 CAr4Bs04            987 	jp	Z, 00345$
   044A 37                  988 	scf
   044B                     989 00345$:
   044B D2r96s04            990 	jp	NC,00305$
                            991 ;../printf_large.c:561: OUTPUT_CHAR( c, p );
   044E F8 39               992 	ldhl	sp,#57
   0450 7E                  993 	ld	a,(hl)
   0451 23                  994 	inc	hl
   0452 66                  995 	ld	h,(hl)
   0453 6F                  996 	ld	l,a
   0454 E5                  997 	push	hl
   0455 C5                  998 	push	bc
   0456 33                  999 	inc	sp
   0457 21r62s04           1000 	ld	hl,#00346$
   045A E5                 1001 	push	hl
   045B F8 3C              1002 	ldhl	sp,#60
   045D 7E                 1003 	ld	a,(hl)
   045E 23                 1004 	inc	hl
   045F 66                 1005 	ld	h,(hl)
   0460 6F                 1006 	ld	l,a
   0461 E9                 1007 	jp	(hl)
   0462                    1008 00346$:
   0462 E8 03              1009 	lda	sp,3(sp)
   0464 F8 0D              1010 	ldhl	sp,#13
   0466 34                 1011 	inc	(hl)
   0467 C2r6Cs04           1012 	jp	NZ,00347$
   046A 23                 1013 	inc	hl
   046B 34                 1014 	inc	(hl)
   046C                    1015 00347$:
   046C 2B                 1016 	dec	hl
   046D 7E                 1017 	ld	a,(hl)
   046E 23                 1018 	inc	hl
   046F 5E                 1019 	ld	e,(hl)
   0470 F8 15              1020 	ldhl	sp,#21
   0472 77                 1021 	ld	(hl),a
   0473 23                 1022 	inc	hl
   0474 73                 1023 	ld	(hl),e
                           1024 ;../printf_large.c:562: PTR++;
   0475 F8 27              1025 	ldhl	sp,#39
   0477 4D                 1026 	ld	c,l
   0478 44                 1027 	ld	b,h
   0479 59                 1028 	ld	e,c
   047A 50                 1029 	ld	d,b
   047B 1A                 1030 	ld	a,(de)
   047C F8 08              1031 	ldhl	sp,#8
   047E 77                 1032 	ld	(hl),a
   047F 13                 1033 	inc	de
   0480 1A                 1034 	ld	a,(de)
   0481 23                 1035 	inc	hl
   0482 77                 1036 	ld	(hl),a
   0483 2B                 1037 	dec	hl
   0484 34                 1038 	inc	(hl)
   0485 C2r8As04           1039 	jp	NZ,00348$
   0488 23                 1040 	inc	hl
   0489 34                 1041 	inc	(hl)
   048A                    1042 00348$:
   048A 59                 1043 	ld	e,c
   048B 50                 1044 	ld	d,b
   048C 2B                 1045 	dec	hl
   048D 7E                 1046 	ld	a,(hl)
   048E 12                 1047 	ld	(de),a
   048F 13                 1048 	inc	de
   0490 23                 1049 	inc	hl
   0491 7E                 1050 	ld	a,(hl)
   0492 12                 1051 	ld	(de),a
   0493 C3r19s04           1052 	jp	00139$
   0496                    1053 00305$:
   0496 F8 0D              1054 	ldhl	sp,#13
   0498 7E                 1055 	ld	a,(hl)
   0499 23                 1056 	inc	hl
   049A 5E                 1057 	ld	e,(hl)
   049B F8 15              1058 	ldhl	sp,#21
   049D 77                 1059 	ld	(hl),a
   049E 23                 1060 	inc	hl
   049F 73                 1061 	ld	(hl),e
                           1062 ;../printf_large.c:565: if ( left_justify && (length < width))
   04A0 F8 34              1063 	ldhl	sp,#52
   04A2 CB 46              1064 	bit	0,(hl)
   04A4 CAr32s06           1065 	jp	Z,00156$
   04A7 F8 0C              1066 	ldhl	sp,#12
   04A9 7E                 1067 	ld	a,(hl)
   04AA F8 23              1068 	ldhl	sp,#35
   04AC 96                 1069 	sub	a, (hl)
   04AD D2r32s06           1070 	jp	NC,00156$
                           1071 ;../printf_large.c:567: width -= length;
   04B0 7E                 1072 	ld	a,(hl)
   04B1 F8 0C              1073 	ldhl	sp,#12
   04B3 96                 1074 	sub	a,(hl)
   04B4 F8 23              1075 	ldhl	sp,#35
   04B6 77                 1076 	ld	(hl),a
                           1077 ;../printf_large.c:568: while( width-- != 0 )
   04B7 F8 0D              1078 	ldhl	sp,#13
   04B9 7E                 1079 	ld	a,(hl)
   04BA 23                 1080 	inc	hl
   04BB 5E                 1081 	ld	e,(hl)
   04BC F8 25              1082 	ldhl	sp,#37
   04BE 77                 1083 	ld	(hl),a
   04BF 23                 1084 	inc	hl
   04C0 73                 1085 	ld	(hl),e
   04C1 F8 23              1086 	ldhl	sp,#35
   04C3 46                 1087 	ld	b,(hl)
   04C4                    1088 00142$:
   04C4 48                 1089 	ld	c,b
   04C5 05                 1090 	dec	b
   04C6 F8 23              1091 	ldhl	sp,#35
   04C8 70                 1092 	ld	(hl),b
   04C9 AF                 1093 	xor	a,a
   04CA B1                 1094 	or	a,c
   04CB CAr25s06           1095 	jp	Z,00306$
                           1096 ;../printf_large.c:570: OUTPUT_CHAR( ' ', p );
   04CE C5                 1097 	push	bc
   04CF F8 3B              1098 	ldhl	sp,#59
   04D1 7E                 1099 	ld	a,(hl)
   04D2 23                 1100 	inc	hl
   04D3 66                 1101 	ld	h,(hl)
   04D4 6F                 1102 	ld	l,a
   04D5 E5                 1103 	push	hl
   04D6 3E 20              1104 	ld	a,#0x20
   04D8 F5                 1105 	push	af
   04D9 33                 1106 	inc	sp
   04DA 21rE5s04           1107 	ld	hl,#00349$
   04DD E5                 1108 	push	hl
   04DE F8 3E              1109 	ldhl	sp,#62
   04E0 7E                 1110 	ld	a,(hl)
   04E1 23                 1111 	inc	hl
   04E2 66                 1112 	ld	h,(hl)
   04E3 6F                 1113 	ld	l,a
   04E4 E9                 1114 	jp	(hl)
   04E5                    1115 00349$:
   04E5 E8 03              1116 	lda	sp,3(sp)
   04E7 C1                 1117 	pop	bc
   04E8 F8 25              1118 	ldhl	sp,#37
   04EA 34                 1119 	inc	(hl)
   04EB C2rF0s04           1120 	jp	NZ,00350$
   04EE 23                 1121 	inc	hl
   04EF 34                 1122 	inc	(hl)
   04F0                    1123 00350$:
   04F0 2B                 1124 	dec	hl
   04F1 7E                 1125 	ld	a,(hl)
   04F2 23                 1126 	inc	hl
   04F3 5E                 1127 	ld	e,(hl)
   04F4 F8 15              1128 	ldhl	sp,#21
   04F6 77                 1129 	ld	(hl),a
   04F7 23                 1130 	inc	hl
   04F8 73                 1131 	ld	(hl),e
   04F9 18 C9              1132 	jr	00142$
                           1133 ;../printf_large.c:575: case 'P':
   04FB                    1134 00148$:
                           1135 ;../printf_large.c:576: PTR = va_arg(ap,ptr_t);
   04FB F8 27              1136 	ldhl	sp,#39
   04FD 4D                 1137 	ld	c,l
   04FE 44                 1138 	ld	b,h
   04FF F8 3E              1139 	ldhl	sp,#62
   0501 2B                 1140 	dec	hl
   0502 5E                 1141 	ld	e,(hl)
   0503 23                 1142 	inc	hl
   0504 56                 1143 	ld	d,(hl)
   0505 21 02 00           1144 	ld	hl,#0x0002
   0508 19                 1145 	add	hl,de
   0509 7D                 1146 	ld	a,l
   050A 54                 1147 	ld	d,h
   050B F8 0D              1148 	ldhl	sp,#13
   050D 77                 1149 	ld	(hl),a
   050E 23                 1150 	inc	hl
   050F 72                 1151 	ld	(hl),d
   0510 2B                 1152 	dec	hl
   0511 7E                 1153 	ld	a,(hl)
   0512 23                 1154 	inc	hl
   0513 5E                 1155 	ld	e,(hl)
   0514 F8 3D              1156 	ldhl	sp,#61
   0516 77                 1157 	ld	(hl),a
   0517 23                 1158 	inc	hl
   0518 73                 1159 	ld	(hl),e
   0519 F8 0E              1160 	ldhl	sp,#14
   051B 2B                 1161 	dec	hl
   051C 5E                 1162 	ld	e,(hl)
   051D 23                 1163 	inc	hl
   051E 56                 1164 	ld	d,(hl)
   051F 1B                 1165 	dec	de
   0520 1B                 1166 	dec	de
   0521 2B                 1167 	dec	hl
   0522 73                 1168 	ld	(hl),e
   0523 23                 1169 	inc	hl
   0524 72                 1170 	ld	(hl),d
   0525 2B                 1171 	dec	hl
   0526 5E                 1172 	ld	e,(hl)
   0527 23                 1173 	inc	hl
   0528 56                 1174 	ld	d,(hl)
   0529 1A                 1175 	ld	a,(de)
   052A 2B                 1176 	dec	hl
   052B 77                 1177 	ld	(hl),a
   052C 13                 1178 	inc	de
   052D 1A                 1179 	ld	a,(de)
   052E 23                 1180 	inc	hl
   052F 77                 1181 	ld	(hl),a
   0530 59                 1182 	ld	e,c
   0531 50                 1183 	ld	d,b
   0532 2B                 1184 	dec	hl
   0533 7E                 1185 	ld	a,(hl)
   0534 12                 1186 	ld	(de),a
   0535 13                 1187 	inc	de
   0536 23                 1188 	inc	hl
   0537 7E                 1189 	ld	a,(hl)
   0538 12                 1190 	ld	(de),a
                           1191 ;../printf_large.c:620: OUTPUT_CHAR('0', p);
   0539 F8 39              1192 	ldhl	sp,#57
   053B 7E                 1193 	ld	a,(hl)
   053C 23                 1194 	inc	hl
   053D 66                 1195 	ld	h,(hl)
   053E 6F                 1196 	ld	l,a
   053F E5                 1197 	push	hl
   0540 3E 30              1198 	ld	a,#0x30
   0542 F5                 1199 	push	af
   0543 33                 1200 	inc	sp
   0544 21r4Fs05           1201 	ld	hl,#00351$
   0547 E5                 1202 	push	hl
   0548 F8 3C              1203 	ldhl	sp,#60
   054A 7E                 1204 	ld	a,(hl)
   054B 23                 1205 	inc	hl
   054C 66                 1206 	ld	h,(hl)
   054D 6F                 1207 	ld	l,a
   054E E9                 1208 	jp	(hl)
   054F                    1209 00351$:
   054F E8 03              1210 	lda	sp,3(sp)
   0551 F8 15              1211 	ldhl	sp,#21
   0553 34                 1212 	inc	(hl)
   0554 C2r59s05           1213 	jp	NZ,00352$
   0557 23                 1214 	inc	hl
   0558 34                 1215 	inc	(hl)
   0559                    1216 00352$:
                           1217 ;../printf_large.c:621: OUTPUT_CHAR('x', p);
   0559 F8 39              1218 	ldhl	sp,#57
   055B 7E                 1219 	ld	a,(hl)
   055C 23                 1220 	inc	hl
   055D 66                 1221 	ld	h,(hl)
   055E 6F                 1222 	ld	l,a
   055F E5                 1223 	push	hl
   0560 3E 78              1224 	ld	a,#0x78
   0562 F5                 1225 	push	af
   0563 33                 1226 	inc	sp
   0564 21r6Fs05           1227 	ld	hl,#00353$
   0567 E5                 1228 	push	hl
   0568 F8 3C              1229 	ldhl	sp,#60
   056A 7E                 1230 	ld	a,(hl)
   056B 23                 1231 	inc	hl
   056C 66                 1232 	ld	h,(hl)
   056D 6F                 1233 	ld	l,a
   056E E9                 1234 	jp	(hl)
   056F                    1235 00353$:
   056F E8 03              1236 	lda	sp,3(sp)
   0571 F8 15              1237 	ldhl	sp,#21
   0573 34                 1238 	inc	(hl)
   0574 C2r79s05           1239 	jp	NZ,00354$
   0577 23                 1240 	inc	hl
   0578 34                 1241 	inc	(hl)
   0579                    1242 00354$:
                           1243 ;../printf_large.c:622: OUTPUT_2DIGITS( value.byte[1] );
   0579 F8 27              1244 	ldhl	sp,#39
   057B 4D                 1245 	ld	c,l
   057C 44                 1246 	ld	b,h
   057D 03                 1247 	inc	bc
   057E 0A                 1248 	ld	a,(bc)
   057F 4F                 1249 	ld	c,a
   0580 F8 39              1250 	ldhl	sp,#57
   0582 7E                 1251 	ld	a,(hl)
   0583 23                 1252 	inc	hl
   0584 66                 1253 	ld	h,(hl)
   0585 6F                 1254 	ld	l,a
   0586 E5                 1255 	push	hl
   0587 F8 39              1256 	ldhl	sp,#57
   0589 7E                 1257 	ld	a,(hl)
   058A 23                 1258 	inc	hl
   058B 66                 1259 	ld	h,(hl)
   058C 6F                 1260 	ld	l,a
   058D E5                 1261 	push	hl
   058E F8 30              1262 	ldhl	sp,#48
   0590 7E                 1263 	ld	a,(hl)
   0591 F5                 1264 	push	af
   0592 33                 1265 	inc	sp
   0593 79                 1266 	ld	a,c
   0594 F5                 1267 	push	af
   0595 33                 1268 	inc	sp
   0596 CDr32s00           1269 	call	_output_2digits
   0599 E8 06              1270 	lda	sp,6(sp)
   059B F8 16              1271 	ldhl	sp,#22
   059D 2B                 1272 	dec	hl
   059E 5E                 1273 	ld	e,(hl)
   059F 23                 1274 	inc	hl
   05A0 56                 1275 	ld	d,(hl)
   05A1 21 02 00           1276 	ld	hl,#0x0002
   05A4 19                 1277 	add	hl,de
   05A5 7D                 1278 	ld	a,l
   05A6 54                 1279 	ld	d,h
   05A7 F8 15              1280 	ldhl	sp,#21
   05A9 77                 1281 	ld	(hl),a
   05AA 23                 1282 	inc	hl
   05AB 72                 1283 	ld	(hl),d
                           1284 ;../printf_large.c:623: OUTPUT_2DIGITS( value.byte[0] );
   05AC F8 27              1285 	ldhl	sp,#39
   05AE 4D                 1286 	ld	c,l
   05AF 44                 1287 	ld	b,h
   05B0 0A                 1288 	ld	a,(bc)
   05B1 4F                 1289 	ld	c,a
   05B2 F8 39              1290 	ldhl	sp,#57
   05B4 7E                 1291 	ld	a,(hl)
   05B5 23                 1292 	inc	hl
   05B6 66                 1293 	ld	h,(hl)
   05B7 6F                 1294 	ld	l,a
   05B8 E5                 1295 	push	hl
   05B9 F8 39              1296 	ldhl	sp,#57
   05BB 7E                 1297 	ld	a,(hl)
   05BC 23                 1298 	inc	hl
   05BD 66                 1299 	ld	h,(hl)
   05BE 6F                 1300 	ld	l,a
   05BF E5                 1301 	push	hl
   05C0 F8 30              1302 	ldhl	sp,#48
   05C2 7E                 1303 	ld	a,(hl)
   05C3 F5                 1304 	push	af
   05C4 33                 1305 	inc	sp
   05C5 79                 1306 	ld	a,c
   05C6 F5                 1307 	push	af
   05C7 33                 1308 	inc	sp
   05C8 CDr32s00           1309 	call	_output_2digits
   05CB E8 06              1310 	lda	sp,6(sp)
   05CD F8 16              1311 	ldhl	sp,#22
   05CF 2B                 1312 	dec	hl
   05D0 5E                 1313 	ld	e,(hl)
   05D1 23                 1314 	inc	hl
   05D2 56                 1315 	ld	d,(hl)
   05D3 21 02 00           1316 	ld	hl,#0x0002
   05D6 19                 1317 	add	hl,de
   05D7 7D                 1318 	ld	a,l
   05D8 54                 1319 	ld	d,h
   05D9 F8 15              1320 	ldhl	sp,#21
   05DB 77                 1321 	ld	(hl),a
   05DC 23                 1322 	inc	hl
   05DD 72                 1323 	ld	(hl),d
                           1324 ;../printf_large.c:625: break;
   05DE C3r32s06           1325 	jp	00156$
                           1326 ;../printf_large.c:628: case 'I':
   05E1                    1327 00150$:
                           1328 ;../printf_large.c:629: signed_argument = 1;
   05E1 F8 30              1329 	ldhl	sp,#48
   05E3 36 01              1330 	ld	(hl),#0x01
                           1331 ;../printf_large.c:630: radix = 10;
   05E5 F8 24              1332 	ldhl	sp,#36
   05E7 36 0A              1333 	ld	(hl),#0x0A
                           1334 ;../printf_large.c:631: break;
   05E9 C3r32s06           1335 	jp	00156$
                           1336 ;../printf_large.c:633: case 'O':
   05EC                    1337 00151$:
                           1338 ;../printf_large.c:634: radix = 8;
   05EC F8 24              1339 	ldhl	sp,#36
   05EE 36 08              1340 	ld	(hl),#0x08
                           1341 ;../printf_large.c:635: break;
   05F0 C3r32s06           1342 	jp	00156$
                           1343 ;../printf_large.c:637: case 'U':
   05F3                    1344 00152$:
                           1345 ;../printf_large.c:638: radix = 10;
   05F3 F8 24              1346 	ldhl	sp,#36
   05F5 36 0A              1347 	ld	(hl),#0x0A
                           1348 ;../printf_large.c:639: break;
   05F7 18 39              1349 	jr	00156$
                           1350 ;../printf_large.c:641: case 'X':
   05F9                    1351 00153$:
                           1352 ;../printf_large.c:642: radix = 16;
   05F9 F8 24              1353 	ldhl	sp,#36
   05FB 36 10              1354 	ld	(hl),#0x10
                           1355 ;../printf_large.c:643: break;
   05FD 18 33              1356 	jr	00156$
                           1357 ;../printf_large.c:645: case 'F':
   05FF                    1358 00154$:
                           1359 ;../printf_large.c:646: float_argument=1;
   05FF F8 2D              1360 	ldhl	sp,#45
   0601 36 01              1361 	ld	(hl),#0x01
                           1362 ;../printf_large.c:647: break;
   0603 18 2D              1363 	jr	00156$
                           1364 ;../printf_large.c:649: default:
   0605                    1365 00155$:
                           1366 ;../printf_large.c:651: OUTPUT_CHAR( c, p );
   0605 F8 39              1367 	ldhl	sp,#57
   0607 7E                 1368 	ld	a,(hl)
   0608 23                 1369 	inc	hl
   0609 66                 1370 	ld	h,(hl)
   060A 6F                 1371 	ld	l,a
   060B E5                 1372 	push	hl
   060C C5                 1373 	push	bc
   060D 33                 1374 	inc	sp
   060E 21r19s06           1375 	ld	hl,#00355$
   0611 E5                 1376 	push	hl
   0612 F8 3C              1377 	ldhl	sp,#60
   0614 7E                 1378 	ld	a,(hl)
   0615 23                 1379 	inc	hl
   0616 66                 1380 	ld	h,(hl)
   0617 6F                 1381 	ld	l,a
   0618 E9                 1382 	jp	(hl)
   0619                    1383 00355$:
   0619 E8 03              1384 	lda	sp,3(sp)
   061B F8 15              1385 	ldhl	sp,#21
   061D 34                 1386 	inc	(hl)
   061E C2r32s06           1387 	jp	NZ,00156$
   0621 23                 1388 	inc	hl
   0622 34                 1389 	inc	(hl)
   0623                    1390 00356$:
                           1391 ;../printf_large.c:828: return charsOutputted;
   0623 18 0D              1392 	jr	00156$
                           1393 ;../printf_large.c:653: }
   0625                    1394 00306$:
   0625 F8 25              1395 	ldhl	sp,#37
   0627 7E                 1396 	ld	a,(hl)
   0628 23                 1397 	inc	hl
   0629 5E                 1398 	ld	e,(hl)
   062A F8 15              1399 	ldhl	sp,#21
   062C 77                 1400 	ld	(hl),a
   062D 23                 1401 	inc	hl
   062E 73                 1402 	ld	(hl),e
   062F F8 23              1403 	ldhl	sp,#35
   0631 70                 1404 	ld	(hl),b
   0632                    1405 00156$:
                           1406 ;../printf_large.c:655: if (float_argument) {
   0632 F8 2D              1407 	ldhl	sp,#45
   0634 CB 46              1408 	bit	0,(hl)
   0636 CAr06s07           1409 	jp	Z,00222$
                           1410 ;../printf_large.c:656: value.f=va_arg(ap,float);
   0639 F8 27              1411 	ldhl	sp,#39
   063B 4D                 1412 	ld	c,l
   063C 44                 1413 	ld	b,h
   063D F8 3E              1414 	ldhl	sp,#62
   063F 2B                 1415 	dec	hl
   0640 5E                 1416 	ld	e,(hl)
   0641 23                 1417 	inc	hl
   0642 56                 1418 	ld	d,(hl)
   0643 21 04 00           1419 	ld	hl,#0x0004
   0646 19                 1420 	add	hl,de
   0647 7D                 1421 	ld	a,l
   0648 54                 1422 	ld	d,h
   0649 F8 0A              1423 	ldhl	sp,#10
   064B 77                 1424 	ld	(hl),a
   064C 23                 1425 	inc	hl
   064D 72                 1426 	ld	(hl),d
   064E 2B                 1427 	dec	hl
   064F 7E                 1428 	ld	a,(hl)
   0650 23                 1429 	inc	hl
   0651 5E                 1430 	ld	e,(hl)
   0652 F8 3D              1431 	ldhl	sp,#61
   0654 77                 1432 	ld	(hl),a
   0655 23                 1433 	inc	hl
   0656 73                 1434 	ld	(hl),e
   0657 F8 0B              1435 	ldhl	sp,#11
   0659 2B                 1436 	dec	hl
   065A 5E                 1437 	ld	e,(hl)
   065B 23                 1438 	inc	hl
   065C 56                 1439 	ld	d,(hl)
   065D 21 04 00           1440 	ld	hl,#0x0004
   0660 7B                 1441 	ld	a,e
   0661 95                 1442 	sub	a,l
   0662 5F                 1443 	ld	e,a
   0663 7A                 1444 	ld	a,d
   0664 9C                 1445 	sbc	a,h
   0665 F8 0B              1446 	ldhl	sp,#11
   0667 77                 1447 	ld	(hl),a
   0668 2B                 1448 	dec	hl
   0669 73                 1449 	ld	(hl),e
   066A 23                 1450 	inc	hl
   066B 2B                 1451 	dec	hl
   066C 5E                 1452 	ld	e,(hl)
   066D 23                 1453 	inc	hl
   066E 56                 1454 	ld	d,(hl)
   066F 1A                 1455 	ld	a,(de)
   0670 F8 04              1456 	ldhl	sp,#4
   0672 77                 1457 	ld	(hl),a
   0673 13                 1458 	inc	de
   0674 1A                 1459 	ld	a,(de)
   0675 23                 1460 	inc	hl
   0676 77                 1461 	ld	(hl),a
   0677 13                 1462 	inc	de
   0678 1A                 1463 	ld	a,(de)
   0679 23                 1464 	inc	hl
   067A 77                 1465 	ld	(hl),a
   067B 13                 1466 	inc	de
   067C 1A                 1467 	ld	a,(de)
   067D 23                 1468 	inc	hl
   067E 77                 1469 	ld	(hl),a
   067F 59                 1470 	ld	e,c
   0680 50                 1471 	ld	d,b
   0681 F8 04              1472 	ldhl	sp,#4
   0683 7E                 1473 	ld	a,(hl)
   0684 12                 1474 	ld	(de),a
   0685 13                 1475 	inc	de
   0686 23                 1476 	inc	hl
   0687 7E                 1477 	ld	a,(hl)
   0688 12                 1478 	ld	(de),a
   0689 13                 1479 	inc	de
   068A 23                 1480 	inc	hl
   068B 7E                 1481 	ld	a,(hl)
   068C 12                 1482 	ld	(de),a
   068D 13                 1483 	inc	de
   068E 23                 1484 	inc	hl
   068F 7E                 1485 	ld	a,(hl)
   0690 12                 1486 	ld	(de),a
                           1487 ;../printf_large.c:658: PTR="<NO FLOAT>";
   0691 F8 27              1488 	ldhl	sp,#39
   0693 4D                 1489 	ld	c,l
   0694 44                 1490 	ld	b,h
   0695 59                 1491 	ld	e,c
   0696 50                 1492 	ld	d,b
   0697 3ErF8              1493 	ld	a,#<(__str_0)
   0699 12                 1494 	ld	(de),a
   069A 13                 1495 	inc	de
   069B 3Es0C              1496 	ld	a,#>(__str_0)
   069D 12                 1497 	ld	(de),a
                           1498 ;../printf_large.c:659: while (c=*PTR++)
   069E F8 15              1499 	ldhl	sp,#21
   06A0 7E                 1500 	ld	a,(hl)
   06A1 23                 1501 	inc	hl
   06A2 5E                 1502 	ld	e,(hl)
   06A3 F8 04              1503 	ldhl	sp,#4
   06A5 77                 1504 	ld	(hl),a
   06A6 23                 1505 	inc	hl
   06A7 73                 1506 	ld	(hl),e
   06A8                    1507 00157$:
   06A8 F8 27              1508 	ldhl	sp,#39
   06AA 4D                 1509 	ld	c,l
   06AB 44                 1510 	ld	b,h
   06AC 59                 1511 	ld	e,c
   06AD 50                 1512 	ld	d,b
   06AE 1A                 1513 	ld	a,(de)
   06AF F8 0A              1514 	ldhl	sp,#10
   06B1 77                 1515 	ld	(hl),a
   06B2 13                 1516 	inc	de
   06B3 1A                 1517 	ld	a,(de)
   06B4 23                 1518 	inc	hl
   06B5 77                 1519 	ld	(hl),a
   06B6 2B                 1520 	dec	hl
   06B7 5E                 1521 	ld	e,(hl)
   06B8 23                 1522 	inc	hl
   06B9 56                 1523 	ld	d,(hl)
   06BA 21 01 00           1524 	ld	hl,#0x0001
   06BD 19                 1525 	add	hl,de
   06BE 7D                 1526 	ld	a,l
   06BF 54                 1527 	ld	d,h
   06C0 F8 0D              1528 	ldhl	sp,#13
   06C2 77                 1529 	ld	(hl),a
   06C3 23                 1530 	inc	hl
   06C4 72                 1531 	ld	(hl),d
   06C5 59                 1532 	ld	e,c
   06C6 50                 1533 	ld	d,b
   06C7 2B                 1534 	dec	hl
   06C8 7E                 1535 	ld	a,(hl)
   06C9 12                 1536 	ld	(de),a
   06CA 13                 1537 	inc	de
   06CB 23                 1538 	inc	hl
   06CC 7E                 1539 	ld	a,(hl)
   06CD 12                 1540 	ld	(de),a
   06CE F8 0B              1541 	ldhl	sp,#11
   06D0 2B                 1542 	dec	hl
   06D1 5E                 1543 	ld	e,(hl)
   06D2 23                 1544 	inc	hl
   06D3 56                 1545 	ld	d,(hl)
   06D4 1A                 1546 	ld	a,(de)
   06D5 4F                 1547 	ld	c,a
   06D6 41                 1548 	ld	b,c
   06D7 AF                 1549 	xor	a,a
   06D8 B1                 1550 	or	a,c
   06D9 CAr62s01           1551 	jp	Z,00227$
                           1552 ;../printf_large.c:661: OUTPUT_CHAR (c, p);
   06DC F8 39              1553 	ldhl	sp,#57
   06DE 7E                 1554 	ld	a,(hl)
   06DF 23                 1555 	inc	hl
   06E0 66                 1556 	ld	h,(hl)
   06E1 6F                 1557 	ld	l,a
   06E2 E5                 1558 	push	hl
   06E3 C5                 1559 	push	bc
   06E4 33                 1560 	inc	sp
   06E5 21rF0s06           1561 	ld	hl,#00357$
   06E8 E5                 1562 	push	hl
   06E9 F8 3C              1563 	ldhl	sp,#60
   06EB 7E                 1564 	ld	a,(hl)
   06EC 23                 1565 	inc	hl
   06ED 66                 1566 	ld	h,(hl)
   06EE 6F                 1567 	ld	l,a
   06EF E9                 1568 	jp	(hl)
   06F0                    1569 00357$:
   06F0 E8 03              1570 	lda	sp,3(sp)
   06F2 F8 04              1571 	ldhl	sp,#4
   06F4 34                 1572 	inc	(hl)
   06F5 C2rFAs06           1573 	jp	NZ,00358$
   06F8 23                 1574 	inc	hl
   06F9 34                 1575 	inc	(hl)
   06FA                    1576 00358$:
   06FA 2B                 1577 	dec	hl
   06FB 7E                 1578 	ld	a,(hl)
   06FC 23                 1579 	inc	hl
   06FD 5E                 1580 	ld	e,(hl)
   06FE F8 15              1581 	ldhl	sp,#21
   0700 77                 1582 	ld	(hl),a
   0701 23                 1583 	inc	hl
   0702 73                 1584 	ld	(hl),e
   0703 C3rA8s06           1585 	jp	00157$
   0706                    1586 00222$:
                           1587 ;../printf_large.c:678: } else if (radix != 0)
   0706 AF                 1588 	xor	a,a
   0707 F8 24              1589 	ldhl	sp,#36
   0709 B6                 1590 	or	a,(hl)
   070A CAr62s01           1591 	jp	Z,00227$
                           1592 ;../printf_large.c:683: unsigned char MEM_SPACE_BUF_PP *pstore = &store[5];
   070D F8 11              1593 	ldhl	sp,#17
   070F 7E                 1594 	ld	a,(hl)
   0710 23                 1595 	inc	hl
   0711 5E                 1596 	ld	e,(hl)
   0712 F8 19              1597 	ldhl	sp,#25
   0714 77                 1598 	ld	(hl),a
   0715 23                 1599 	inc	hl
   0716 73                 1600 	ld	(hl),e
                           1601 ;../printf_large.c:686: if (char_argument)
   0717 F8 2F              1602 	ldhl	sp,#47
   0719 CB 46              1603 	bit	0,(hl)
   071B CAr96s07           1604 	jp	Z,00168$
                           1605 ;../printf_large.c:688: value.l = va_arg(ap,char);
   071E F8 27              1606 	ldhl	sp,#39
   0720 7D                 1607 	ld	a,l
   0721 54                 1608 	ld	d,h
   0722 F8 04              1609 	ldhl	sp,#4
   0724 77                 1610 	ld	(hl),a
   0725 23                 1611 	inc	hl
   0726 72                 1612 	ld	(hl),d
   0727 F8 3D              1613 	ldhl	sp,#61
   0729 4E                 1614 	ld	c,(hl)
   072A 23                 1615 	inc	hl
   072B 46                 1616 	ld	b,(hl)
   072C 03                 1617 	inc	bc
   072D 2B                 1618 	dec	hl
   072E 71                 1619 	ld	(hl),c
   072F 23                 1620 	inc	hl
   0730 70                 1621 	ld	(hl),b
   0731 0B                 1622 	dec	bc
   0732 0A                 1623 	ld	a,(bc)
   0733 4F                 1624 	ld	c,a
   0734 F8 00              1625 	ldhl	sp,#0
   0736 71                 1626 	ld	(hl),c
   0737 79                 1627 	ld	a,c
   0738 17                 1628 	rla	
   0739 9F                 1629 	sbc	a,a
   073A 23                 1630 	inc	hl
   073B 77                 1631 	ld	(hl),a
   073C 23                 1632 	inc	hl
   073D 77                 1633 	ld	(hl),a
   073E 23                 1634 	inc	hl
   073F 77                 1635 	ld	(hl),a
   0740 23                 1636 	inc	hl
   0741 23                 1637 	inc	hl
   0742 2B                 1638 	dec	hl
   0743 5E                 1639 	ld	e,(hl)
   0744 23                 1640 	inc	hl
   0745 56                 1641 	ld	d,(hl)
   0746 F8 00              1642 	ldhl	sp,#0
   0748 7E                 1643 	ld	a,(hl)
   0749 12                 1644 	ld	(de),a
   074A 13                 1645 	inc	de
   074B 23                 1646 	inc	hl
   074C 7E                 1647 	ld	a,(hl)
   074D 12                 1648 	ld	(de),a
   074E 13                 1649 	inc	de
   074F 23                 1650 	inc	hl
   0750 7E                 1651 	ld	a,(hl)
   0751 12                 1652 	ld	(de),a
   0752 13                 1653 	inc	de
   0753 23                 1654 	inc	hl
   0754 7E                 1655 	ld	a,(hl)
   0755 12                 1656 	ld	(de),a
                           1657 ;../printf_large.c:689: if (!signed_argument)
   0756 F8 30              1658 	ldhl	sp,#48
   0758 CB 46              1659 	bit	0,(hl)
   075A C2r84s08           1660 	jp	NZ,00169$
                           1661 ;../printf_large.c:691: value.l &= 0xFF;
   075D F8 05              1662 	ldhl	sp,#5
   075F 2B                 1663 	dec	hl
   0760 5E                 1664 	ld	e,(hl)
   0761 23                 1665 	inc	hl
   0762 56                 1666 	ld	d,(hl)
   0763 1A                 1667 	ld	a,(de)
   0764 F8 00              1668 	ldhl	sp,#0
   0766 77                 1669 	ld	(hl),a
   0767 13                 1670 	inc	de
   0768 1A                 1671 	ld	a,(de)
   0769 23                 1672 	inc	hl
   076A 77                 1673 	ld	(hl),a
   076B 13                 1674 	inc	de
   076C 1A                 1675 	ld	a,(de)
   076D 23                 1676 	inc	hl
   076E 77                 1677 	ld	(hl),a
   076F 13                 1678 	inc	de
   0770 1A                 1679 	ld	a,(de)
   0771 23                 1680 	inc	hl
   0772 77                 1681 	ld	(hl),a
   0773 2B                 1682 	dec	hl
   0774 2B                 1683 	dec	hl
   0775 36 00              1684 	ld	(hl),#0x00
   0777 23                 1685 	inc	hl
   0778 36 00              1686 	ld	(hl),#0x00
   077A 23                 1687 	inc	hl
   077B 36 00              1688 	ld	(hl),#0x00
   077D 23                 1689 	inc	hl
   077E 23                 1690 	inc	hl
   077F 2B                 1691 	dec	hl
   0780 5E                 1692 	ld	e,(hl)
   0781 23                 1693 	inc	hl
   0782 56                 1694 	ld	d,(hl)
   0783 F8 00              1695 	ldhl	sp,#0
   0785 7E                 1696 	ld	a,(hl)
   0786 12                 1697 	ld	(de),a
   0787 13                 1698 	inc	de
   0788 23                 1699 	inc	hl
   0789 7E                 1700 	ld	a,(hl)
   078A 12                 1701 	ld	(de),a
   078B 13                 1702 	inc	de
   078C 23                 1703 	inc	hl
   078D 7E                 1704 	ld	a,(hl)
   078E 12                 1705 	ld	(de),a
   078F 13                 1706 	inc	de
   0790 23                 1707 	inc	hl
   0791 7E                 1708 	ld	a,(hl)
   0792 12                 1709 	ld	(de),a
   0793 C3r84s08           1710 	jp	00169$
   0796                    1711 00168$:
                           1712 ;../printf_large.c:694: else if (long_argument)
   0796 F8 2E              1713 	ldhl	sp,#46
   0798 CB 46              1714 	bit	0,(hl)
   079A CArF7s07           1715 	jp	Z,00165$
                           1716 ;../printf_large.c:696: value.l = va_arg(ap,long);
   079D F8 27              1717 	ldhl	sp,#39
   079F 4D                 1718 	ld	c,l
   07A0 44                 1719 	ld	b,h
   07A1 F8 3E              1720 	ldhl	sp,#62
   07A3 2B                 1721 	dec	hl
   07A4 5E                 1722 	ld	e,(hl)
   07A5 23                 1723 	inc	hl
   07A6 56                 1724 	ld	d,(hl)
   07A7 21 04 00           1725 	ld	hl,#0x0004
   07AA 19                 1726 	add	hl,de
   07AB 7D                 1727 	ld	a,l
   07AC 54                 1728 	ld	d,h
   07AD F8 04              1729 	ldhl	sp,#4
   07AF 77                 1730 	ld	(hl),a
   07B0 23                 1731 	inc	hl
   07B1 72                 1732 	ld	(hl),d
   07B2 2B                 1733 	dec	hl
   07B3 7E                 1734 	ld	a,(hl)
   07B4 23                 1735 	inc	hl
   07B5 5E                 1736 	ld	e,(hl)
   07B6 F8 3D              1737 	ldhl	sp,#61
   07B8 77                 1738 	ld	(hl),a
   07B9 23                 1739 	inc	hl
   07BA 73                 1740 	ld	(hl),e
   07BB F8 05              1741 	ldhl	sp,#5
   07BD 2B                 1742 	dec	hl
   07BE 5E                 1743 	ld	e,(hl)
   07BF 23                 1744 	inc	hl
   07C0 56                 1745 	ld	d,(hl)
   07C1 21 04 00           1746 	ld	hl,#0x0004
   07C4 7B                 1747 	ld	a,e
   07C5 95                 1748 	sub	a,l
   07C6 5F                 1749 	ld	e,a
   07C7 7A                 1750 	ld	a,d
   07C8 9C                 1751 	sbc	a,h
   07C9 F8 05              1752 	ldhl	sp,#5
   07CB 77                 1753 	ld	(hl),a
   07CC 2B                 1754 	dec	hl
   07CD 73                 1755 	ld	(hl),e
   07CE 23                 1756 	inc	hl
   07CF 2B                 1757 	dec	hl
   07D0 5E                 1758 	ld	e,(hl)
   07D1 23                 1759 	inc	hl
   07D2 56                 1760 	ld	d,(hl)
   07D3 1A                 1761 	ld	a,(de)
   07D4 2B                 1762 	dec	hl
   07D5 77                 1763 	ld	(hl),a
   07D6 13                 1764 	inc	de
   07D7 1A                 1765 	ld	a,(de)
   07D8 23                 1766 	inc	hl
   07D9 77                 1767 	ld	(hl),a
   07DA 13                 1768 	inc	de
   07DB 1A                 1769 	ld	a,(de)
   07DC 23                 1770 	inc	hl
   07DD 77                 1771 	ld	(hl),a
   07DE 13                 1772 	inc	de
   07DF 1A                 1773 	ld	a,(de)
   07E0 23                 1774 	inc	hl
   07E1 77                 1775 	ld	(hl),a
   07E2 59                 1776 	ld	e,c
   07E3 50                 1777 	ld	d,b
   07E4 F8 04              1778 	ldhl	sp,#4
   07E6 7E                 1779 	ld	a,(hl)
   07E7 12                 1780 	ld	(de),a
   07E8 13                 1781 	inc	de
   07E9 23                 1782 	inc	hl
   07EA 7E                 1783 	ld	a,(hl)
   07EB 12                 1784 	ld	(de),a
   07EC 13                 1785 	inc	de
   07ED 23                 1786 	inc	hl
   07EE 7E                 1787 	ld	a,(hl)
   07EF 12                 1788 	ld	(de),a
   07F0 13                 1789 	inc	de
   07F1 23                 1790 	inc	hl
   07F2 7E                 1791 	ld	a,(hl)
   07F3 12                 1792 	ld	(de),a
   07F4 C3r84s08           1793 	jp	00169$
   07F7                    1794 00165$:
                           1795 ;../printf_large.c:700: value.l = va_arg(ap,int);
   07F7 F8 27              1796 	ldhl	sp,#39
   07F9 4D                 1797 	ld	c,l
   07FA 44                 1798 	ld	b,h
   07FB F8 3E              1799 	ldhl	sp,#62
   07FD 2B                 1800 	dec	hl
   07FE 5E                 1801 	ld	e,(hl)
   07FF 23                 1802 	inc	hl
   0800 56                 1803 	ld	d,(hl)
   0801 21 02 00           1804 	ld	hl,#0x0002
   0804 19                 1805 	add	hl,de
   0805 7D                 1806 	ld	a,l
   0806 54                 1807 	ld	d,h
   0807 F8 04              1808 	ldhl	sp,#4
   0809 77                 1809 	ld	(hl),a
   080A 23                 1810 	inc	hl
   080B 72                 1811 	ld	(hl),d
   080C 2B                 1812 	dec	hl
   080D 7E                 1813 	ld	a,(hl)
   080E 23                 1814 	inc	hl
   080F 5E                 1815 	ld	e,(hl)
   0810 F8 3D              1816 	ldhl	sp,#61
   0812 77                 1817 	ld	(hl),a
   0813 23                 1818 	inc	hl
   0814 73                 1819 	ld	(hl),e
   0815 F8 05              1820 	ldhl	sp,#5
   0817 2B                 1821 	dec	hl
   0818 5E                 1822 	ld	e,(hl)
   0819 23                 1823 	inc	hl
   081A 56                 1824 	ld	d,(hl)
   081B 21 02 00           1825 	ld	hl,#0x0002
   081E 7B                 1826 	ld	a,e
   081F 95                 1827 	sub	a,l
   0820 5F                 1828 	ld	e,a
   0821 7A                 1829 	ld	a,d
   0822 9C                 1830 	sbc	a,h
   0823 F8 05              1831 	ldhl	sp,#5
   0825 77                 1832 	ld	(hl),a
   0826 2B                 1833 	dec	hl
   0827 73                 1834 	ld	(hl),e
   0828 23                 1835 	inc	hl
   0829 2B                 1836 	dec	hl
   082A 5E                 1837 	ld	e,(hl)
   082B 23                 1838 	inc	hl
   082C 56                 1839 	ld	d,(hl)
   082D 1A                 1840 	ld	a,(de)
   082E 2B                 1841 	dec	hl
   082F 77                 1842 	ld	(hl),a
   0830 13                 1843 	inc	de
   0831 1A                 1844 	ld	a,(de)
   0832 23                 1845 	inc	hl
   0833 77                 1846 	ld	(hl),a
   0834 2B                 1847 	dec	hl
   0835 7E                 1848 	ld	a,(hl)
   0836 77                 1849 	ld	(hl),a
   0837 23                 1850 	inc	hl
   0838 7E                 1851 	ld	a,(hl)
   0839 77                 1852 	ld	(hl),a
   083A 7E                 1853 	ld	a,(hl)
   083B 17                 1854 	rla	
   083C 9F                 1855 	sbc	a,a
   083D 23                 1856 	inc	hl
   083E 77                 1857 	ld	(hl),a
   083F 23                 1858 	inc	hl
   0840 77                 1859 	ld	(hl),a
   0841 59                 1860 	ld	e,c
   0842 50                 1861 	ld	d,b
   0843 F8 04              1862 	ldhl	sp,#4
   0845 7E                 1863 	ld	a,(hl)
   0846 12                 1864 	ld	(de),a
   0847 13                 1865 	inc	de
   0848 23                 1866 	inc	hl
   0849 7E                 1867 	ld	a,(hl)
   084A 12                 1868 	ld	(de),a
   084B 13                 1869 	inc	de
   084C 23                 1870 	inc	hl
   084D 7E                 1871 	ld	a,(hl)
   084E 12                 1872 	ld	(de),a
   084F 13                 1873 	inc	de
   0850 23                 1874 	inc	hl
   0851 7E                 1875 	ld	a,(hl)
   0852 12                 1876 	ld	(de),a
                           1877 ;../printf_large.c:701: if (!signed_argument)
   0853 F8 30              1878 	ldhl	sp,#48
   0855 CB 46              1879 	bit	0,(hl)
   0857 C2r84s08           1880 	jp	NZ,00169$
                           1881 ;../printf_large.c:703: value.l &= 0xFFFF;
   085A 59                 1882 	ld	e,c
   085B 50                 1883 	ld	d,b
   085C 1A                 1884 	ld	a,(de)
   085D F8 04              1885 	ldhl	sp,#4
   085F 77                 1886 	ld	(hl),a
   0860 13                 1887 	inc	de
   0861 1A                 1888 	ld	a,(de)
   0862 23                 1889 	inc	hl
   0863 77                 1890 	ld	(hl),a
   0864 13                 1891 	inc	de
   0865 1A                 1892 	ld	a,(de)
   0866 23                 1893 	inc	hl
   0867 77                 1894 	ld	(hl),a
   0868 13                 1895 	inc	de
   0869 1A                 1896 	ld	a,(de)
   086A 23                 1897 	inc	hl
   086B 77                 1898 	ld	(hl),a
   086C 2B                 1899 	dec	hl
   086D 36 00              1900 	ld	(hl),#0x00
   086F 23                 1901 	inc	hl
   0870 36 00              1902 	ld	(hl),#0x00
   0872 59                 1903 	ld	e,c
   0873 50                 1904 	ld	d,b
   0874 F8 04              1905 	ldhl	sp,#4
   0876 7E                 1906 	ld	a,(hl)
   0877 12                 1907 	ld	(de),a
   0878 13                 1908 	inc	de
   0879 23                 1909 	inc	hl
   087A 7E                 1910 	ld	a,(hl)
   087B 12                 1911 	ld	(de),a
   087C 13                 1912 	inc	de
   087D 23                 1913 	inc	hl
   087E 7E                 1914 	ld	a,(hl)
   087F 12                 1915 	ld	(de),a
   0880 13                 1916 	inc	de
   0881 23                 1917 	inc	hl
   0882 7E                 1918 	ld	a,(hl)
   0883 12                 1919 	ld	(de),a
   0884                    1920 00169$:
                           1921 ;../printf_large.c:707: if ( signed_argument )
   0884 F8 30              1922 	ldhl	sp,#48
   0886 CB 46              1923 	bit	0,(hl)
   0888 CAr02s09           1924 	jp	Z,00174$
                           1925 ;../printf_large.c:709: if (value.l < 0)
   088B F8 27              1926 	ldhl	sp,#39
   088D 4D                 1927 	ld	c,l
   088E 44                 1928 	ld	b,h
   088F 59                 1929 	ld	e,c
   0890 50                 1930 	ld	d,b
   0891 1A                 1931 	ld	a,(de)
   0892 F8 04              1932 	ldhl	sp,#4
   0894 77                 1933 	ld	(hl),a
   0895 13                 1934 	inc	de
   0896 1A                 1935 	ld	a,(de)
   0897 23                 1936 	inc	hl
   0898 77                 1937 	ld	(hl),a
   0899 13                 1938 	inc	de
   089A 1A                 1939 	ld	a,(de)
   089B 23                 1940 	inc	hl
   089C 77                 1941 	ld	(hl),a
   089D 13                 1942 	inc	de
   089E 1A                 1943 	ld	a,(de)
   089F 23                 1944 	inc	hl
   08A0 77                 1945 	ld	(hl),a
   08A1 F8 04              1946 	ldhl	sp,#4
   08A3 7E                 1947 	ld	a, (hl)
   08A4 D6 00              1948 	sub	a, #0x00
   08A6 23                 1949 	inc	hl
   08A7 7E                 1950 	ld	a, (hl)
   08A8 DE 00              1951 	sbc	a, #0x00
   08AA 23                 1952 	inc	hl
   08AB 7E                 1953 	ld	a, (hl)
   08AC DE 00              1954 	sbc	a, #0x00
   08AE 23                 1955 	inc	hl
   08AF 7E                 1956 	ld	a, (hl)
   08B0 DE 00              1957 	sbc	a, #0x00
   08B2 56                 1958 	ld	d, (hl)
   08B3 3E 00              1959 	ld	a, #0x00
   08B5 5F                 1960 	ld	e, a
   08B6 CB 7B              1961 	bit	7, e
   08B8 CArC3s08           1962 	jp	Z, 00359$
   08BB CB 7A              1963 	bit	7, d
   08BD C2rC9s08           1964 	jp	NZ, 00360$
   08C0 BF                 1965 	cp	a, a
   08C1 18 06              1966 	jr	00360$
   08C3                    1967 00359$:
   08C3 CB 7A              1968 	bit	7, d
   08C5 CArC9s08           1969 	jp	Z, 00360$
   08C8 37                 1970 	scf
   08C9                    1971 00360$:
   08C9 D2rFEs08           1972 	jp	NC,00171$
                           1973 ;../printf_large.c:710: value.l = -value.l;
   08CC 11 00 00           1974 	ld	de,#0x0000
   08CF 7B                 1975 	ld	a,e
   08D0 F8 04              1976 	ldhl	sp,#4
   08D2 96                 1977 	sub	a,(hl)
   08D3 5F                 1978 	ld	e,a
   08D4 7A                 1979 	ld	a,d
   08D5 23                 1980 	inc	hl
   08D6 9E                 1981 	sbc	a,(hl)
   08D7 F5                 1982 	push	af
   08D8 77                 1983 	ld	(hl),a
   08D9 2B                 1984 	dec	hl
   08DA 73                 1985 	ld	(hl),e
   08DB 11 00 00           1986 	ld	de,#0x0000
   08DE 23                 1987 	inc	hl
   08DF 23                 1988 	inc	hl
   08E0 F1                 1989 	pop	af
   08E1 7B                 1990 	ld	a,e
   08E2 9E                 1991 	sbc	a,(hl)
   08E3 5F                 1992 	ld	e,a
   08E4 7A                 1993 	ld	a,d
   08E5 23                 1994 	inc	hl
   08E6 9E                 1995 	sbc	a,(hl)
   08E7 77                 1996 	ld	(hl),a
   08E8 2B                 1997 	dec	hl
   08E9 73                 1998 	ld	(hl),e
   08EA 59                 1999 	ld	e,c
   08EB 50                 2000 	ld	d,b
   08EC 2B                 2001 	dec	hl
   08ED 2B                 2002 	dec	hl
   08EE 7E                 2003 	ld	a,(hl)
   08EF 12                 2004 	ld	(de),a
   08F0 13                 2005 	inc	de
   08F1 23                 2006 	inc	hl
   08F2 7E                 2007 	ld	a,(hl)
   08F3 12                 2008 	ld	(de),a
   08F4 13                 2009 	inc	de
   08F5 23                 2010 	inc	hl
   08F6 7E                 2011 	ld	a,(hl)
   08F7 12                 2012 	ld	(de),a
   08F8 13                 2013 	inc	de
   08F9 23                 2014 	inc	hl
   08FA 7E                 2015 	ld	a,(hl)
   08FB 12                 2016 	ld	(de),a
   08FC 18 04              2017 	jr	00174$
   08FE                    2018 00171$:
                           2019 ;../printf_large.c:712: signed_argument = 0;
   08FE F8 30              2020 	ldhl	sp,#48
   0900 36 00              2021 	ld	(hl),#0x00
   0902                    2022 00174$:
                           2023 ;../printf_large.c:716: lsd = 1;
   0902 06 01              2024 	ld	b,#0x01
                           2025 ;../printf_large.c:718: do {
   0904 F8 19              2026 	ldhl	sp,#25
   0906 7E                 2027 	ld	a,(hl)
   0907 23                 2028 	inc	hl
   0908 5E                 2029 	ld	e,(hl)
   0909 F8 00              2030 	ldhl	sp,#0
   090B 77                 2031 	ld	(hl),a
   090C 23                 2032 	inc	hl
   090D 73                 2033 	ld	(hl),e
   090E F8 21              2034 	ldhl	sp,#33
   0910 36 00              2035 	ld	(hl),#0x00
   0912                    2036 00178$:
                           2037 ;../printf_large.c:719: value.byte[4] = 0;
   0912 F8 27              2038 	ldhl	sp,#39
   0914 7D                 2039 	ld	a,l
   0915 54                 2040 	ld	d,h
   0916 F8 04              2041 	ldhl	sp,#4
   0918 77                 2042 	ld	(hl),a
   0919 23                 2043 	inc	hl
   091A 72                 2044 	ld	(hl),d
   091B 2B                 2045 	dec	hl
   091C 5E                 2046 	ld	e,(hl)
   091D 23                 2047 	inc	hl
   091E 56                 2048 	ld	d,(hl)
   091F 21 04 00           2049 	ld	hl,#0x0004
   0922 19                 2050 	add	hl,de
   0923 7D                 2051 	ld	a,l
   0924 54                 2052 	ld	d,h
   0925 F8 04              2053 	ldhl	sp,#4
   0927 77                 2054 	ld	(hl),a
   0928 23                 2055 	inc	hl
   0929 72                 2056 	ld	(hl),d
   092A 2B                 2057 	dec	hl
   092B 5E                 2058 	ld	e,(hl)
   092C 23                 2059 	inc	hl
   092D 56                 2060 	ld	d,(hl)
   092E 3E 00              2061 	ld	a,#0x00
   0930 12                 2062 	ld	(de),a
                           2063 ;../printf_large.c:721: calculate_digit(&value, radix);
   0931 F8 27              2064 	ldhl	sp,#39
   0933 7D                 2065 	ld	a,l
   0934 54                 2066 	ld	d,h
   0935 F8 04              2067 	ldhl	sp,#4
   0937 77                 2068 	ld	(hl),a
   0938 23                 2069 	inc	hl
   0939 72                 2070 	ld	(hl),d
   093A C5                 2071 	push	bc
   093B F8 26              2072 	ldhl	sp,#38
   093D 7E                 2073 	ld	a,(hl)
   093E F5                 2074 	push	af
   093F 33                 2075 	inc	sp
   0940 F8 07              2076 	ldhl	sp,#7
   0942 7E                 2077 	ld	a,(hl)
   0943 23                 2078 	inc	hl
   0944 66                 2079 	ld	h,(hl)
   0945 6F                 2080 	ld	l,a
   0946 E5                 2081 	push	hl
   0947 CDr7As00           2082 	call	_calculate_digit
   094A E8 03              2083 	lda	sp,3(sp)
   094C C1                 2084 	pop	bc
                           2085 ;../printf_large.c:725: if (!lsd)
   094D CB 40              2086 	bit	0,b
   094F C2rA5s09           2087 	jp	NZ,00176$
                           2088 ;../printf_large.c:727: *pstore = (value.byte[4] << 4) | (value.byte[4] >> 4) | *pstore;
   0952 F8 27              2089 	ldhl	sp,#39
   0954 7D                 2090 	ld	a,l
   0955 54                 2091 	ld	d,h
   0956 F8 04              2092 	ldhl	sp,#4
   0958 77                 2093 	ld	(hl),a
   0959 23                 2094 	inc	hl
   095A 72                 2095 	ld	(hl),d
   095B 2B                 2096 	dec	hl
   095C 5E                 2097 	ld	e,(hl)
   095D 23                 2098 	inc	hl
   095E 56                 2099 	ld	d,(hl)
   095F 21 04 00           2100 	ld	hl,#0x0004
   0962 19                 2101 	add	hl,de
   0963 7D                 2102 	ld	a,l
   0964 54                 2103 	ld	d,h
   0965 F8 04              2104 	ldhl	sp,#4
   0967 77                 2105 	ld	(hl),a
   0968 23                 2106 	inc	hl
   0969 72                 2107 	ld	(hl),d
   096A 2B                 2108 	dec	hl
   096B 5E                 2109 	ld	e,(hl)
   096C 23                 2110 	inc	hl
   096D 56                 2111 	ld	d,(hl)
   096E 1A                 2112 	ld	a,(de)
   096F 4F                 2113 	ld	c,a
   0970 07                 2114 	rlca
   0971 07                 2115 	rlca
   0972 07                 2116 	rlca
   0973 07                 2117 	rlca
   0974 E6 F0              2118 	and	a,#0xF0
   0976 F8 08              2119 	ldhl	sp,#8
   0978 77                 2120 	ld	(hl),a
   0979 CB 39              2121 	srl	c
   097B CB 39              2122 	srl	c
   097D CB 39              2123 	srl	c
   097F CB 39              2124 	srl	c
   0981 79                 2125 	ld	a,c
   0982 B6                 2126 	or	a, (hl)
   0983 4F                 2127 	ld	c,a
   0984 F8 01              2128 	ldhl	sp,#1
   0986 2B                 2129 	dec	hl
   0987 5E                 2130 	ld	e,(hl)
   0988 23                 2131 	inc	hl
   0989 56                 2132 	ld	d,(hl)
   098A 1A                 2133 	ld	a,(de)
   098B B1                 2134 	or	a, c
   098C 2B                 2135 	dec	hl
   098D 5E                 2136 	ld	e,(hl)
   098E 23                 2137 	inc	hl
   098F 56                 2138 	ld	d,(hl)
   0990 12                 2139 	ld	(de),a
                           2140 ;../printf_large.c:728: pstore--;
   0991 2B                 2141 	dec	hl
   0992 5E                 2142 	ld	e,(hl)
   0993 23                 2143 	inc	hl
   0994 56                 2144 	ld	d,(hl)
   0995 1B                 2145 	dec	de
   0996 2B                 2146 	dec	hl
   0997 73                 2147 	ld	(hl),e
   0998 23                 2148 	inc	hl
   0999 72                 2149 	ld	(hl),d
   099A 2B                 2150 	dec	hl
   099B 7E                 2151 	ld	a,(hl)
   099C 23                 2152 	inc	hl
   099D 5E                 2153 	ld	e,(hl)
   099E F8 19              2154 	ldhl	sp,#25
   09A0 77                 2155 	ld	(hl),a
   09A1 23                 2156 	inc	hl
   09A2 73                 2157 	ld	(hl),e
   09A3 18 24              2158 	jr	00177$
   09A5                    2159 00176$:
                           2160 ;../printf_large.c:732: *pstore = value.byte[4];
   09A5 F8 27              2161 	ldhl	sp,#39
   09A7 7D                 2162 	ld	a,l
   09A8 54                 2163 	ld	d,h
   09A9 F8 04              2164 	ldhl	sp,#4
   09AB 77                 2165 	ld	(hl),a
   09AC 23                 2166 	inc	hl
   09AD 72                 2167 	ld	(hl),d
   09AE 2B                 2168 	dec	hl
   09AF 5E                 2169 	ld	e,(hl)
   09B0 23                 2170 	inc	hl
   09B1 56                 2171 	ld	d,(hl)
   09B2 21 04 00           2172 	ld	hl,#0x0004
   09B5 19                 2173 	add	hl,de
   09B6 7D                 2174 	ld	a,l
   09B7 54                 2175 	ld	d,h
   09B8 F8 04              2176 	ldhl	sp,#4
   09BA 77                 2177 	ld	(hl),a
   09BB 23                 2178 	inc	hl
   09BC 72                 2179 	ld	(hl),d
   09BD 2B                 2180 	dec	hl
   09BE 5E                 2181 	ld	e,(hl)
   09BF 23                 2182 	inc	hl
   09C0 56                 2183 	ld	d,(hl)
   09C1 1A                 2184 	ld	a,(de)
   09C2 F8 01              2185 	ldhl	sp,#1
   09C4 2B                 2186 	dec	hl
   09C5 5E                 2187 	ld	e,(hl)
   09C6 23                 2188 	inc	hl
   09C7 56                 2189 	ld	d,(hl)
   09C8 12                 2190 	ld	(de),a
   09C9                    2191 00177$:
                           2192 ;../printf_large.c:734: length++;
   09C9 F8 21              2193 	ldhl	sp,#33
   09CB 34                 2194 	inc	(hl)
   09CC E5                 2195 	push	hl
   09CD 7E                 2196 	ld	a,(hl)
   09CE F8 0C              2197 	ldhl	sp,#12
   09D0 77                 2198 	ld	(hl),a
   09D1 E1                 2199 	pop	hl
                           2200 ;../printf_large.c:735: lsd = !lsd;
   09D2 78                 2201 	ld	a,b
   09D3 EE 01              2202 	xor	a,#0x01
   09D5 47                 2203 	ld	b,a
                           2204 ;../printf_large.c:736: } while( value.ul );
   09D6 F8 14              2205 	ldhl	sp,#20
   09D8 2B                 2206 	dec	hl
   09D9 5E                 2207 	ld	e,(hl)
   09DA 23                 2208 	inc	hl
   09DB 56                 2209 	ld	d,(hl)
   09DC 1A                 2210 	ld	a,(de)
   09DD F8 04              2211 	ldhl	sp,#4
   09DF 77                 2212 	ld	(hl),a
   09E0 13                 2213 	inc	de
   09E1 1A                 2214 	ld	a,(de)
   09E2 23                 2215 	inc	hl
   09E3 77                 2216 	ld	(hl),a
   09E4 13                 2217 	inc	de
   09E5 1A                 2218 	ld	a,(de)
   09E6 23                 2219 	inc	hl
   09E7 77                 2220 	ld	(hl),a
   09E8 13                 2221 	inc	de
   09E9 1A                 2222 	ld	a,(de)
   09EA 23                 2223 	inc	hl
   09EB 77                 2224 	ld	(hl),a
   09EC F8 04              2225 	ldhl	sp,#4
   09EE 7E                 2226 	ld	a,(hl)
   09EF 23                 2227 	inc	hl
   09F0 B6                 2228 	or	a,(hl)
   09F1 23                 2229 	inc	hl
   09F2 B6                 2230 	or	a,(hl)
   09F3 23                 2231 	inc	hl
   09F4 B6                 2232 	or	a,(hl)
   09F5 C2r12s09           2233 	jp	NZ,00178$
                           2234 ;../printf_large.c:738: if (width == 0)
   09F8 F8 00              2235 	ldhl	sp,#0
   09FA 7E                 2236 	ld	a,(hl)
   09FB 23                 2237 	inc	hl
   09FC 5E                 2238 	ld	e,(hl)
   09FD F8 19              2239 	ldhl	sp,#25
   09FF 77                 2240 	ld	(hl),a
   0A00 23                 2241 	inc	hl
   0A01 73                 2242 	ld	(hl),e
   0A02 E5                 2243 	push	hl
   0A03 F8 21              2244 	ldhl	sp,#33
   0A05 7E                 2245 	ld	a,(hl)
   0A06 F8 0C              2246 	ldhl	sp,#12
   0A08 77                 2247 	ld	(hl),a
   0A09 E1                 2248 	pop	hl
   0A0A AF                 2249 	xor	a,a
   0A0B F8 23              2250 	ldhl	sp,#35
   0A0D B6                 2251 	or	a,(hl)
   0A0E C2r13s0A           2252 	jp	NZ,00182$
                           2253 ;../printf_large.c:743: width=1;
   0A11 36 01              2254 	ld	(hl),#0x01
   0A13                    2255 00182$:
                           2256 ;../printf_large.c:747: if (!zero_padding && !left_justify)
   0A13 F8 33              2257 	ldhl	sp,#51
   0A15 CB 46              2258 	bit	0,(hl)
   0A17 C2r7Fs0A           2259 	jp	NZ,00187$
   0A1A 23                 2260 	inc	hl
   0A1B CB 46              2261 	bit	0,(hl)
   0A1D C2r7Fs0A           2262 	jp	NZ,00187$
                           2263 ;../printf_large.c:749: while ( width > (unsigned char) (length+1) )
   0A20 F8 0C              2264 	ldhl	sp,#12
   0A22 4E                 2265 	ld	c,(hl)
   0A23 0C                 2266 	inc	c
   0A24 F8 15              2267 	ldhl	sp,#21
   0A26 7E                 2268 	ld	a,(hl)
   0A27 23                 2269 	inc	hl
   0A28 5E                 2270 	ld	e,(hl)
   0A29 F8 00              2271 	ldhl	sp,#0
   0A2B 77                 2272 	ld	(hl),a
   0A2C 23                 2273 	inc	hl
   0A2D 73                 2274 	ld	(hl),e
   0A2E E5                 2275 	push	hl
   0A2F F8 23              2276 	ldhl	sp,#35
   0A31 7E                 2277 	ld	a,(hl)
   0A32 F8 04              2278 	ldhl	sp,#4
   0A34 77                 2279 	ld	(hl),a
   0A35 E1                 2280 	pop	hl
   0A36                    2281 00183$:
   0A36 79                 2282 	ld	a,c
   0A37 F8 04              2283 	ldhl	sp,#4
   0A39 96                 2284 	sub	a, (hl)
   0A3A D2r6Ds0A           2285 	jp	NC,00308$
                           2286 ;../printf_large.c:751: OUTPUT_CHAR( ' ', p );
   0A3D C5                 2287 	push	bc
   0A3E F8 3B              2288 	ldhl	sp,#59
   0A40 7E                 2289 	ld	a,(hl)
   0A41 23                 2290 	inc	hl
   0A42 66                 2291 	ld	h,(hl)
   0A43 6F                 2292 	ld	l,a
   0A44 E5                 2293 	push	hl
   0A45 3E 20              2294 	ld	a,#0x20
   0A47 F5                 2295 	push	af
   0A48 33                 2296 	inc	sp
   0A49 21r54s0A           2297 	ld	hl,#00361$
   0A4C E5                 2298 	push	hl
   0A4D F8 3E              2299 	ldhl	sp,#62
   0A4F 7E                 2300 	ld	a,(hl)
   0A50 23                 2301 	inc	hl
   0A51 66                 2302 	ld	h,(hl)
   0A52 6F                 2303 	ld	l,a
   0A53 E9                 2304 	jp	(hl)
   0A54                    2305 00361$:
   0A54 E8 03              2306 	lda	sp,3(sp)
   0A56 C1                 2307 	pop	bc
   0A57 F8 00              2308 	ldhl	sp,#0
   0A59 34                 2309 	inc	(hl)
   0A5A C2r5Fs0A           2310 	jp	NZ,00362$
   0A5D 23                 2311 	inc	hl
   0A5E 34                 2312 	inc	(hl)
   0A5F                    2313 00362$:
   0A5F 2B                 2314 	dec	hl
   0A60 7E                 2315 	ld	a,(hl)
   0A61 23                 2316 	inc	hl
   0A62 5E                 2317 	ld	e,(hl)
   0A63 F8 15              2318 	ldhl	sp,#21
   0A65 77                 2319 	ld	(hl),a
   0A66 23                 2320 	inc	hl
   0A67 73                 2321 	ld	(hl),e
                           2322 ;../printf_large.c:752: width--;
   0A68 F8 04              2323 	ldhl	sp,#4
   0A6A 35                 2324 	dec	(hl)
   0A6B 18 C9              2325 	jr	00183$
   0A6D                    2326 00308$:
   0A6D F8 00              2327 	ldhl	sp,#0
   0A6F 7E                 2328 	ld	a,(hl)
   0A70 23                 2329 	inc	hl
   0A71 5E                 2330 	ld	e,(hl)
   0A72 F8 15              2331 	ldhl	sp,#21
   0A74 77                 2332 	ld	(hl),a
   0A75 23                 2333 	inc	hl
   0A76 73                 2334 	ld	(hl),e
   0A77 E5                 2335 	push	hl
   0A78 F8 04              2336 	ldhl	sp,#4
   0A7A 7E                 2337 	ld	a,(hl)
   0A7B F8 23              2338 	ldhl	sp,#35
   0A7D 77                 2339 	ld	(hl),a
   0A7E E1                 2340 	pop	hl
   0A7F                    2341 00187$:
                           2342 ;../printf_large.c:756: if (signed_argument) // this now means the original value was negative
   0A7F F8 30              2343 	ldhl	sp,#48
   0A81 CB 46              2344 	bit	0,(hl)
   0A83 CArAEs0A           2345 	jp	Z,00197$
                           2346 ;../printf_large.c:758: OUTPUT_CHAR( '-', p );
   0A86 C5                 2347 	push	bc
   0A87 F8 3B              2348 	ldhl	sp,#59
   0A89 7E                 2349 	ld	a,(hl)
   0A8A 23                 2350 	inc	hl
   0A8B 66                 2351 	ld	h,(hl)
   0A8C 6F                 2352 	ld	l,a
   0A8D E5                 2353 	push	hl
   0A8E 3E 2D              2354 	ld	a,#0x2D
   0A90 F5                 2355 	push	af
   0A91 33                 2356 	inc	sp
   0A92 21r9Ds0A           2357 	ld	hl,#00363$
   0A95 E5                 2358 	push	hl
   0A96 F8 3E              2359 	ldhl	sp,#62
   0A98 7E                 2360 	ld	a,(hl)
   0A99 23                 2361 	inc	hl
   0A9A 66                 2362 	ld	h,(hl)
   0A9B 6F                 2363 	ld	l,a
   0A9C E9                 2364 	jp	(hl)
   0A9D                    2365 00363$:
   0A9D E8 03              2366 	lda	sp,3(sp)
   0A9F C1                 2367 	pop	bc
   0AA0 F8 15              2368 	ldhl	sp,#21
   0AA2 34                 2369 	inc	(hl)
   0AA3 C2rA8s0A           2370 	jp	NZ,00364$
   0AA6 23                 2371 	inc	hl
   0AA7 34                 2372 	inc	(hl)
   0AA8                    2373 00364$:
                           2374 ;../printf_large.c:760: width--;
   0AA8 F8 23              2375 	ldhl	sp,#35
   0AAA 35                 2376 	dec	(hl)
   0AAB C3r0Fs0B           2377 	jp	00198$
   0AAE                    2378 00197$:
                           2379 ;../printf_large.c:762: else if (length != 0)
   0AAE AF                 2380 	xor	a,a
   0AAF F8 0C              2381 	ldhl	sp,#12
   0AB1 B6                 2382 	or	a,(hl)
   0AB2 CAr0Fs0B           2383 	jp	Z,00198$
                           2384 ;../printf_large.c:765: if (prefix_sign)
   0AB5 F8 32              2385 	ldhl	sp,#50
   0AB7 CB 46              2386 	bit	0,(hl)
   0AB9 CArE3s0A           2387 	jp	Z,00192$
                           2388 ;../printf_large.c:767: OUTPUT_CHAR( '+', p );
   0ABC C5                 2389 	push	bc
   0ABD F8 3B              2390 	ldhl	sp,#59
   0ABF 7E                 2391 	ld	a,(hl)
   0AC0 23                 2392 	inc	hl
   0AC1 66                 2393 	ld	h,(hl)
   0AC2 6F                 2394 	ld	l,a
   0AC3 E5                 2395 	push	hl
   0AC4 3E 2B              2396 	ld	a,#0x2B
   0AC6 F5                 2397 	push	af
   0AC7 33                 2398 	inc	sp
   0AC8 21rD3s0A           2399 	ld	hl,#00365$
   0ACB E5                 2400 	push	hl
   0ACC F8 3E              2401 	ldhl	sp,#62
   0ACE 7E                 2402 	ld	a,(hl)
   0ACF 23                 2403 	inc	hl
   0AD0 66                 2404 	ld	h,(hl)
   0AD1 6F                 2405 	ld	l,a
   0AD2 E9                 2406 	jp	(hl)
   0AD3                    2407 00365$:
   0AD3 E8 03              2408 	lda	sp,3(sp)
   0AD5 C1                 2409 	pop	bc
   0AD6 F8 15              2410 	ldhl	sp,#21
   0AD8 34                 2411 	inc	(hl)
   0AD9 C2rDEs0A           2412 	jp	NZ,00366$
   0ADC 23                 2413 	inc	hl
   0ADD 34                 2414 	inc	(hl)
   0ADE                    2415 00366$:
                           2416 ;../printf_large.c:769: width--;
   0ADE F8 23              2417 	ldhl	sp,#35
   0AE0 35                 2418 	dec	(hl)
   0AE1 18 2C              2419 	jr	00198$
   0AE3                    2420 00192$:
                           2421 ;../printf_large.c:771: else if (prefix_space)
   0AE3 F8 31              2422 	ldhl	sp,#49
   0AE5 CB 46              2423 	bit	0,(hl)
   0AE7 CAr0Fs0B           2424 	jp	Z,00198$
                           2425 ;../printf_large.c:773: OUTPUT_CHAR( ' ', p );
   0AEA C5                 2426 	push	bc
   0AEB F8 3B              2427 	ldhl	sp,#59
   0AED 7E                 2428 	ld	a,(hl)
   0AEE 23                 2429 	inc	hl
   0AEF 66                 2430 	ld	h,(hl)
   0AF0 6F                 2431 	ld	l,a
   0AF1 E5                 2432 	push	hl
   0AF2 3E 20              2433 	ld	a,#0x20
   0AF4 F5                 2434 	push	af
   0AF5 33                 2435 	inc	sp
   0AF6 21r01s0B           2436 	ld	hl,#00367$
   0AF9 E5                 2437 	push	hl
   0AFA F8 3E              2438 	ldhl	sp,#62
   0AFC 7E                 2439 	ld	a,(hl)
   0AFD 23                 2440 	inc	hl
   0AFE 66                 2441 	ld	h,(hl)
   0AFF 6F                 2442 	ld	l,a
   0B00 E9                 2443 	jp	(hl)
   0B01                    2444 00367$:
   0B01 E8 03              2445 	lda	sp,3(sp)
   0B03 C1                 2446 	pop	bc
   0B04 F8 15              2447 	ldhl	sp,#21
   0B06 34                 2448 	inc	(hl)
   0B07 C2r0Cs0B           2449 	jp	NZ,00368$
   0B0A 23                 2450 	inc	hl
   0B0B 34                 2451 	inc	(hl)
   0B0C                    2452 00368$:
                           2453 ;../printf_large.c:775: width--;
   0B0C F8 23              2454 	ldhl	sp,#35
   0B0E 35                 2455 	dec	(hl)
   0B0F                    2456 00198$:
                           2457 ;../printf_large.c:780: if (!left_justify)
   0B0F F8 34              2458 	ldhl	sp,#52
   0B11 CB 46              2459 	bit	0,(hl)
   0B13 C2r73s0B           2460 	jp	NZ,00206$
                           2461 ;../printf_large.c:781: while ( width-- > length )
   0B16 F8 15              2462 	ldhl	sp,#21
   0B18 7E                 2463 	ld	a,(hl)
   0B19 23                 2464 	inc	hl
   0B1A 5E                 2465 	ld	e,(hl)
   0B1B F8 00              2466 	ldhl	sp,#0
   0B1D 77                 2467 	ld	(hl),a
   0B1E 23                 2468 	inc	hl
   0B1F 73                 2469 	ld	(hl),e
   0B20 E5                 2470 	push	hl
   0B21 F8 23              2471 	ldhl	sp,#35
   0B23 7E                 2472 	ld	a,(hl)
   0B24 F8 04              2473 	ldhl	sp,#4
   0B26 77                 2474 	ld	(hl),a
   0B27 E1                 2475 	pop	hl
   0B28                    2476 00199$:
   0B28 F8 04              2477 	ldhl	sp,#4
   0B2A 4E                 2478 	ld	c,(hl)
   0B2B 35                 2479 	dec	(hl)
   0B2C E5                 2480 	push	hl
   0B2D 7E                 2481 	ld	a,(hl)
   0B2E F8 23              2482 	ldhl	sp,#35
   0B30 77                 2483 	ld	(hl),a
   0B31 E1                 2484 	pop	hl
   0B32 F8 0C              2485 	ldhl	sp,#12
   0B34 7E                 2486 	ld	a,(hl)
   0B35 91                 2487 	sub	a, c
   0B36 D2r8Bs0B           2488 	jp	NC,00309$
                           2489 ;../printf_large.c:783: OUTPUT_CHAR( zero_padding ? '0' : ' ', p );
   0B39 F8 33              2490 	ldhl	sp,#51
   0B3B CB 46              2491 	bit	0,(hl)
   0B3D CAr44s0B           2492 	jp	Z,00232$
   0B40 0E 30              2493 	ld	c,#0x30
   0B42 18 02              2494 	jr	00233$
   0B44                    2495 00232$:
   0B44 0E 20              2496 	ld	c,#0x20
   0B46                    2497 00233$:
   0B46 C5                 2498 	push	bc
   0B47 F8 3B              2499 	ldhl	sp,#59
   0B49 7E                 2500 	ld	a,(hl)
   0B4A 23                 2501 	inc	hl
   0B4B 66                 2502 	ld	h,(hl)
   0B4C 6F                 2503 	ld	l,a
   0B4D E5                 2504 	push	hl
   0B4E 79                 2505 	ld	a,c
   0B4F F5                 2506 	push	af
   0B50 33                 2507 	inc	sp
   0B51 21r5Cs0B           2508 	ld	hl,#00369$
   0B54 E5                 2509 	push	hl
   0B55 F8 3E              2510 	ldhl	sp,#62
   0B57 7E                 2511 	ld	a,(hl)
   0B58 23                 2512 	inc	hl
   0B59 66                 2513 	ld	h,(hl)
   0B5A 6F                 2514 	ld	l,a
   0B5B E9                 2515 	jp	(hl)
   0B5C                    2516 00369$:
   0B5C E8 03              2517 	lda	sp,3(sp)
   0B5E C1                 2518 	pop	bc
   0B5F F8 00              2519 	ldhl	sp,#0
   0B61 34                 2520 	inc	(hl)
   0B62 C2r67s0B           2521 	jp	NZ,00370$
   0B65 23                 2522 	inc	hl
   0B66 34                 2523 	inc	(hl)
   0B67                    2524 00370$:
   0B67 2B                 2525 	dec	hl
   0B68 7E                 2526 	ld	a,(hl)
   0B69 23                 2527 	inc	hl
   0B6A 5E                 2528 	ld	e,(hl)
   0B6B F8 15              2529 	ldhl	sp,#21
   0B6D 77                 2530 	ld	(hl),a
   0B6E 23                 2531 	inc	hl
   0B6F 73                 2532 	ld	(hl),e
   0B70 C3r28s0B           2533 	jp	00199$
   0B73                    2534 00206$:
                           2535 ;../printf_large.c:788: if (width > length)
   0B73 F8 0C              2536 	ldhl	sp,#12
   0B75 7E                 2537 	ld	a,(hl)
   0B76 F8 23              2538 	ldhl	sp,#35
   0B78 96                 2539 	sub	a, (hl)
   0B79 D2r85s0B           2540 	jp	NC,00203$
                           2541 ;../printf_large.c:789: width -= length;
   0B7C 7E                 2542 	ld	a,(hl)
   0B7D F8 0C              2543 	ldhl	sp,#12
   0B7F 96                 2544 	sub	a,(hl)
   0B80 F8 23              2545 	ldhl	sp,#35
   0B82 77                 2546 	ld	(hl),a
   0B83 18 18              2547 	jr	00301$
   0B85                    2548 00203$:
                           2549 ;../printf_large.c:791: width = 0;
   0B85 F8 23              2550 	ldhl	sp,#35
   0B87 36 00              2551 	ld	(hl),#0x00
                           2552 ;../printf_large.c:828: return charsOutputted;
   0B89 18 12              2553 	jr	00301$
                           2554 ;../printf_large.c:795: while( length-- )
   0B8B                    2555 00309$:
   0B8B F8 00              2556 	ldhl	sp,#0
   0B8D 7E                 2557 	ld	a,(hl)
   0B8E 23                 2558 	inc	hl
   0B8F 5E                 2559 	ld	e,(hl)
   0B90 F8 15              2560 	ldhl	sp,#21
   0B92 77                 2561 	ld	(hl),a
   0B93 23                 2562 	inc	hl
   0B94 73                 2563 	ld	(hl),e
   0B95 E5                 2564 	push	hl
   0B96 F8 04              2565 	ldhl	sp,#4
   0B98 7E                 2566 	ld	a,(hl)
   0B99 F8 23              2567 	ldhl	sp,#35
   0B9B 77                 2568 	ld	(hl),a
   0B9C E1                 2569 	pop	hl
   0B9D                    2570 00301$:
   0B9D F8 19              2571 	ldhl	sp,#25
   0B9F 7E                 2572 	ld	a,(hl)
   0BA0 23                 2573 	inc	hl
   0BA1 5E                 2574 	ld	e,(hl)
   0BA2 F8 00              2575 	ldhl	sp,#0
   0BA4 77                 2576 	ld	(hl),a
   0BA5 23                 2577 	inc	hl
   0BA6 73                 2578 	ld	(hl),e
   0BA7 F8 15              2579 	ldhl	sp,#21
   0BA9 7E                 2580 	ld	a,(hl)
   0BAA 23                 2581 	inc	hl
   0BAB 5E                 2582 	ld	e,(hl)
   0BAC F8 04              2583 	ldhl	sp,#4
   0BAE 77                 2584 	ld	(hl),a
   0BAF 23                 2585 	inc	hl
   0BB0 73                 2586 	ld	(hl),e
   0BB1 E5                 2587 	push	hl
   0BB2 F8 0C              2588 	ldhl	sp,#12
   0BB4 7E                 2589 	ld	a,(hl)
   0BB5 F8 08              2590 	ldhl	sp,#8
   0BB7 77                 2591 	ld	(hl),a
   0BB8 E1                 2592 	pop	hl
   0BB9                    2593 00211$:
   0BB9 F8 08              2594 	ldhl	sp,#8
   0BBB 4E                 2595 	ld	c,(hl)
   0BBC 35                 2596 	dec	(hl)
   0BBD AF                 2597 	xor	a,a
   0BBE B1                 2598 	or	a,c
   0BBF CAr7Cs0C           2599 	jp	Z,00310$
                           2600 ;../printf_large.c:797: lsd = !lsd;
   0BC2 78                 2601 	ld	a,b
   0BC3 EE 01              2602 	xor	a,#0x01
   0BC5 47                 2603 	ld	b,a
                           2604 ;../printf_large.c:798: if (!lsd)
   0BC6 CB 40              2605 	bit	0,b
   0BC8 C2r05s0C           2606 	jp	NZ,00209$
                           2607 ;../printf_large.c:800: pstore++;
   0BCB F8 00              2608 	ldhl	sp,#0
   0BCD 34                 2609 	inc	(hl)
   0BCE C2rD3s0B           2610 	jp	NZ,00371$
   0BD1 23                 2611 	inc	hl
   0BD2 34                 2612 	inc	(hl)
   0BD3                    2613 00371$:
                           2614 ;../printf_large.c:801: value.byte[4] = *pstore >> 4;
   0BD3 F8 27              2615 	ldhl	sp,#39
   0BD5 7D                 2616 	ld	a,l
   0BD6 54                 2617 	ld	d,h
   0BD7 F8 0A              2618 	ldhl	sp,#10
   0BD9 77                 2619 	ld	(hl),a
   0BDA 23                 2620 	inc	hl
   0BDB 72                 2621 	ld	(hl),d
   0BDC 2B                 2622 	dec	hl
   0BDD 5E                 2623 	ld	e,(hl)
   0BDE 23                 2624 	inc	hl
   0BDF 56                 2625 	ld	d,(hl)
   0BE0 21 04 00           2626 	ld	hl,#0x0004
   0BE3 19                 2627 	add	hl,de
   0BE4 7D                 2628 	ld	a,l
   0BE5 54                 2629 	ld	d,h
   0BE6 F8 0A              2630 	ldhl	sp,#10
   0BE8 77                 2631 	ld	(hl),a
   0BE9 23                 2632 	inc	hl
   0BEA 72                 2633 	ld	(hl),d
   0BEB F8 01              2634 	ldhl	sp,#1
   0BED 2B                 2635 	dec	hl
   0BEE 5E                 2636 	ld	e,(hl)
   0BEF 23                 2637 	inc	hl
   0BF0 56                 2638 	ld	d,(hl)
   0BF1 1A                 2639 	ld	a,(de)
   0BF2 4F                 2640 	ld	c,a
   0BF3 CB 39              2641 	srl	c
   0BF5 CB 39              2642 	srl	c
   0BF7 CB 39              2643 	srl	c
   0BF9 CB 39              2644 	srl	c
   0BFB F8 0B              2645 	ldhl	sp,#11
   0BFD 2B                 2646 	dec	hl
   0BFE 5E                 2647 	ld	e,(hl)
   0BFF 23                 2648 	inc	hl
   0C00 56                 2649 	ld	d,(hl)
   0C01 79                 2650 	ld	a,c
   0C02 12                 2651 	ld	(de),a
   0C03 18 28              2652 	jr	00210$
   0C05                    2653 00209$:
                           2654 ;../printf_large.c:805: value.byte[4] = *pstore & 0x0F;
   0C05 F8 27              2655 	ldhl	sp,#39
   0C07 7D                 2656 	ld	a,l
   0C08 54                 2657 	ld	d,h
   0C09 F8 0A              2658 	ldhl	sp,#10
   0C0B 77                 2659 	ld	(hl),a
   0C0C 23                 2660 	inc	hl
   0C0D 72                 2661 	ld	(hl),d
   0C0E 2B                 2662 	dec	hl
   0C0F 5E                 2663 	ld	e,(hl)
   0C10 23                 2664 	inc	hl
   0C11 56                 2665 	ld	d,(hl)
   0C12 21 04 00           2666 	ld	hl,#0x0004
   0C15 19                 2667 	add	hl,de
   0C16 7D                 2668 	ld	a,l
   0C17 54                 2669 	ld	d,h
   0C18 F8 0A              2670 	ldhl	sp,#10
   0C1A 77                 2671 	ld	(hl),a
   0C1B 23                 2672 	inc	hl
   0C1C 72                 2673 	ld	(hl),d
   0C1D F8 01              2674 	ldhl	sp,#1
   0C1F 2B                 2675 	dec	hl
   0C20 5E                 2676 	ld	e,(hl)
   0C21 23                 2677 	inc	hl
   0C22 56                 2678 	ld	d,(hl)
   0C23 1A                 2679 	ld	a,(de)
   0C24 E6 0F              2680 	and	a,#0x0F
   0C26 F8 0B              2681 	ldhl	sp,#11
   0C28 2B                 2682 	dec	hl
   0C29 5E                 2683 	ld	e,(hl)
   0C2A 23                 2684 	inc	hl
   0C2B 56                 2685 	ld	d,(hl)
   0C2C 12                 2686 	ld	(de),a
   0C2D                    2687 00210$:
                           2688 ;../printf_large.c:808: output_digit( value.byte[4], lower_case, output_char, p );
   0C2D F8 27              2689 	ldhl	sp,#39
   0C2F 7D                 2690 	ld	a,l
   0C30 54                 2691 	ld	d,h
   0C31 F8 0A              2692 	ldhl	sp,#10
   0C33 77                 2693 	ld	(hl),a
   0C34 23                 2694 	inc	hl
   0C35 72                 2695 	ld	(hl),d
   0C36 2B                 2696 	dec	hl
   0C37 5E                 2697 	ld	e,(hl)
   0C38 23                 2698 	inc	hl
   0C39 56                 2699 	ld	d,(hl)
   0C3A 21 04 00           2700 	ld	hl,#0x0004
   0C3D 19                 2701 	add	hl,de
   0C3E 7D                 2702 	ld	a,l
   0C3F 54                 2703 	ld	d,h
   0C40 F8 0A              2704 	ldhl	sp,#10
   0C42 77                 2705 	ld	(hl),a
   0C43 23                 2706 	inc	hl
   0C44 72                 2707 	ld	(hl),d
   0C45 2B                 2708 	dec	hl
   0C46 5E                 2709 	ld	e,(hl)
   0C47 23                 2710 	inc	hl
   0C48 56                 2711 	ld	d,(hl)
   0C49 1A                 2712 	ld	a,(de)
   0C4A 4F                 2713 	ld	c,a
   0C4B C5                 2714 	push	bc
   0C4C F8 3B              2715 	ldhl	sp,#59
   0C4E 7E                 2716 	ld	a,(hl)
   0C4F 23                 2717 	inc	hl
   0C50 66                 2718 	ld	h,(hl)
   0C51 6F                 2719 	ld	l,a
   0C52 E5                 2720 	push	hl
   0C53 F8 3B              2721 	ldhl	sp,#59
   0C55 7E                 2722 	ld	a,(hl)
   0C56 23                 2723 	inc	hl
   0C57 66                 2724 	ld	h,(hl)
   0C58 6F                 2725 	ld	l,a
   0C59 E5                 2726 	push	hl
   0C5A F8 32              2727 	ldhl	sp,#50
   0C5C 7E                 2728 	ld	a,(hl)
   0C5D F5                 2729 	push	af
   0C5E 33                 2730 	inc	sp
   0C5F 79                 2731 	ld	a,c
   0C60 F5                 2732 	push	af
   0C61 33                 2733 	inc	sp
   0C62 CDr00s00           2734 	call	_output_digit
   0C65 E8 06              2735 	lda	sp,6(sp)
   0C67 C1                 2736 	pop	bc
                           2737 ;../printf_large.c:809: charsOutputted++;
   0C68 F8 04              2738 	ldhl	sp,#4
   0C6A 34                 2739 	inc	(hl)
   0C6B C2r70s0C           2740 	jp	NZ,00372$
   0C6E 23                 2741 	inc	hl
   0C6F 34                 2742 	inc	(hl)
   0C70                    2743 00372$:
   0C70 2B                 2744 	dec	hl
   0C71 7E                 2745 	ld	a,(hl)
   0C72 23                 2746 	inc	hl
   0C73 5E                 2747 	ld	e,(hl)
   0C74 F8 15              2748 	ldhl	sp,#21
   0C76 77                 2749 	ld	(hl),a
   0C77 23                 2750 	inc	hl
   0C78 73                 2751 	ld	(hl),e
   0C79 C3rB9s0B           2752 	jp	00211$
   0C7C                    2753 00310$:
   0C7C F8 04              2754 	ldhl	sp,#4
   0C7E 7E                 2755 	ld	a,(hl)
   0C7F 23                 2756 	inc	hl
   0C80 5E                 2757 	ld	e,(hl)
   0C81 F8 15              2758 	ldhl	sp,#21
   0C83 77                 2759 	ld	(hl),a
   0C84 23                 2760 	inc	hl
   0C85 73                 2761 	ld	(hl),e
                           2762 ;../printf_large.c:814: if (left_justify)
   0C86 F8 34              2763 	ldhl	sp,#52
   0C88 CB 46              2764 	bit	0,(hl)
   0C8A CAr62s01           2765 	jp	Z,00227$
                           2766 ;../printf_large.c:815: while (width-- > 0)
   0C8D F8 04              2767 	ldhl	sp,#4
   0C8F 7E                 2768 	ld	a,(hl)
   0C90 23                 2769 	inc	hl
   0C91 5E                 2770 	ld	e,(hl)
   0C92 F8 25              2771 	ldhl	sp,#37
   0C94 77                 2772 	ld	(hl),a
   0C95 23                 2773 	inc	hl
   0C96 73                 2774 	ld	(hl),e
   0C97 F8 23              2775 	ldhl	sp,#35
   0C99 46                 2776 	ld	b,(hl)
   0C9A                    2777 00214$:
   0C9A 48                 2778 	ld	c,b
   0C9B 05                 2779 	dec	b
   0C9C AF                 2780 	xor	a,a
   0C9D B1                 2781 	or	a,c
   0C9E CAr62s01           2782 	jp	Z,00227$
                           2783 ;../printf_large.c:817: OUTPUT_CHAR(' ', p);
   0CA1 C5                 2784 	push	bc
   0CA2 F8 3B              2785 	ldhl	sp,#59
   0CA4 7E                 2786 	ld	a,(hl)
   0CA5 23                 2787 	inc	hl
   0CA6 66                 2788 	ld	h,(hl)
   0CA7 6F                 2789 	ld	l,a
   0CA8 E5                 2790 	push	hl
   0CA9 3E 20              2791 	ld	a,#0x20
   0CAB F5                 2792 	push	af
   0CAC 33                 2793 	inc	sp
   0CAD 21rB8s0C           2794 	ld	hl,#00373$
   0CB0 E5                 2795 	push	hl
   0CB1 F8 3E              2796 	ldhl	sp,#62
   0CB3 7E                 2797 	ld	a,(hl)
   0CB4 23                 2798 	inc	hl
   0CB5 66                 2799 	ld	h,(hl)
   0CB6 6F                 2800 	ld	l,a
   0CB7 E9                 2801 	jp	(hl)
   0CB8                    2802 00373$:
   0CB8 E8 03              2803 	lda	sp,3(sp)
   0CBA C1                 2804 	pop	bc
   0CBB F8 25              2805 	ldhl	sp,#37
   0CBD 34                 2806 	inc	(hl)
   0CBE C2rC3s0C           2807 	jp	NZ,00374$
   0CC1 23                 2808 	inc	hl
   0CC2 34                 2809 	inc	(hl)
   0CC3                    2810 00374$:
   0CC3 2B                 2811 	dec	hl
   0CC4 7E                 2812 	ld	a,(hl)
   0CC5 23                 2813 	inc	hl
   0CC6 5E                 2814 	ld	e,(hl)
   0CC7 F8 15              2815 	ldhl	sp,#21
   0CC9 77                 2816 	ld	(hl),a
   0CCA 23                 2817 	inc	hl
   0CCB 73                 2818 	ld	(hl),e
   0CCC 18 CC              2819 	jr	00214$
   0CCE                    2820 00225$:
                           2821 ;../printf_large.c:824: OUTPUT_CHAR( c, p );
   0CCE F8 39              2822 	ldhl	sp,#57
   0CD0 7E                 2823 	ld	a,(hl)
   0CD1 23                 2824 	inc	hl
   0CD2 66                 2825 	ld	h,(hl)
   0CD3 6F                 2826 	ld	l,a
   0CD4 E5                 2827 	push	hl
   0CD5 C5                 2828 	push	bc
   0CD6 33                 2829 	inc	sp
   0CD7 21rE2s0C           2830 	ld	hl,#00375$
   0CDA E5                 2831 	push	hl
   0CDB F8 3C              2832 	ldhl	sp,#60
   0CDD 7E                 2833 	ld	a,(hl)
   0CDE 23                 2834 	inc	hl
   0CDF 66                 2835 	ld	h,(hl)
   0CE0 6F                 2836 	ld	l,a
   0CE1 E9                 2837 	jp	(hl)
   0CE2                    2838 00375$:
   0CE2 E8 03              2839 	lda	sp,3(sp)
   0CE4 F8 15              2840 	ldhl	sp,#21
   0CE6 34                 2841 	inc	(hl)
   0CE7 C2r62s01           2842 	jp	NZ,00227$
   0CEA 23                 2843 	inc	hl
   0CEB 34                 2844 	inc	(hl)
   0CEC                    2845 00376$:
   0CEC C3r62s01           2846 	jp	00227$
   0CEF                    2847 00229$:
                           2848 ;../printf_large.c:828: return charsOutputted;
   0CEF F8 16              2849 	ldhl	sp,#22
   0CF1 2B                 2850 	dec	hl
   0CF2 5E                 2851 	ld	e,(hl)
   0CF3 23                 2852 	inc	hl
   0CF4 56                 2853 	ld	d,(hl)
   0CF5                    2854 00230$:
   0CF5 E8 35              2855 	lda	sp,53(sp)
   0CF7 C9                 2856 	ret
   0CF8                    2857 __print_format_end::
   0CF8                    2858 __str_0:
   0CF8 3C 4E 4F 20 46 4C  2859 	.ascii "<NO FLOAT>"
        4F 41 54 3E
   0D02 00                 2860 	.db 0x00
                           2861 	.area _CODE
                           2862 	.area _CABS
