;--------------------------------------------------------
; File Created by SDCC : free open source ANSI-C Compiler
; Version 3.0.1 #6227 (Oct  2 2015) (Linux)
; This file was generated Fri Oct  2 17:18:19 2015
;--------------------------------------------------------
	.module sincoshf
	.optsdcc -mgbz80
	
;--------------------------------------------------------
; Public variables in this module
;--------------------------------------------------------
	.globl _sincoshf
;--------------------------------------------------------
;  ram data
;--------------------------------------------------------
	.area _DATA
;--------------------------------------------------------
; overlayable items in  ram 
;--------------------------------------------------------
	.area _OVERLAY
;--------------------------------------------------------
; external initialized ram data
;--------------------------------------------------------
;--------------------------------------------------------
; global & static initialisations
;--------------------------------------------------------
	.area _HOME
	.area _GSINIT
	.area _GSFINAL
	.area _GSINIT
;--------------------------------------------------------
; Home
;--------------------------------------------------------
	.area _HOME
	.area _HOME
;--------------------------------------------------------
; code
;--------------------------------------------------------
	.area _CODE
;../sincoshf.c:53: float sincoshf(const float x, const int iscosh)
;	---------------------------------
; Function sincoshf
; ---------------------------------
_sincoshf_start::
_sincoshf:
	lda	sp,-21(sp)
;../sincoshf.c:58: if (x<0.0) { y=-x; sign=1; }
	ld	hl,#0x0000
	push	hl
	ld	hl,#0x0000
	push	hl
	ldhl	sp,#29
	ld	a,(hl)
	inc	hl
	ld	h,(hl)
	ld	l,a
	push	hl
	ldhl	sp,#29
	ld	a,(hl)
	inc	hl
	ld	h,(hl)
	ld	l,a
	push	hl
	call	___fslt
	lda	sp,8(sp)
	ld	c,e
	xor	a,a
	or	a,c
	jp	Z,00102$
	ldhl	sp,#26
	ld	a,(hl)
	xor	a,#0x80
	ldhl	sp,#20
	ld	(hl),a
	ldhl	sp,#23
	ld	a,(hl)
	ldhl	sp,#17
	ld	(hl),a
	ldhl	sp,#24
	ld	a,(hl)
	ldhl	sp,#18
	ld	(hl),a
	ldhl	sp,#25
	ld	a,(hl)
	ldhl	sp,#19
	ld	(hl),a
	ldhl	sp,#8
	ld	(hl),#0x01
	jr	00103$
00102$:
;../sincoshf.c:59: else { y=x;  sign=0; }
	ldhl	sp,#23
	ld	d,h
	ld	e,l
	ldhl	sp,#17
	ld	a,(de)
	ld	(hl),a
	inc	hl
	inc	de
	ld	a,(de)
	ld	(hl),a
	inc	hl
	inc	de
	ld	a,(de)
	ld	(hl),a
	inc	hl
	inc	de
	ld	a,(de)
	ld	(hl),a
	ldhl	sp,#8
	ld	(hl),#0x00
00103$:
;../sincoshf.c:61: if ((y>1.0) || iscosh)
	ld	hl,#0x3F80
	push	hl
	ld	hl,#0x0000
	push	hl
	ldhl	sp,#23
	ld	a,(hl)
	inc	hl
	ld	h,(hl)
	ld	l,a
	push	hl
	ldhl	sp,#23
	ld	a,(hl)
	inc	hl
	ld	h,(hl)
	ld	l,a
	push	hl
	call	___fsgt
	lda	sp,8(sp)
	ld	b,e
	xor	a,a
	or	a,b
	jp	NZ,00117$
	ldhl	sp,#27
	ld	a,(hl)
	inc	hl
	or	a,(hl)
	jp	Z,00118$
00117$:
;../sincoshf.c:63: if(y>YBAR)
	ld	hl,#0x4110
	push	hl
	ld	hl,#0x0000
	push	hl
	ldhl	sp,#23
	ld	a,(hl)
	inc	hl
	ld	h,(hl)
	ld	l,a
	push	hl
	ldhl	sp,#23
	ld	a,(hl)
	inc	hl
	ld	h,(hl)
	ld	l,a
	push	hl
	call	___fsgt
	lda	sp,8(sp)
	ld	b,e
	xor	a,a
	or	a,b
	jp	Z,00110$
;../sincoshf.c:65: w=y-K1;
	ld	hl,#0x3F31
	push	hl
	ld	hl,#0x7300
	push	hl
	ldhl	sp,#23
	ld	a,(hl)
	inc	hl
	ld	h,(hl)
	ld	l,a
	push	hl
	ldhl	sp,#23
	ld	a,(hl)
	inc	hl
	ld	h,(hl)
	ld	l,a
	push	hl
	call	___fssub
	lda	sp,8(sp)
	push	hl
	ldhl	sp,#15
	ld	(hl),e
	inc	hl
	ld	(hl),d
	pop	de
	inc	hl
	ld	(hl),e
	inc	hl
	ld	(hl),d
;../sincoshf.c:66: if (w>WMAX)
	ld	hl,#0x4233
	push	hl
	ld	hl,#0xBDCF
	push	hl
	ldhl	sp,#19
	ld	a,(hl)
	inc	hl
	ld	h,(hl)
	ld	l,a
	push	hl
	ldhl	sp,#19
	ld	a,(hl)
	inc	hl
	ld	h,(hl)
	ld	l,a
	push	hl
	call	___fsgt
	lda	sp,8(sp)
	ld	c,e
	xor	a,a
	or	a,c
	jp	Z,00105$
;../sincoshf.c:68: errno=ERANGE;
	ld	hl,#_errno
	ld	(hl),#0x22
	inc	hl
	ld	(hl),#0x00
;../sincoshf.c:69: z=HUGE_VALF;
	ldhl	sp,#9
	ld	(hl),#0xFF
	inc	hl
	ld	(hl),#0xFF
	inc	hl
	ld	(hl),#0x7F
	inc	hl
	ld	(hl),#0x7F
	jp	00111$
00105$:
;../sincoshf.c:73: z=expf(w);
	ldhl	sp,#15
	ld	a,(hl)
	inc	hl
	ld	h,(hl)
	ld	l,a
	push	hl
	ldhl	sp,#15
	ld	a,(hl)
	inc	hl
	ld	h,(hl)
	ld	l,a
	push	hl
	call	_expf
	lda	sp,4(sp)
	push	hl
	ldhl	sp,#6
	ld	(hl),e
	inc	hl
	ld	(hl),d
	pop	de
	inc	hl
	ld	(hl),e
	inc	hl
	ld	(hl),d
	ldhl	sp,#4
	ld	d,h
	ld	e,l
	ldhl	sp,#9
	ld	a,(de)
	ld	(hl),a
	inc	hl
	inc	de
	ld	a,(de)
	ld	(hl),a
	inc	hl
	inc	de
	ld	a,(de)
	ld	(hl),a
	inc	hl
	inc	de
	ld	a,(de)
	ld	(hl),a
;../sincoshf.c:74: z+=K3*z;
	ldhl	sp,#11
	ld	a,(hl)
	inc	hl
	ld	h,(hl)
	ld	l,a
	push	hl
	ldhl	sp,#11
	ld	a,(hl)
	inc	hl
	ld	h,(hl)
	ld	l,a
	push	hl
	ld	hl,#0x3768
	push	hl
	ld	hl,#0x0897
	push	hl
	call	___fsmul
	lda	sp,8(sp)
	push	hl
	ldhl	sp,#6
	ld	(hl),e
	inc	hl
	ld	(hl),d
	pop	de
	inc	hl
	ld	(hl),e
	inc	hl
	ld	(hl),d
	ldhl	sp,#6
	ld	a,(hl)
	inc	hl
	ld	h,(hl)
	ld	l,a
	push	hl
	ldhl	sp,#6
	ld	a,(hl)
	inc	hl
	ld	h,(hl)
	ld	l,a
	push	hl
	ldhl	sp,#15
	ld	a,(hl)
	inc	hl
	ld	h,(hl)
	ld	l,a
	push	hl
	ldhl	sp,#15
	ld	a,(hl)
	inc	hl
	ld	h,(hl)
	ld	l,a
	push	hl
	call	___fsadd
	lda	sp,8(sp)
	push	hl
	ldhl	sp,#6
	ld	(hl),e
	inc	hl
	ld	(hl),d
	pop	de
	inc	hl
	ld	(hl),e
	inc	hl
	ld	(hl),d
	ldhl	sp,#4
	ld	d,h
	ld	e,l
	ldhl	sp,#9
	ld	a,(de)
	ld	(hl),a
	inc	hl
	inc	de
	ld	a,(de)
	ld	(hl),a
	inc	hl
	inc	de
	ld	a,(de)
	ld	(hl),a
	inc	hl
	inc	de
	ld	a,(de)
	ld	(hl),a
	jp	00111$
00110$:
;../sincoshf.c:79: z=expf(y);
	ldhl	sp,#19
	ld	a,(hl)
	inc	hl
	ld	h,(hl)
	ld	l,a
	push	hl
	ldhl	sp,#19
	ld	a,(hl)
	inc	hl
	ld	h,(hl)
	ld	l,a
	push	hl
	call	_expf
	lda	sp,4(sp)
	push	hl
	ldhl	sp,#6
	ld	(hl),e
	inc	hl
	ld	(hl),d
	pop	de
	inc	hl
	ld	(hl),e
	inc	hl
	ld	(hl),d
	ldhl	sp,#4
	ld	d,h
	ld	e,l
	ldhl	sp,#9
	ld	a,(de)
	ld	(hl),a
	inc	hl
	inc	de
	ld	a,(de)
	ld	(hl),a
	inc	hl
	inc	de
	ld	a,(de)
	ld	(hl),a
	inc	hl
	inc	de
	ld	a,(de)
	ld	(hl),a
;../sincoshf.c:80: w=1.0/z;
	ldhl	sp,#11
	ld	a,(hl)
	inc	hl
	ld	h,(hl)
	ld	l,a
	push	hl
	ldhl	sp,#11
	ld	a,(hl)
	inc	hl
	ld	h,(hl)
	ld	l,a
	push	hl
	ld	hl,#0x3F80
	push	hl
	ld	hl,#0x0000
	push	hl
	call	___fsdiv
	lda	sp,8(sp)
	push	hl
	ldhl	sp,#6
	ld	(hl),e
	inc	hl
	ld	(hl),d
	pop	de
	inc	hl
	ld	(hl),e
	inc	hl
	ld	(hl),d
	ldhl	sp,#4
	ld	d,h
	ld	e,l
	ldhl	sp,#13
	ld	a,(de)
	ld	(hl),a
	inc	hl
	inc	de
	ld	a,(de)
	ld	(hl),a
	inc	hl
	inc	de
	ld	a,(de)
	ld	(hl),a
	inc	hl
	inc	de
	ld	a,(de)
	ld	(hl),a
;../sincoshf.c:81: if(!iscosh) w=-w;
	ldhl	sp,#27
	ld	a,(hl)
	inc	hl
	or	a,(hl)
	jp	NZ,00108$
	ldhl	sp,#16
	ld	a,(hl)
	xor	a,#0x80
	ld	(hl),a
00108$:
;../sincoshf.c:82: z=(z+w)*0.5;
	ldhl	sp,#15
	ld	a,(hl)
	inc	hl
	ld	h,(hl)
	ld	l,a
	push	hl
	ldhl	sp,#15
	ld	a,(hl)
	inc	hl
	ld	h,(hl)
	ld	l,a
	push	hl
	ldhl	sp,#15
	ld	a,(hl)
	inc	hl
	ld	h,(hl)
	ld	l,a
	push	hl
	ldhl	sp,#15
	ld	a,(hl)
	inc	hl
	ld	h,(hl)
	ld	l,a
	push	hl
	call	___fsadd
	lda	sp,8(sp)
	push	hl
	ldhl	sp,#6
	ld	(hl),e
	inc	hl
	ld	(hl),d
	pop	de
	inc	hl
	ld	(hl),e
	inc	hl
	ld	(hl),d
	ldhl	sp,#6
	ld	a,(hl)
	inc	hl
	ld	h,(hl)
	ld	l,a
	push	hl
	ldhl	sp,#6
	ld	a,(hl)
	inc	hl
	ld	h,(hl)
	ld	l,a
	push	hl
	ld	hl,#0x3F00
	push	hl
	ld	hl,#0x0000
	push	hl
	call	___fsmul
	lda	sp,8(sp)
	push	hl
	ldhl	sp,#6
	ld	(hl),e
	inc	hl
	ld	(hl),d
	pop	de
	inc	hl
	ld	(hl),e
	inc	hl
	ld	(hl),d
	ldhl	sp,#4
	ld	d,h
	ld	e,l
	ldhl	sp,#9
	ld	a,(de)
	ld	(hl),a
	inc	hl
	inc	de
	ld	a,(de)
	ld	(hl),a
	inc	hl
	inc	de
	ld	a,(de)
	ld	(hl),a
	inc	hl
	inc	de
	ld	a,(de)
	ld	(hl),a
00111$:
;../sincoshf.c:84: if(sign) z=-z;
	ldhl	sp,#8
	bit	0,(hl)
	jp	Z,00119$
	ldhl	sp,#12
	ld	a,(hl)
	xor	a,#0x80
	ld	(hl),a
	jp	00119$
00118$:
;../sincoshf.c:88: if (y<EPS)
	ld	hl,#0x3980
	push	hl
	ld	hl,#0x0000
	push	hl
	ldhl	sp,#23
	ld	a,(hl)
	inc	hl
	ld	h,(hl)
	ld	l,a
	push	hl
	ldhl	sp,#23
	ld	a,(hl)
	inc	hl
	ld	h,(hl)
	ld	l,a
	push	hl
	call	___fslt
	lda	sp,8(sp)
	ld	c,e
	xor	a,a
	or	a,c
	jp	Z,00115$
;../sincoshf.c:89: z=x;
	ldhl	sp,#23
	ld	d,h
	ld	e,l
	ldhl	sp,#9
	ld	a,(de)
	ld	(hl),a
	inc	hl
	inc	de
	ld	a,(de)
	ld	(hl),a
	inc	hl
	inc	de
	ld	a,(de)
	ld	(hl),a
	inc	hl
	inc	de
	ld	a,(de)
	ld	(hl),a
	jp	00119$
00115$:
;../sincoshf.c:92: z=x*x;
	ldhl	sp,#25
	ld	a,(hl)
	inc	hl
	ld	h,(hl)
	ld	l,a
	push	hl
	ldhl	sp,#25
	ld	a,(hl)
	inc	hl
	ld	h,(hl)
	ld	l,a
	push	hl
	ldhl	sp,#29
	ld	a,(hl)
	inc	hl
	ld	h,(hl)
	ld	l,a
	push	hl
	ldhl	sp,#29
	ld	a,(hl)
	inc	hl
	ld	h,(hl)
	ld	l,a
	push	hl
	call	___fsmul
	lda	sp,8(sp)
	push	hl
	ldhl	sp,#6
	ld	(hl),e
	inc	hl
	ld	(hl),d
	pop	de
	inc	hl
	ld	(hl),e
	inc	hl
	ld	(hl),d
	ldhl	sp,#4
	ld	d,h
	ld	e,l
	ldhl	sp,#9
	ld	a,(de)
	ld	(hl),a
	inc	hl
	inc	de
	ld	a,(de)
	ld	(hl),a
	inc	hl
	inc	de
	ld	a,(de)
	ld	(hl),a
	inc	hl
	inc	de
	ld	a,(de)
	ld	(hl),a
;../sincoshf.c:93: z=x+x*z*P(z)/Q(z);
	ldhl	sp,#11
	ld	a,(hl)
	inc	hl
	ld	h,(hl)
	ld	l,a
	push	hl
	ldhl	sp,#11
	ld	a,(hl)
	inc	hl
	ld	h,(hl)
	ld	l,a
	push	hl
	ldhl	sp,#29
	ld	a,(hl)
	inc	hl
	ld	h,(hl)
	ld	l,a
	push	hl
	ldhl	sp,#29
	ld	a,(hl)
	inc	hl
	ld	h,(hl)
	ld	l,a
	push	hl
	call	___fsmul
	lda	sp,8(sp)
	push	hl
	ldhl	sp,#6
	ld	(hl),e
	inc	hl
	ld	(hl),d
	pop	de
	inc	hl
	ld	(hl),e
	inc	hl
	ld	(hl),d
	ldhl	sp,#11
	ld	a,(hl)
	inc	hl
	ld	h,(hl)
	ld	l,a
	push	hl
	ldhl	sp,#11
	ld	a,(hl)
	inc	hl
	ld	h,(hl)
	ld	l,a
	push	hl
	ld	hl,#0xBE42
	push	hl
	ld	hl,#0xE6EA
	push	hl
	call	___fsmul
	lda	sp,8(sp)
	push	hl
	ldhl	sp,#2
	ld	(hl),e
	inc	hl
	ld	(hl),d
	pop	de
	inc	hl
	ld	(hl),e
	inc	hl
	ld	(hl),d
	ld	hl,#0xC0E4
	push	hl
	ld	hl,#0x69F0
	push	hl
	ldhl	sp,#6
	ld	a,(hl)
	inc	hl
	ld	h,(hl)
	ld	l,a
	push	hl
	ldhl	sp,#6
	ld	a,(hl)
	inc	hl
	ld	h,(hl)
	ld	l,a
	push	hl
	call	___fsadd
	lda	sp,8(sp)
	push	hl
	ldhl	sp,#2
	ld	(hl),e
	inc	hl
	ld	(hl),d
	pop	de
	inc	hl
	ld	(hl),e
	inc	hl
	ld	(hl),d
	ldhl	sp,#2
	ld	a,(hl)
	inc	hl
	ld	h,(hl)
	ld	l,a
	push	hl
	ldhl	sp,#2
	ld	a,(hl)
	inc	hl
	ld	h,(hl)
	ld	l,a
	push	hl
	ldhl	sp,#10
	ld	a,(hl)
	inc	hl
	ld	h,(hl)
	ld	l,a
	push	hl
	ldhl	sp,#10
	ld	a,(hl)
	inc	hl
	ld	h,(hl)
	ld	l,a
	push	hl
	call	___fsmul
	lda	sp,8(sp)
	push	hl
	ldhl	sp,#2
	ld	(hl),e
	inc	hl
	ld	(hl),d
	pop	de
	inc	hl
	ld	(hl),e
	inc	hl
	ld	(hl),d
	ld	hl,#0xC22B
	push	hl
	ld	hl,#0x4F93
	push	hl
	ldhl	sp,#15
	ld	a,(hl)
	inc	hl
	ld	h,(hl)
	ld	l,a
	push	hl
	ldhl	sp,#15
	ld	a,(hl)
	inc	hl
	ld	h,(hl)
	ld	l,a
	push	hl
	call	___fsadd
	lda	sp,8(sp)
	push	hl
	ldhl	sp,#6
	ld	(hl),e
	inc	hl
	ld	(hl),d
	pop	de
	inc	hl
	ld	(hl),e
	inc	hl
	ld	(hl),d
	ldhl	sp,#6
	ld	a,(hl)
	inc	hl
	ld	h,(hl)
	ld	l,a
	push	hl
	ldhl	sp,#6
	ld	a,(hl)
	inc	hl
	ld	h,(hl)
	ld	l,a
	push	hl
	ldhl	sp,#6
	ld	a,(hl)
	inc	hl
	ld	h,(hl)
	ld	l,a
	push	hl
	ldhl	sp,#6
	ld	a,(hl)
	inc	hl
	ld	h,(hl)
	ld	l,a
	push	hl
	call	___fsdiv
	lda	sp,8(sp)
	push	hl
	ldhl	sp,#2
	ld	(hl),e
	inc	hl
	ld	(hl),d
	pop	de
	inc	hl
	ld	(hl),e
	inc	hl
	ld	(hl),d
	ldhl	sp,#2
	ld	a,(hl)
	inc	hl
	ld	h,(hl)
	ld	l,a
	push	hl
	ldhl	sp,#2
	ld	a,(hl)
	inc	hl
	ld	h,(hl)
	ld	l,a
	push	hl
	ldhl	sp,#29
	ld	a,(hl)
	inc	hl
	ld	h,(hl)
	ld	l,a
	push	hl
	ldhl	sp,#29
	ld	a,(hl)
	inc	hl
	ld	h,(hl)
	ld	l,a
	push	hl
	call	___fsadd
	lda	sp,8(sp)
	push	hl
	ldhl	sp,#2
	ld	(hl),e
	inc	hl
	ld	(hl),d
	pop	de
	inc	hl
	ld	(hl),e
	inc	hl
	ld	(hl),d
	ldhl	sp,#0
	ld	d,h
	ld	e,l
	ldhl	sp,#9
	ld	a,(de)
	ld	(hl),a
	inc	hl
	inc	de
	ld	a,(de)
	ld	(hl),a
	inc	hl
	inc	de
	ld	a,(de)
	ld	(hl),a
	inc	hl
	inc	de
	ld	a,(de)
	ld	(hl),a
00119$:
;../sincoshf.c:96: return z;
	ldhl	sp,#10
	dec	hl
	ld	e,(hl)
	inc	hl
	ld	d,(hl)
	inc	hl
	ld	a,(hl)
	inc	hl
	ld	h,(hl)
	ld	l,a
00121$:
	lda	sp,21(sp)
	ret
_sincoshf_end::
	.area _CODE
	.area _CABS
