                              1 ;--------------------------------------------------------
                              2 ; File Created by SDCC : free open source ANSI-C Compiler
                              3 ; Version 3.0.1 #6227 (Oct  2 2015) (Linux)
                              4 ; This file was generated Fri Oct  2 17:18:19 2015
                              5 ;--------------------------------------------------------
                              6 	.module sincosf
                              7 	.optsdcc -mgbz80
                              8 	
                              9 ;--------------------------------------------------------
                             10 ; Public variables in this module
                             11 ;--------------------------------------------------------
                             12 	.globl _sincosf
                             13 ;--------------------------------------------------------
                             14 ;  ram data
                             15 ;--------------------------------------------------------
                             16 	.area _DATA
                             17 ;--------------------------------------------------------
                             18 ; overlayable items in  ram 
                             19 ;--------------------------------------------------------
                             20 	.area _OVERLAY
                             21 ;--------------------------------------------------------
                             22 ; external initialized ram data
                             23 ;--------------------------------------------------------
                             24 ;--------------------------------------------------------
                             25 ; global & static initialisations
                             26 ;--------------------------------------------------------
                             27 	.area _HOME
                             28 	.area _GSINIT
                             29 	.area _GSFINAL
                             30 	.area _GSINIT
                             31 ;--------------------------------------------------------
                             32 ; Home
                             33 ;--------------------------------------------------------
                             34 	.area _HOME
                             35 	.area _HOME
                             36 ;--------------------------------------------------------
                             37 ; code
                             38 ;--------------------------------------------------------
                             39 	.area _CODE
                             40 ;../sincosf.c:50: float sincosf(const float x, const BOOL iscos)
                             41 ;	---------------------------------
                             42 ; Function sincosf
                             43 ; ---------------------------------
   0000                      44 _sincosf_start::
   0000                      45 _sincosf:
   0000 E8 E3                46 	lda	sp,-29(sp)
                             47 ;../sincosf.c:56: if(iscos)
   0002 F8 23                48 	ldhl	sp,#35
   0004 CB 46                49 	bit	0,(hl)
   0006 CAr54s00             50 	jp	Z,00105$
                             51 ;../sincosf.c:58: y=fabsf(x)+HALF_PI;
   0009 2B                   52 	dec	hl
   000A 2B                   53 	dec	hl
   000B 7E                   54 	ld	a,(hl)
   000C 23                   55 	inc	hl
   000D 66                   56 	ld	h,(hl)
   000E 6F                   57 	ld	l,a
   000F E5                   58 	push	hl
   0010 F8 21                59 	ldhl	sp,#33
   0012 7E                   60 	ld	a,(hl)
   0013 23                   61 	inc	hl
   0014 66                   62 	ld	h,(hl)
   0015 6F                   63 	ld	l,a
   0016 E5                   64 	push	hl
   0017 CDr00s00             65 	call	_fabsf
   001A E8 04                66 	lda	sp,4(sp)
   001C E5                   67 	push	hl
   001D F8 06                68 	ldhl	sp,#6
   001F 73                   69 	ld	(hl),e
   0020 23                   70 	inc	hl
   0021 72                   71 	ld	(hl),d
   0022 D1                   72 	pop	de
   0023 23                   73 	inc	hl
   0024 73                   74 	ld	(hl),e
   0025 23                   75 	inc	hl
   0026 72                   76 	ld	(hl),d
   0027 21 C9 3F             77 	ld	hl,#0x3FC9
   002A E5                   78 	push	hl
   002B 21 DB 0F             79 	ld	hl,#0x0FDB
   002E E5                   80 	push	hl
   002F F8 0A                81 	ldhl	sp,#10
   0031 7E                   82 	ld	a,(hl)
   0032 23                   83 	inc	hl
   0033 66                   84 	ld	h,(hl)
   0034 6F                   85 	ld	l,a
   0035 E5                   86 	push	hl
   0036 F8 0A                87 	ldhl	sp,#10
   0038 7E                   88 	ld	a,(hl)
   0039 23                   89 	inc	hl
   003A 66                   90 	ld	h,(hl)
   003B 6F                   91 	ld	l,a
   003C E5                   92 	push	hl
   003D CDr00s00             93 	call	___fsadd
   0040 E8 08                94 	lda	sp,8(sp)
   0042 E5                   95 	push	hl
   0043 F8 1B                96 	ldhl	sp,#27
   0045 73                   97 	ld	(hl),e
   0046 23                   98 	inc	hl
   0047 72                   99 	ld	(hl),d
   0048 D1                  100 	pop	de
   0049 23                  101 	inc	hl
   004A 73                  102 	ld	(hl),e
   004B 23                  103 	inc	hl
   004C 72                  104 	ld	(hl),d
                            105 ;../sincosf.c:59: sign=0;
   004D F8 08               106 	ldhl	sp,#8
   004F 36 00               107 	ld	(hl),#0x00
   0051 C3rC1s00            108 	jp	00106$
   0054                     109 00105$:
                            110 ;../sincosf.c:63: if(x<0.0)
   0054 21 00 00            111 	ld	hl,#0x0000
   0057 E5                  112 	push	hl
   0058 21 00 00            113 	ld	hl,#0x0000
   005B E5                  114 	push	hl
   005C F8 25               115 	ldhl	sp,#37
   005E 7E                  116 	ld	a,(hl)
   005F 23                  117 	inc	hl
   0060 66                  118 	ld	h,(hl)
   0061 6F                  119 	ld	l,a
   0062 E5                  120 	push	hl
   0063 F8 25               121 	ldhl	sp,#37
   0065 7E                  122 	ld	a,(hl)
   0066 23                  123 	inc	hl
   0067 66                  124 	ld	h,(hl)
   0068 6F                  125 	ld	l,a
   0069 E5                  126 	push	hl
   006A CDr00s00            127 	call	___fslt
   006D E8 08               128 	lda	sp,8(sp)
   006F 43                  129 	ld	b,e
   0070 AF                  130 	xor	a,a
   0071 B0                  131 	or	a,b
   0072 CArA9s00            132 	jp	Z,00102$
                            133 ;../sincosf.c:64: { y=-x; sign=1; }
   0075 F8 22               134 	ldhl	sp,#34
   0077 7E                  135 	ld	a,(hl)
   0078 EE 80               136 	xor	a,#0x80
   007A F8 07               137 	ldhl	sp,#7
   007C 77                  138 	ld	(hl),a
   007D F8 1F               139 	ldhl	sp,#31
   007F 7E                  140 	ld	a,(hl)
   0080 F8 04               141 	ldhl	sp,#4
   0082 77                  142 	ld	(hl),a
   0083 F8 20               143 	ldhl	sp,#32
   0085 7E                  144 	ld	a,(hl)
   0086 F8 05               145 	ldhl	sp,#5
   0088 77                  146 	ld	(hl),a
   0089 F8 21               147 	ldhl	sp,#33
   008B 7E                  148 	ld	a,(hl)
   008C F8 06               149 	ldhl	sp,#6
   008E 77                  150 	ld	(hl),a
   008F 2B                  151 	dec	hl
   0090 2B                  152 	dec	hl
   0091 54                  153 	ld	d,h
   0092 5D                  154 	ld	e,l
   0093 F8 19               155 	ldhl	sp,#25
   0095 1A                  156 	ld	a,(de)
   0096 77                  157 	ld	(hl),a
   0097 23                  158 	inc	hl
   0098 13                  159 	inc	de
   0099 1A                  160 	ld	a,(de)
   009A 77                  161 	ld	(hl),a
   009B 23                  162 	inc	hl
   009C 13                  163 	inc	de
   009D 1A                  164 	ld	a,(de)
   009E 77                  165 	ld	(hl),a
   009F 23                  166 	inc	hl
   00A0 13                  167 	inc	de
   00A1 1A                  168 	ld	a,(de)
   00A2 77                  169 	ld	(hl),a
   00A3 F8 08               170 	ldhl	sp,#8
   00A5 36 01               171 	ld	(hl),#0x01
   00A7 18 18               172 	jr	00106$
   00A9                     173 00102$:
                            174 ;../sincosf.c:66: { y=x; sign=0; }
   00A9 F8 1F               175 	ldhl	sp,#31
   00AB 54                  176 	ld	d,h
   00AC 5D                  177 	ld	e,l
   00AD F8 19               178 	ldhl	sp,#25
   00AF 1A                  179 	ld	a,(de)
   00B0 77                  180 	ld	(hl),a
   00B1 23                  181 	inc	hl
   00B2 13                  182 	inc	de
   00B3 1A                  183 	ld	a,(de)
   00B4 77                  184 	ld	(hl),a
   00B5 23                  185 	inc	hl
   00B6 13                  186 	inc	de
   00B7 1A                  187 	ld	a,(de)
   00B8 77                  188 	ld	(hl),a
   00B9 23                  189 	inc	hl
   00BA 13                  190 	inc	de
   00BB 1A                  191 	ld	a,(de)
   00BC 77                  192 	ld	(hl),a
   00BD F8 08               193 	ldhl	sp,#8
   00BF 36 00               194 	ld	(hl),#0x00
   00C1                     195 00106$:
                            196 ;../sincosf.c:69: if(y>YMAX)
   00C1 21 49 46            197 	ld	hl,#0x4649
   00C4 E5                  198 	push	hl
   00C5 21 00 0C            199 	ld	hl,#0x0C00
   00C8 E5                  200 	push	hl
   00C9 F8 1F               201 	ldhl	sp,#31
   00CB 7E                  202 	ld	a,(hl)
   00CC 23                  203 	inc	hl
   00CD 66                  204 	ld	h,(hl)
   00CE 6F                  205 	ld	l,a
   00CF E5                  206 	push	hl
   00D0 F8 1F               207 	ldhl	sp,#31
   00D2 7E                  208 	ld	a,(hl)
   00D3 23                  209 	inc	hl
   00D4 66                  210 	ld	h,(hl)
   00D5 6F                  211 	ld	l,a
   00D6 E5                  212 	push	hl
   00D7 CDr00s00            213 	call	___fsgt
   00DA E8 08               214 	lda	sp,8(sp)
   00DC 43                  215 	ld	b,e
   00DD AF                  216 	xor	a,a
   00DE B0                  217 	or	a,b
   00DF CArF3s00            218 	jp	Z,00108$
                            219 ;../sincosf.c:71: errno=ERANGE;
   00E2 21r00s00            220 	ld	hl,#_errno
   00E5 36 22               221 	ld	(hl),#0x22
   00E7 23                  222 	inc	hl
   00E8 36 00               223 	ld	(hl),#0x00
                            224 ;../sincosf.c:72: return 0.0;
   00EA 11 00 00            225 	ld	de,#0x0000
   00ED 21 00 00            226 	ld	hl,#0x0000
   00F0 C3r45s05            227 	jp	00115$
   00F3                     228 00108$:
                            229 ;../sincosf.c:76: N=((y*iPI)+0.5); /*y is positive*/
   00F3 F8 1B               230 	ldhl	sp,#27
   00F5 7E                  231 	ld	a,(hl)
   00F6 23                  232 	inc	hl
   00F7 66                  233 	ld	h,(hl)
   00F8 6F                  234 	ld	l,a
   00F9 E5                  235 	push	hl
   00FA F8 1B               236 	ldhl	sp,#27
   00FC 7E                  237 	ld	a,(hl)
   00FD 23                  238 	inc	hl
   00FE 66                  239 	ld	h,(hl)
   00FF 6F                  240 	ld	l,a
   0100 E5                  241 	push	hl
   0101 21 A2 3E            242 	ld	hl,#0x3EA2
   0104 E5                  243 	push	hl
   0105 21 83 F9            244 	ld	hl,#0xF983
   0108 E5                  245 	push	hl
   0109 CDr00s00            246 	call	___fsmul
   010C E8 08               247 	lda	sp,8(sp)
   010E E5                  248 	push	hl
   010F F8 06               249 	ldhl	sp,#6
   0111 73                  250 	ld	(hl),e
   0112 23                  251 	inc	hl
   0113 72                  252 	ld	(hl),d
   0114 D1                  253 	pop	de
   0115 23                  254 	inc	hl
   0116 73                  255 	ld	(hl),e
   0117 23                  256 	inc	hl
   0118 72                  257 	ld	(hl),d
   0119 21 00 3F            258 	ld	hl,#0x3F00
   011C E5                  259 	push	hl
   011D 21 00 00            260 	ld	hl,#0x0000
   0120 E5                  261 	push	hl
   0121 F8 0A               262 	ldhl	sp,#10
   0123 7E                  263 	ld	a,(hl)
   0124 23                  264 	inc	hl
   0125 66                  265 	ld	h,(hl)
   0126 6F                  266 	ld	l,a
   0127 E5                  267 	push	hl
   0128 F8 0A               268 	ldhl	sp,#10
   012A 7E                  269 	ld	a,(hl)
   012B 23                  270 	inc	hl
   012C 66                  271 	ld	h,(hl)
   012D 6F                  272 	ld	l,a
   012E E5                  273 	push	hl
   012F CDr00s00            274 	call	___fsadd
   0132 E8 08               275 	lda	sp,8(sp)
   0134 E5                  276 	push	hl
   0135 F8 06               277 	ldhl	sp,#6
   0137 73                  278 	ld	(hl),e
   0138 23                  279 	inc	hl
   0139 72                  280 	ld	(hl),d
   013A D1                  281 	pop	de
   013B 23                  282 	inc	hl
   013C 73                  283 	ld	(hl),e
   013D 23                  284 	inc	hl
   013E 72                  285 	ld	(hl),d
   013F F8 06               286 	ldhl	sp,#6
   0141 7E                  287 	ld	a,(hl)
   0142 23                  288 	inc	hl
   0143 66                  289 	ld	h,(hl)
   0144 6F                  290 	ld	l,a
   0145 E5                  291 	push	hl
   0146 F8 06               292 	ldhl	sp,#6
   0148 7E                  293 	ld	a,(hl)
   0149 23                  294 	inc	hl
   014A 66                  295 	ld	h,(hl)
   014B 6F                  296 	ld	l,a
   014C E5                  297 	push	hl
   014D CDr00s00            298 	call	___fs2sint
   0150 E8 04               299 	lda	sp,4(sp)
   0152 42                  300 	ld	b,d
   0153 4B                  301 	ld	c,e
                            302 ;../sincosf.c:79: if(N&1) sign=!sign;
   0154 79                  303 	ld	a,c
   0155 E6 01               304 	and	a,#0x01
   0157 CAr60s01            305 	jp	Z,00110$
   015A                     306 00126$:
   015A F8 08               307 	ldhl	sp,#8
   015C 7E                  308 	ld	a,(hl)
   015D EE 01               309 	xor	a,#0x01
   015F 77                  310 	ld	(hl),a
   0160                     311 00110$:
                            312 ;../sincosf.c:81: XN=N;
   0160 C5                  313 	push	bc
   0161 CDr00s00            314 	call	___sint2fs
   0164 E8 02               315 	lda	sp,2(sp)
   0166 E5                  316 	push	hl
   0167 F8 0B               317 	ldhl	sp,#11
   0169 73                  318 	ld	(hl),e
   016A 23                  319 	inc	hl
   016B 72                  320 	ld	(hl),d
   016C D1                  321 	pop	de
   016D 23                  322 	inc	hl
   016E 73                  323 	ld	(hl),e
   016F 23                  324 	inc	hl
   0170 72                  325 	ld	(hl),d
                            326 ;../sincosf.c:83: if(iscos) XN-=0.5;
   0171 F8 23               327 	ldhl	sp,#35
   0173 CB 46               328 	bit	0,(hl)
   0175 CArB2s01            329 	jp	Z,00112$
   0178 21 00 3F            330 	ld	hl,#0x3F00
   017B E5                  331 	push	hl
   017C 21 00 00            332 	ld	hl,#0x0000
   017F E5                  333 	push	hl
   0180 F8 0F               334 	ldhl	sp,#15
   0182 7E                  335 	ld	a,(hl)
   0183 23                  336 	inc	hl
   0184 66                  337 	ld	h,(hl)
   0185 6F                  338 	ld	l,a
   0186 E5                  339 	push	hl
   0187 F8 0F               340 	ldhl	sp,#15
   0189 7E                  341 	ld	a,(hl)
   018A 23                  342 	inc	hl
   018B 66                  343 	ld	h,(hl)
   018C 6F                  344 	ld	l,a
   018D E5                  345 	push	hl
   018E CDr00s00            346 	call	___fssub
   0191 E8 08               347 	lda	sp,8(sp)
   0193 E5                  348 	push	hl
   0194 F8 06               349 	ldhl	sp,#6
   0196 73                  350 	ld	(hl),e
   0197 23                  351 	inc	hl
   0198 72                  352 	ld	(hl),d
   0199 D1                  353 	pop	de
   019A 23                  354 	inc	hl
   019B 73                  355 	ld	(hl),e
   019C 23                  356 	inc	hl
   019D 72                  357 	ld	(hl),d
   019E F8 04               358 	ldhl	sp,#4
   01A0 54                  359 	ld	d,h
   01A1 5D                  360 	ld	e,l
   01A2 F8 09               361 	ldhl	sp,#9
   01A4 1A                  362 	ld	a,(de)
   01A5 77                  363 	ld	(hl),a
   01A6 23                  364 	inc	hl
   01A7 13                  365 	inc	de
   01A8 1A                  366 	ld	a,(de)
   01A9 77                  367 	ld	(hl),a
   01AA 23                  368 	inc	hl
   01AB 13                  369 	inc	de
   01AC 1A                  370 	ld	a,(de)
   01AD 77                  371 	ld	(hl),a
   01AE 23                  372 	inc	hl
   01AF 13                  373 	inc	de
   01B0 1A                  374 	ld	a,(de)
   01B1 77                  375 	ld	(hl),a
   01B2                     376 00112$:
                            377 ;../sincosf.c:85: y=fabsf(x);
   01B2 F8 21               378 	ldhl	sp,#33
   01B4 7E                  379 	ld	a,(hl)
   01B5 23                  380 	inc	hl
   01B6 66                  381 	ld	h,(hl)
   01B7 6F                  382 	ld	l,a
   01B8 E5                  383 	push	hl
   01B9 F8 21               384 	ldhl	sp,#33
   01BB 7E                  385 	ld	a,(hl)
   01BC 23                  386 	inc	hl
   01BD 66                  387 	ld	h,(hl)
   01BE 6F                  388 	ld	l,a
   01BF E5                  389 	push	hl
   01C0 CDr00s00            390 	call	_fabsf
   01C3 E8 04               391 	lda	sp,4(sp)
   01C5 E5                  392 	push	hl
   01C6 F8 06               393 	ldhl	sp,#6
   01C8 73                  394 	ld	(hl),e
   01C9 23                  395 	inc	hl
   01CA 72                  396 	ld	(hl),d
   01CB D1                  397 	pop	de
   01CC 23                  398 	inc	hl
   01CD 73                  399 	ld	(hl),e
   01CE 23                  400 	inc	hl
   01CF 72                  401 	ld	(hl),d
   01D0 F8 04               402 	ldhl	sp,#4
   01D2 54                  403 	ld	d,h
   01D3 5D                  404 	ld	e,l
   01D4 F8 19               405 	ldhl	sp,#25
   01D6 1A                  406 	ld	a,(de)
   01D7 77                  407 	ld	(hl),a
   01D8 23                  408 	inc	hl
   01D9 13                  409 	inc	de
   01DA 1A                  410 	ld	a,(de)
   01DB 77                  411 	ld	(hl),a
   01DC 23                  412 	inc	hl
   01DD 13                  413 	inc	de
   01DE 1A                  414 	ld	a,(de)
   01DF 77                  415 	ld	(hl),a
   01E0 23                  416 	inc	hl
   01E1 13                  417 	inc	de
   01E2 1A                  418 	ld	a,(de)
   01E3 77                  419 	ld	(hl),a
                            420 ;../sincosf.c:86: r=(int)y;
   01E4 F8 1B               421 	ldhl	sp,#27
   01E6 7E                  422 	ld	a,(hl)
   01E7 23                  423 	inc	hl
   01E8 66                  424 	ld	h,(hl)
   01E9 6F                  425 	ld	l,a
   01EA E5                  426 	push	hl
   01EB F8 1B               427 	ldhl	sp,#27
   01ED 7E                  428 	ld	a,(hl)
   01EE 23                  429 	inc	hl
   01EF 66                  430 	ld	h,(hl)
   01F0 6F                  431 	ld	l,a
   01F1 E5                  432 	push	hl
   01F2 CDr00s00            433 	call	___fs2sint
   01F5 E8 04               434 	lda	sp,4(sp)
   01F7 42                  435 	ld	b,d
   01F8 4B                  436 	ld	c,e
   01F9 C5                  437 	push	bc
   01FA CDr00s00            438 	call	___sint2fs
   01FD E8 02               439 	lda	sp,2(sp)
   01FF E5                  440 	push	hl
   0200 F8 13               441 	ldhl	sp,#19
   0202 73                  442 	ld	(hl),e
   0203 23                  443 	inc	hl
   0204 72                  444 	ld	(hl),d
   0205 D1                  445 	pop	de
   0206 23                  446 	inc	hl
   0207 73                  447 	ld	(hl),e
   0208 23                  448 	inc	hl
   0209 72                  449 	ld	(hl),d
                            450 ;../sincosf.c:87: g=y-r;
   020A F8 13               451 	ldhl	sp,#19
   020C 7E                  452 	ld	a,(hl)
   020D 23                  453 	inc	hl
   020E 66                  454 	ld	h,(hl)
   020F 6F                  455 	ld	l,a
   0210 E5                  456 	push	hl
   0211 F8 13               457 	ldhl	sp,#19
   0213 7E                  458 	ld	a,(hl)
   0214 23                  459 	inc	hl
   0215 66                  460 	ld	h,(hl)
   0216 6F                  461 	ld	l,a
   0217 E5                  462 	push	hl
   0218 F8 1F               463 	ldhl	sp,#31
   021A 7E                  464 	ld	a,(hl)
   021B 23                  465 	inc	hl
   021C 66                  466 	ld	h,(hl)
   021D 6F                  467 	ld	l,a
   021E E5                  468 	push	hl
   021F F8 1F               469 	ldhl	sp,#31
   0221 7E                  470 	ld	a,(hl)
   0222 23                  471 	inc	hl
   0223 66                  472 	ld	h,(hl)
   0224 6F                  473 	ld	l,a
   0225 E5                  474 	push	hl
   0226 CDr00s00            475 	call	___fssub
   0229 E8 08               476 	lda	sp,8(sp)
   022B E5                  477 	push	hl
   022C F8 0F               478 	ldhl	sp,#15
   022E 73                  479 	ld	(hl),e
   022F 23                  480 	inc	hl
   0230 72                  481 	ld	(hl),d
   0231 D1                  482 	pop	de
   0232 23                  483 	inc	hl
   0233 73                  484 	ld	(hl),e
   0234 23                  485 	inc	hl
   0235 72                  486 	ld	(hl),d
                            487 ;../sincosf.c:88: f=((r-XN*C1)+g)-XN*C2;
   0236 F8 0B               488 	ldhl	sp,#11
   0238 7E                  489 	ld	a,(hl)
   0239 23                  490 	inc	hl
   023A 66                  491 	ld	h,(hl)
   023B 6F                  492 	ld	l,a
   023C E5                  493 	push	hl
   023D F8 0B               494 	ldhl	sp,#11
   023F 7E                  495 	ld	a,(hl)
   0240 23                  496 	inc	hl
   0241 66                  497 	ld	h,(hl)
   0242 6F                  498 	ld	l,a
   0243 E5                  499 	push	hl
   0244 21 49 40            500 	ld	hl,#0x4049
   0247 E5                  501 	push	hl
   0248 21 00 00            502 	ld	hl,#0x0000
   024B E5                  503 	push	hl
   024C CDr00s00            504 	call	___fsmul
   024F E8 08               505 	lda	sp,8(sp)
   0251 E5                  506 	push	hl
   0252 F8 06               507 	ldhl	sp,#6
   0254 73                  508 	ld	(hl),e
   0255 23                  509 	inc	hl
   0256 72                  510 	ld	(hl),d
   0257 D1                  511 	pop	de
   0258 23                  512 	inc	hl
   0259 73                  513 	ld	(hl),e
   025A 23                  514 	inc	hl
   025B 72                  515 	ld	(hl),d
   025C F8 06               516 	ldhl	sp,#6
   025E 7E                  517 	ld	a,(hl)
   025F 23                  518 	inc	hl
   0260 66                  519 	ld	h,(hl)
   0261 6F                  520 	ld	l,a
   0262 E5                  521 	push	hl
   0263 F8 06               522 	ldhl	sp,#6
   0265 7E                  523 	ld	a,(hl)
   0266 23                  524 	inc	hl
   0267 66                  525 	ld	h,(hl)
   0268 6F                  526 	ld	l,a
   0269 E5                  527 	push	hl
   026A F8 17               528 	ldhl	sp,#23
   026C 7E                  529 	ld	a,(hl)
   026D 23                  530 	inc	hl
   026E 66                  531 	ld	h,(hl)
   026F 6F                  532 	ld	l,a
   0270 E5                  533 	push	hl
   0271 F8 17               534 	ldhl	sp,#23
   0273 7E                  535 	ld	a,(hl)
   0274 23                  536 	inc	hl
   0275 66                  537 	ld	h,(hl)
   0276 6F                  538 	ld	l,a
   0277 E5                  539 	push	hl
   0278 CDr00s00            540 	call	___fssub
   027B E8 08               541 	lda	sp,8(sp)
   027D E5                  542 	push	hl
   027E F8 06               543 	ldhl	sp,#6
   0280 73                  544 	ld	(hl),e
   0281 23                  545 	inc	hl
   0282 72                  546 	ld	(hl),d
   0283 D1                  547 	pop	de
   0284 23                  548 	inc	hl
   0285 73                  549 	ld	(hl),e
   0286 23                  550 	inc	hl
   0287 72                  551 	ld	(hl),d
   0288 F8 0F               552 	ldhl	sp,#15
   028A 7E                  553 	ld	a,(hl)
   028B 23                  554 	inc	hl
   028C 66                  555 	ld	h,(hl)
   028D 6F                  556 	ld	l,a
   028E E5                  557 	push	hl
   028F F8 0F               558 	ldhl	sp,#15
   0291 7E                  559 	ld	a,(hl)
   0292 23                  560 	inc	hl
   0293 66                  561 	ld	h,(hl)
   0294 6F                  562 	ld	l,a
   0295 E5                  563 	push	hl
   0296 F8 0A               564 	ldhl	sp,#10
   0298 7E                  565 	ld	a,(hl)
   0299 23                  566 	inc	hl
   029A 66                  567 	ld	h,(hl)
   029B 6F                  568 	ld	l,a
   029C E5                  569 	push	hl
   029D F8 0A               570 	ldhl	sp,#10
   029F 7E                  571 	ld	a,(hl)
   02A0 23                  572 	inc	hl
   02A1 66                  573 	ld	h,(hl)
   02A2 6F                  574 	ld	l,a
   02A3 E5                  575 	push	hl
   02A4 CDr00s00            576 	call	___fsadd
   02A7 E8 08               577 	lda	sp,8(sp)
   02A9 E5                  578 	push	hl
   02AA F8 06               579 	ldhl	sp,#6
   02AC 73                  580 	ld	(hl),e
   02AD 23                  581 	inc	hl
   02AE 72                  582 	ld	(hl),d
   02AF D1                  583 	pop	de
   02B0 23                  584 	inc	hl
   02B1 73                  585 	ld	(hl),e
   02B2 23                  586 	inc	hl
   02B3 72                  587 	ld	(hl),d
   02B4 F8 0B               588 	ldhl	sp,#11
   02B6 7E                  589 	ld	a,(hl)
   02B7 23                  590 	inc	hl
   02B8 66                  591 	ld	h,(hl)
   02B9 6F                  592 	ld	l,a
   02BA E5                  593 	push	hl
   02BB F8 0B               594 	ldhl	sp,#11
   02BD 7E                  595 	ld	a,(hl)
   02BE 23                  596 	inc	hl
   02BF 66                  597 	ld	h,(hl)
   02C0 6F                  598 	ld	l,a
   02C1 E5                  599 	push	hl
   02C2 21 7D 3A            600 	ld	hl,#0x3A7D
   02C5 E5                  601 	push	hl
   02C6 21 22 AA            602 	ld	hl,#0xAA22
   02C9 E5                  603 	push	hl
   02CA CDr00s00            604 	call	___fsmul
   02CD E8 08               605 	lda	sp,8(sp)
   02CF E5                  606 	push	hl
   02D0 F8 02               607 	ldhl	sp,#2
   02D2 73                  608 	ld	(hl),e
   02D3 23                  609 	inc	hl
   02D4 72                  610 	ld	(hl),d
   02D5 D1                  611 	pop	de
   02D6 23                  612 	inc	hl
   02D7 73                  613 	ld	(hl),e
   02D8 23                  614 	inc	hl
   02D9 72                  615 	ld	(hl),d
   02DA F8 02               616 	ldhl	sp,#2
   02DC 7E                  617 	ld	a,(hl)
   02DD 23                  618 	inc	hl
   02DE 66                  619 	ld	h,(hl)
   02DF 6F                  620 	ld	l,a
   02E0 E5                  621 	push	hl
   02E1 F8 02               622 	ldhl	sp,#2
   02E3 7E                  623 	ld	a,(hl)
   02E4 23                  624 	inc	hl
   02E5 66                  625 	ld	h,(hl)
   02E6 6F                  626 	ld	l,a
   02E7 E5                  627 	push	hl
   02E8 F8 0A               628 	ldhl	sp,#10
   02EA 7E                  629 	ld	a,(hl)
   02EB 23                  630 	inc	hl
   02EC 66                  631 	ld	h,(hl)
   02ED 6F                  632 	ld	l,a
   02EE E5                  633 	push	hl
   02EF F8 0A               634 	ldhl	sp,#10
   02F1 7E                  635 	ld	a,(hl)
   02F2 23                  636 	inc	hl
   02F3 66                  637 	ld	h,(hl)
   02F4 6F                  638 	ld	l,a
   02F5 E5                  639 	push	hl
   02F6 CDr00s00            640 	call	___fssub
   02F9 E8 08               641 	lda	sp,8(sp)
   02FB E5                  642 	push	hl
   02FC F8 17               643 	ldhl	sp,#23
   02FE 73                  644 	ld	(hl),e
   02FF 23                  645 	inc	hl
   0300 72                  646 	ld	(hl),d
   0301 D1                  647 	pop	de
   0302 23                  648 	inc	hl
   0303 73                  649 	ld	(hl),e
   0304 23                  650 	inc	hl
   0305 72                  651 	ld	(hl),d
                            652 ;../sincosf.c:90: g=f*f;
   0306 F8 17               653 	ldhl	sp,#23
   0308 7E                  654 	ld	a,(hl)
   0309 23                  655 	inc	hl
   030A 66                  656 	ld	h,(hl)
   030B 6F                  657 	ld	l,a
   030C E5                  658 	push	hl
   030D F8 17               659 	ldhl	sp,#23
   030F 7E                  660 	ld	a,(hl)
   0310 23                  661 	inc	hl
   0311 66                  662 	ld	h,(hl)
   0312 6F                  663 	ld	l,a
   0313 E5                  664 	push	hl
   0314 F8 1B               665 	ldhl	sp,#27
   0316 7E                  666 	ld	a,(hl)
   0317 23                  667 	inc	hl
   0318 66                  668 	ld	h,(hl)
   0319 6F                  669 	ld	l,a
   031A E5                  670 	push	hl
   031B F8 1B               671 	ldhl	sp,#27
   031D 7E                  672 	ld	a,(hl)
   031E 23                  673 	inc	hl
   031F 66                  674 	ld	h,(hl)
   0320 6F                  675 	ld	l,a
   0321 E5                  676 	push	hl
   0322 CDr00s00            677 	call	___fsmul
   0325 E8 08               678 	lda	sp,8(sp)
   0327 E5                  679 	push	hl
   0328 F8 02               680 	ldhl	sp,#2
   032A 73                  681 	ld	(hl),e
   032B 23                  682 	inc	hl
   032C 72                  683 	ld	(hl),d
   032D D1                  684 	pop	de
   032E 23                  685 	inc	hl
   032F 73                  686 	ld	(hl),e
   0330 23                  687 	inc	hl
   0331 72                  688 	ld	(hl),d
   0332 F8 00               689 	ldhl	sp,#0
   0334 54                  690 	ld	d,h
   0335 5D                  691 	ld	e,l
   0336 F8 0D               692 	ldhl	sp,#13
   0338 1A                  693 	ld	a,(de)
   0339 77                  694 	ld	(hl),a
   033A 23                  695 	inc	hl
   033B 13                  696 	inc	de
   033C 1A                  697 	ld	a,(de)
   033D 77                  698 	ld	(hl),a
   033E 23                  699 	inc	hl
   033F 13                  700 	inc	de
   0340 1A                  701 	ld	a,(de)
   0341 77                  702 	ld	(hl),a
   0342 23                  703 	inc	hl
   0343 13                  704 	inc	de
   0344 1A                  705 	ld	a,(de)
   0345 77                  706 	ld	(hl),a
                            707 ;../sincosf.c:91: if(g>EPS2) //Used to be if(fabsf(f)>EPS)
   0346 21 7F 33            708 	ld	hl,#0x337F
   0349 E5                  709 	push	hl
   034A 21 F3 FF            710 	ld	hl,#0xFFF3
   034D E5                  711 	push	hl
   034E F8 13               712 	ldhl	sp,#19
   0350 7E                  713 	ld	a,(hl)
   0351 23                  714 	inc	hl
   0352 66                  715 	ld	h,(hl)
   0353 6F                  716 	ld	l,a
   0354 E5                  717 	push	hl
   0355 F8 13               718 	ldhl	sp,#19
   0357 7E                  719 	ld	a,(hl)
   0358 23                  720 	inc	hl
   0359 66                  721 	ld	h,(hl)
   035A 6F                  722 	ld	l,a
   035B E5                  723 	push	hl
   035C CDr00s00            724 	call	___fsgt
   035F E8 08               725 	lda	sp,8(sp)
   0361 4B                  726 	ld	c,e
   0362 AF                  727 	xor	a,a
   0363 B1                  728 	or	a,c
   0364 CAr03s05            729 	jp	Z,00114$
                            730 ;../sincosf.c:93: r=(((r4*g+r3)*g+r2)*g+r1)*g;
   0367 F8 0F               731 	ldhl	sp,#15
   0369 7E                  732 	ld	a,(hl)
   036A 23                  733 	inc	hl
   036B 66                  734 	ld	h,(hl)
   036C 6F                  735 	ld	l,a
   036D E5                  736 	push	hl
   036E F8 0F               737 	ldhl	sp,#15
   0370 7E                  738 	ld	a,(hl)
   0371 23                  739 	inc	hl
   0372 66                  740 	ld	h,(hl)
   0373 6F                  741 	ld	l,a
   0374 E5                  742 	push	hl
   0375 21 2E 36            743 	ld	hl,#0x362E
   0378 E5                  744 	push	hl
   0379 21 5B 9C            745 	ld	hl,#0x9C5B
   037C E5                  746 	push	hl
   037D CDr00s00            747 	call	___fsmul
   0380 E8 08               748 	lda	sp,8(sp)
   0382 E5                  749 	push	hl
   0383 F8 02               750 	ldhl	sp,#2
   0385 73                  751 	ld	(hl),e
   0386 23                  752 	inc	hl
   0387 72                  753 	ld	(hl),d
   0388 D1                  754 	pop	de
   0389 23                  755 	inc	hl
   038A 73                  756 	ld	(hl),e
   038B 23                  757 	inc	hl
   038C 72                  758 	ld	(hl),d
   038D 21 4F B9            759 	ld	hl,#0xB94F
   0390 E5                  760 	push	hl
   0391 21 22 B2            761 	ld	hl,#0xB222
   0394 E5                  762 	push	hl
   0395 F8 06               763 	ldhl	sp,#6
   0397 7E                  764 	ld	a,(hl)
   0398 23                  765 	inc	hl
   0399 66                  766 	ld	h,(hl)
   039A 6F                  767 	ld	l,a
   039B E5                  768 	push	hl
   039C F8 06               769 	ldhl	sp,#6
   039E 7E                  770 	ld	a,(hl)
   039F 23                  771 	inc	hl
   03A0 66                  772 	ld	h,(hl)
   03A1 6F                  773 	ld	l,a
   03A2 E5                  774 	push	hl
   03A3 CDr00s00            775 	call	___fsadd
   03A6 E8 08               776 	lda	sp,8(sp)
   03A8 E5                  777 	push	hl
   03A9 F8 02               778 	ldhl	sp,#2
   03AB 73                  779 	ld	(hl),e
   03AC 23                  780 	inc	hl
   03AD 72                  781 	ld	(hl),d
   03AE D1                  782 	pop	de
   03AF 23                  783 	inc	hl
   03B0 73                  784 	ld	(hl),e
   03B1 23                  785 	inc	hl
   03B2 72                  786 	ld	(hl),d
   03B3 F8 0F               787 	ldhl	sp,#15
   03B5 7E                  788 	ld	a,(hl)
   03B6 23                  789 	inc	hl
   03B7 66                  790 	ld	h,(hl)
   03B8 6F                  791 	ld	l,a
   03B9 E5                  792 	push	hl
   03BA F8 0F               793 	ldhl	sp,#15
   03BC 7E                  794 	ld	a,(hl)
   03BD 23                  795 	inc	hl
   03BE 66                  796 	ld	h,(hl)
   03BF 6F                  797 	ld	l,a
   03C0 E5                  798 	push	hl
   03C1 F8 06               799 	ldhl	sp,#6
   03C3 7E                  800 	ld	a,(hl)
   03C4 23                  801 	inc	hl
   03C5 66                  802 	ld	h,(hl)
   03C6 6F                  803 	ld	l,a
   03C7 E5                  804 	push	hl
   03C8 F8 06               805 	ldhl	sp,#6
   03CA 7E                  806 	ld	a,(hl)
   03CB 23                  807 	inc	hl
   03CC 66                  808 	ld	h,(hl)
   03CD 6F                  809 	ld	l,a
   03CE E5                  810 	push	hl
   03CF CDr00s00            811 	call	___fsmul
   03D2 E8 08               812 	lda	sp,8(sp)
   03D4 E5                  813 	push	hl
   03D5 F8 02               814 	ldhl	sp,#2
   03D7 73                  815 	ld	(hl),e
   03D8 23                  816 	inc	hl
   03D9 72                  817 	ld	(hl),d
   03DA D1                  818 	pop	de
   03DB 23                  819 	inc	hl
   03DC 73                  820 	ld	(hl),e
   03DD 23                  821 	inc	hl
   03DE 72                  822 	ld	(hl),d
   03DF 21 08 3C            823 	ld	hl,#0x3C08
   03E2 E5                  824 	push	hl
   03E3 21 3E 87            825 	ld	hl,#0x873E
   03E6 E5                  826 	push	hl
   03E7 F8 06               827 	ldhl	sp,#6
   03E9 7E                  828 	ld	a,(hl)
   03EA 23                  829 	inc	hl
   03EB 66                  830 	ld	h,(hl)
   03EC 6F                  831 	ld	l,a
   03ED E5                  832 	push	hl
   03EE F8 06               833 	ldhl	sp,#6
   03F0 7E                  834 	ld	a,(hl)
   03F1 23                  835 	inc	hl
   03F2 66                  836 	ld	h,(hl)
   03F3 6F                  837 	ld	l,a
   03F4 E5                  838 	push	hl
   03F5 CDr00s00            839 	call	___fsadd
   03F8 E8 08               840 	lda	sp,8(sp)
   03FA E5                  841 	push	hl
   03FB F8 02               842 	ldhl	sp,#2
   03FD 73                  843 	ld	(hl),e
   03FE 23                  844 	inc	hl
   03FF 72                  845 	ld	(hl),d
   0400 D1                  846 	pop	de
   0401 23                  847 	inc	hl
   0402 73                  848 	ld	(hl),e
   0403 23                  849 	inc	hl
   0404 72                  850 	ld	(hl),d
   0405 F8 0F               851 	ldhl	sp,#15
   0407 7E                  852 	ld	a,(hl)
   0408 23                  853 	inc	hl
   0409 66                  854 	ld	h,(hl)
   040A 6F                  855 	ld	l,a
   040B E5                  856 	push	hl
   040C F8 0F               857 	ldhl	sp,#15
   040E 7E                  858 	ld	a,(hl)
   040F 23                  859 	inc	hl
   0410 66                  860 	ld	h,(hl)
   0411 6F                  861 	ld	l,a
   0412 E5                  862 	push	hl
   0413 F8 06               863 	ldhl	sp,#6
   0415 7E                  864 	ld	a,(hl)
   0416 23                  865 	inc	hl
   0417 66                  866 	ld	h,(hl)
   0418 6F                  867 	ld	l,a
   0419 E5                  868 	push	hl
   041A F8 06               869 	ldhl	sp,#6
   041C 7E                  870 	ld	a,(hl)
   041D 23                  871 	inc	hl
   041E 66                  872 	ld	h,(hl)
   041F 6F                  873 	ld	l,a
   0420 E5                  874 	push	hl
   0421 CDr00s00            875 	call	___fsmul
   0424 E8 08               876 	lda	sp,8(sp)
   0426 E5                  877 	push	hl
   0427 F8 02               878 	ldhl	sp,#2
   0429 73                  879 	ld	(hl),e
   042A 23                  880 	inc	hl
   042B 72                  881 	ld	(hl),d
   042C D1                  882 	pop	de
   042D 23                  883 	inc	hl
   042E 73                  884 	ld	(hl),e
   042F 23                  885 	inc	hl
   0430 72                  886 	ld	(hl),d
   0431 21 2A BE            887 	ld	hl,#0xBE2A
   0434 E5                  888 	push	hl
   0435 21 A4 AA            889 	ld	hl,#0xAAA4
   0438 E5                  890 	push	hl
   0439 F8 06               891 	ldhl	sp,#6
   043B 7E                  892 	ld	a,(hl)
   043C 23                  893 	inc	hl
   043D 66                  894 	ld	h,(hl)
   043E 6F                  895 	ld	l,a
   043F E5                  896 	push	hl
   0440 F8 06               897 	ldhl	sp,#6
   0442 7E                  898 	ld	a,(hl)
   0443 23                  899 	inc	hl
   0444 66                  900 	ld	h,(hl)
   0445 6F                  901 	ld	l,a
   0446 E5                  902 	push	hl
   0447 CDr00s00            903 	call	___fsadd
   044A E8 08               904 	lda	sp,8(sp)
   044C E5                  905 	push	hl
   044D F8 02               906 	ldhl	sp,#2
   044F 73                  907 	ld	(hl),e
   0450 23                  908 	inc	hl
   0451 72                  909 	ld	(hl),d
   0452 D1                  910 	pop	de
   0453 23                  911 	inc	hl
   0454 73                  912 	ld	(hl),e
   0455 23                  913 	inc	hl
   0456 72                  914 	ld	(hl),d
   0457 F8 0F               915 	ldhl	sp,#15
   0459 7E                  916 	ld	a,(hl)
   045A 23                  917 	inc	hl
   045B 66                  918 	ld	h,(hl)
   045C 6F                  919 	ld	l,a
   045D E5                  920 	push	hl
   045E F8 0F               921 	ldhl	sp,#15
   0460 7E                  922 	ld	a,(hl)
   0461 23                  923 	inc	hl
   0462 66                  924 	ld	h,(hl)
   0463 6F                  925 	ld	l,a
   0464 E5                  926 	push	hl
   0465 F8 06               927 	ldhl	sp,#6
   0467 7E                  928 	ld	a,(hl)
   0468 23                  929 	inc	hl
   0469 66                  930 	ld	h,(hl)
   046A 6F                  931 	ld	l,a
   046B E5                  932 	push	hl
   046C F8 06               933 	ldhl	sp,#6
   046E 7E                  934 	ld	a,(hl)
   046F 23                  935 	inc	hl
   0470 66                  936 	ld	h,(hl)
   0471 6F                  937 	ld	l,a
   0472 E5                  938 	push	hl
   0473 CDr00s00            939 	call	___fsmul
   0476 E8 08               940 	lda	sp,8(sp)
   0478 E5                  941 	push	hl
   0479 F8 02               942 	ldhl	sp,#2
   047B 73                  943 	ld	(hl),e
   047C 23                  944 	inc	hl
   047D 72                  945 	ld	(hl),d
   047E D1                  946 	pop	de
   047F 23                  947 	inc	hl
   0480 73                  948 	ld	(hl),e
   0481 23                  949 	inc	hl
   0482 72                  950 	ld	(hl),d
   0483 F8 00               951 	ldhl	sp,#0
   0485 54                  952 	ld	d,h
   0486 5D                  953 	ld	e,l
   0487 F8 11               954 	ldhl	sp,#17
   0489 1A                  955 	ld	a,(de)
   048A 77                  956 	ld	(hl),a
   048B 23                  957 	inc	hl
   048C 13                  958 	inc	de
   048D 1A                  959 	ld	a,(de)
   048E 77                  960 	ld	(hl),a
   048F 23                  961 	inc	hl
   0490 13                  962 	inc	de
   0491 1A                  963 	ld	a,(de)
   0492 77                  964 	ld	(hl),a
   0493 23                  965 	inc	hl
   0494 13                  966 	inc	de
   0495 1A                  967 	ld	a,(de)
   0496 77                  968 	ld	(hl),a
                            969 ;../sincosf.c:94: f+=f*r;
   0497 F8 13               970 	ldhl	sp,#19
   0499 7E                  971 	ld	a,(hl)
   049A 23                  972 	inc	hl
   049B 66                  973 	ld	h,(hl)
   049C 6F                  974 	ld	l,a
   049D E5                  975 	push	hl
   049E F8 13               976 	ldhl	sp,#19
   04A0 7E                  977 	ld	a,(hl)
   04A1 23                  978 	inc	hl
   04A2 66                  979 	ld	h,(hl)
   04A3 6F                  980 	ld	l,a
   04A4 E5                  981 	push	hl
   04A5 F8 1B               982 	ldhl	sp,#27
   04A7 7E                  983 	ld	a,(hl)
   04A8 23                  984 	inc	hl
   04A9 66                  985 	ld	h,(hl)
   04AA 6F                  986 	ld	l,a
   04AB E5                  987 	push	hl
   04AC F8 1B               988 	ldhl	sp,#27
   04AE 7E                  989 	ld	a,(hl)
   04AF 23                  990 	inc	hl
   04B0 66                  991 	ld	h,(hl)
   04B1 6F                  992 	ld	l,a
   04B2 E5                  993 	push	hl
   04B3 CDr00s00            994 	call	___fsmul
   04B6 E8 08               995 	lda	sp,8(sp)
   04B8 E5                  996 	push	hl
   04B9 F8 02               997 	ldhl	sp,#2
   04BB 73                  998 	ld	(hl),e
   04BC 23                  999 	inc	hl
   04BD 72                 1000 	ld	(hl),d
   04BE D1                 1001 	pop	de
   04BF 23                 1002 	inc	hl
   04C0 73                 1003 	ld	(hl),e
   04C1 23                 1004 	inc	hl
   04C2 72                 1005 	ld	(hl),d
   04C3 F8 02              1006 	ldhl	sp,#2
   04C5 7E                 1007 	ld	a,(hl)
   04C6 23                 1008 	inc	hl
   04C7 66                 1009 	ld	h,(hl)
   04C8 6F                 1010 	ld	l,a
   04C9 E5                 1011 	push	hl
   04CA F8 02              1012 	ldhl	sp,#2
   04CC 7E                 1013 	ld	a,(hl)
   04CD 23                 1014 	inc	hl
   04CE 66                 1015 	ld	h,(hl)
   04CF 6F                 1016 	ld	l,a
   04D0 E5                 1017 	push	hl
   04D1 F8 1B              1018 	ldhl	sp,#27
   04D3 7E                 1019 	ld	a,(hl)
   04D4 23                 1020 	inc	hl
   04D5 66                 1021 	ld	h,(hl)
   04D6 6F                 1022 	ld	l,a
   04D7 E5                 1023 	push	hl
   04D8 F8 1B              1024 	ldhl	sp,#27
   04DA 7E                 1025 	ld	a,(hl)
   04DB 23                 1026 	inc	hl
   04DC 66                 1027 	ld	h,(hl)
   04DD 6F                 1028 	ld	l,a
   04DE E5                 1029 	push	hl
   04DF CDr00s00           1030 	call	___fsadd
   04E2 E8 08              1031 	lda	sp,8(sp)
   04E4 E5                 1032 	push	hl
   04E5 F8 02              1033 	ldhl	sp,#2
   04E7 73                 1034 	ld	(hl),e
   04E8 23                 1035 	inc	hl
   04E9 72                 1036 	ld	(hl),d
   04EA D1                 1037 	pop	de
   04EB 23                 1038 	inc	hl
   04EC 73                 1039 	ld	(hl),e
   04ED 23                 1040 	inc	hl
   04EE 72                 1041 	ld	(hl),d
   04EF F8 00              1042 	ldhl	sp,#0
   04F1 54                 1043 	ld	d,h
   04F2 5D                 1044 	ld	e,l
   04F3 F8 15              1045 	ldhl	sp,#21
   04F5 1A                 1046 	ld	a,(de)
   04F6 77                 1047 	ld	(hl),a
   04F7 23                 1048 	inc	hl
   04F8 13                 1049 	inc	de
   04F9 1A                 1050 	ld	a,(de)
   04FA 77                 1051 	ld	(hl),a
   04FB 23                 1052 	inc	hl
   04FC 13                 1053 	inc	de
   04FD 1A                 1054 	ld	a,(de)
   04FE 77                 1055 	ld	(hl),a
   04FF 23                 1056 	inc	hl
   0500 13                 1057 	inc	de
   0501 1A                 1058 	ld	a,(de)
   0502 77                 1059 	ld	(hl),a
   0503                    1060 00114$:
                           1061 ;../sincosf.c:96: return (sign?-f:f);
   0503 F8 08              1062 	ldhl	sp,#8
   0505 CB 46              1063 	bit	0,(hl)
   0507 CAr26s05           1064 	jp	Z,00117$
   050A F8 18              1065 	ldhl	sp,#24
   050C 7E                 1066 	ld	a,(hl)
   050D EE 80              1067 	xor	a,#0x80
   050F F8 03              1068 	ldhl	sp,#3
   0511 77                 1069 	ld	(hl),a
   0512 F8 15              1070 	ldhl	sp,#21
   0514 7E                 1071 	ld	a,(hl)
   0515 F8 00              1072 	ldhl	sp,#0
   0517 77                 1073 	ld	(hl),a
   0518 F8 16              1074 	ldhl	sp,#22
   051A 7E                 1075 	ld	a,(hl)
   051B F8 01              1076 	ldhl	sp,#1
   051D 77                 1077 	ld	(hl),a
   051E F8 17              1078 	ldhl	sp,#23
   0520 7E                 1079 	ld	a,(hl)
   0521 F8 02              1080 	ldhl	sp,#2
   0523 77                 1081 	ld	(hl),a
   0524 18 14              1082 	jr	00118$
   0526                    1083 00117$:
   0526 F8 15              1084 	ldhl	sp,#21
   0528 54                 1085 	ld	d,h
   0529 5D                 1086 	ld	e,l
   052A F8 00              1087 	ldhl	sp,#0
   052C 1A                 1088 	ld	a,(de)
   052D 77                 1089 	ld	(hl),a
   052E 23                 1090 	inc	hl
   052F 13                 1091 	inc	de
   0530 1A                 1092 	ld	a,(de)
   0531 77                 1093 	ld	(hl),a
   0532 23                 1094 	inc	hl
   0533 13                 1095 	inc	de
   0534 1A                 1096 	ld	a,(de)
   0535 77                 1097 	ld	(hl),a
   0536 23                 1098 	inc	hl
   0537 13                 1099 	inc	de
   0538 1A                 1100 	ld	a,(de)
   0539 77                 1101 	ld	(hl),a
   053A                    1102 00118$:
   053A F8 01              1103 	ldhl	sp,#1
   053C 2B                 1104 	dec	hl
   053D 5E                 1105 	ld	e,(hl)
   053E 23                 1106 	inc	hl
   053F 56                 1107 	ld	d,(hl)
   0540 23                 1108 	inc	hl
   0541 7E                 1109 	ld	a,(hl)
   0542 23                 1110 	inc	hl
   0543 66                 1111 	ld	h,(hl)
   0544 6F                 1112 	ld	l,a
   0545                    1113 00115$:
   0545 E8 1D              1114 	lda	sp,29(sp)
   0547 C9                 1115 	ret
   0548                    1116 _sincosf_end::
                           1117 	.area _CODE
                           1118 	.area _CABS
