;--------------------------------------------------------
; File Created by SDCC : free open source ANSI-C Compiler
; Version 3.0.1 #6227 (Oct  2 2015) (Linux)
; This file was generated Fri Oct  2 17:18:19 2015
;--------------------------------------------------------
	.module sincosf
	.optsdcc -mgbz80
	
;--------------------------------------------------------
; Public variables in this module
;--------------------------------------------------------
	.globl _sincosf
;--------------------------------------------------------
;  ram data
;--------------------------------------------------------
	.area _DATA
;--------------------------------------------------------
; overlayable items in  ram 
;--------------------------------------------------------
	.area _OVERLAY
;--------------------------------------------------------
; external initialized ram data
;--------------------------------------------------------
;--------------------------------------------------------
; global & static initialisations
;--------------------------------------------------------
	.area _HOME
	.area _GSINIT
	.area _GSFINAL
	.area _GSINIT
;--------------------------------------------------------
; Home
;--------------------------------------------------------
	.area _HOME
	.area _HOME
;--------------------------------------------------------
; code
;--------------------------------------------------------
	.area _CODE
;../sincosf.c:50: float sincosf(const float x, const BOOL iscos)
;	---------------------------------
; Function sincosf
; ---------------------------------
_sincosf_start::
_sincosf:
	lda	sp,-29(sp)
;../sincosf.c:56: if(iscos)
	ldhl	sp,#35
	bit	0,(hl)
	jp	Z,00105$
;../sincosf.c:58: y=fabsf(x)+HALF_PI;
	dec	hl
	dec	hl
	ld	a,(hl)
	inc	hl
	ld	h,(hl)
	ld	l,a
	push	hl
	ldhl	sp,#33
	ld	a,(hl)
	inc	hl
	ld	h,(hl)
	ld	l,a
	push	hl
	call	_fabsf
	lda	sp,4(sp)
	push	hl
	ldhl	sp,#6
	ld	(hl),e
	inc	hl
	ld	(hl),d
	pop	de
	inc	hl
	ld	(hl),e
	inc	hl
	ld	(hl),d
	ld	hl,#0x3FC9
	push	hl
	ld	hl,#0x0FDB
	push	hl
	ldhl	sp,#10
	ld	a,(hl)
	inc	hl
	ld	h,(hl)
	ld	l,a
	push	hl
	ldhl	sp,#10
	ld	a,(hl)
	inc	hl
	ld	h,(hl)
	ld	l,a
	push	hl
	call	___fsadd
	lda	sp,8(sp)
	push	hl
	ldhl	sp,#27
	ld	(hl),e
	inc	hl
	ld	(hl),d
	pop	de
	inc	hl
	ld	(hl),e
	inc	hl
	ld	(hl),d
;../sincosf.c:59: sign=0;
	ldhl	sp,#8
	ld	(hl),#0x00
	jp	00106$
00105$:
;../sincosf.c:63: if(x<0.0)
	ld	hl,#0x0000
	push	hl
	ld	hl,#0x0000
	push	hl
	ldhl	sp,#37
	ld	a,(hl)
	inc	hl
	ld	h,(hl)
	ld	l,a
	push	hl
	ldhl	sp,#37
	ld	a,(hl)
	inc	hl
	ld	h,(hl)
	ld	l,a
	push	hl
	call	___fslt
	lda	sp,8(sp)
	ld	b,e
	xor	a,a
	or	a,b
	jp	Z,00102$
;../sincosf.c:64: { y=-x; sign=1; }
	ldhl	sp,#34
	ld	a,(hl)
	xor	a,#0x80
	ldhl	sp,#7
	ld	(hl),a
	ldhl	sp,#31
	ld	a,(hl)
	ldhl	sp,#4
	ld	(hl),a
	ldhl	sp,#32
	ld	a,(hl)
	ldhl	sp,#5
	ld	(hl),a
	ldhl	sp,#33
	ld	a,(hl)
	ldhl	sp,#6
	ld	(hl),a
	dec	hl
	dec	hl
	ld	d,h
	ld	e,l
	ldhl	sp,#25
	ld	a,(de)
	ld	(hl),a
	inc	hl
	inc	de
	ld	a,(de)
	ld	(hl),a
	inc	hl
	inc	de
	ld	a,(de)
	ld	(hl),a
	inc	hl
	inc	de
	ld	a,(de)
	ld	(hl),a
	ldhl	sp,#8
	ld	(hl),#0x01
	jr	00106$
00102$:
;../sincosf.c:66: { y=x; sign=0; }
	ldhl	sp,#31
	ld	d,h
	ld	e,l
	ldhl	sp,#25
	ld	a,(de)
	ld	(hl),a
	inc	hl
	inc	de
	ld	a,(de)
	ld	(hl),a
	inc	hl
	inc	de
	ld	a,(de)
	ld	(hl),a
	inc	hl
	inc	de
	ld	a,(de)
	ld	(hl),a
	ldhl	sp,#8
	ld	(hl),#0x00
00106$:
;../sincosf.c:69: if(y>YMAX)
	ld	hl,#0x4649
	push	hl
	ld	hl,#0x0C00
	push	hl
	ldhl	sp,#31
	ld	a,(hl)
	inc	hl
	ld	h,(hl)
	ld	l,a
	push	hl
	ldhl	sp,#31
	ld	a,(hl)
	inc	hl
	ld	h,(hl)
	ld	l,a
	push	hl
	call	___fsgt
	lda	sp,8(sp)
	ld	b,e
	xor	a,a
	or	a,b
	jp	Z,00108$
;../sincosf.c:71: errno=ERANGE;
	ld	hl,#_errno
	ld	(hl),#0x22
	inc	hl
	ld	(hl),#0x00
;../sincosf.c:72: return 0.0;
	ld	de,#0x0000
	ld	hl,#0x0000
	jp	00115$
00108$:
;../sincosf.c:76: N=((y*iPI)+0.5); /*y is positive*/
	ldhl	sp,#27
	ld	a,(hl)
	inc	hl
	ld	h,(hl)
	ld	l,a
	push	hl
	ldhl	sp,#27
	ld	a,(hl)
	inc	hl
	ld	h,(hl)
	ld	l,a
	push	hl
	ld	hl,#0x3EA2
	push	hl
	ld	hl,#0xF983
	push	hl
	call	___fsmul
	lda	sp,8(sp)
	push	hl
	ldhl	sp,#6
	ld	(hl),e
	inc	hl
	ld	(hl),d
	pop	de
	inc	hl
	ld	(hl),e
	inc	hl
	ld	(hl),d
	ld	hl,#0x3F00
	push	hl
	ld	hl,#0x0000
	push	hl
	ldhl	sp,#10
	ld	a,(hl)
	inc	hl
	ld	h,(hl)
	ld	l,a
	push	hl
	ldhl	sp,#10
	ld	a,(hl)
	inc	hl
	ld	h,(hl)
	ld	l,a
	push	hl
	call	___fsadd
	lda	sp,8(sp)
	push	hl
	ldhl	sp,#6
	ld	(hl),e
	inc	hl
	ld	(hl),d
	pop	de
	inc	hl
	ld	(hl),e
	inc	hl
	ld	(hl),d
	ldhl	sp,#6
	ld	a,(hl)
	inc	hl
	ld	h,(hl)
	ld	l,a
	push	hl
	ldhl	sp,#6
	ld	a,(hl)
	inc	hl
	ld	h,(hl)
	ld	l,a
	push	hl
	call	___fs2sint
	lda	sp,4(sp)
	ld	b,d
	ld	c,e
;../sincosf.c:79: if(N&1) sign=!sign;
	ld	a,c
	and	a,#0x01
	jp	Z,00110$
00126$:
	ldhl	sp,#8
	ld	a,(hl)
	xor	a,#0x01
	ld	(hl),a
00110$:
;../sincosf.c:81: XN=N;
	push	bc
	call	___sint2fs
	lda	sp,2(sp)
	push	hl
	ldhl	sp,#11
	ld	(hl),e
	inc	hl
	ld	(hl),d
	pop	de
	inc	hl
	ld	(hl),e
	inc	hl
	ld	(hl),d
;../sincosf.c:83: if(iscos) XN-=0.5;
	ldhl	sp,#35
	bit	0,(hl)
	jp	Z,00112$
	ld	hl,#0x3F00
	push	hl
	ld	hl,#0x0000
	push	hl
	ldhl	sp,#15
	ld	a,(hl)
	inc	hl
	ld	h,(hl)
	ld	l,a
	push	hl
	ldhl	sp,#15
	ld	a,(hl)
	inc	hl
	ld	h,(hl)
	ld	l,a
	push	hl
	call	___fssub
	lda	sp,8(sp)
	push	hl
	ldhl	sp,#6
	ld	(hl),e
	inc	hl
	ld	(hl),d
	pop	de
	inc	hl
	ld	(hl),e
	inc	hl
	ld	(hl),d
	ldhl	sp,#4
	ld	d,h
	ld	e,l
	ldhl	sp,#9
	ld	a,(de)
	ld	(hl),a
	inc	hl
	inc	de
	ld	a,(de)
	ld	(hl),a
	inc	hl
	inc	de
	ld	a,(de)
	ld	(hl),a
	inc	hl
	inc	de
	ld	a,(de)
	ld	(hl),a
00112$:
;../sincosf.c:85: y=fabsf(x);
	ldhl	sp,#33
	ld	a,(hl)
	inc	hl
	ld	h,(hl)
	ld	l,a
	push	hl
	ldhl	sp,#33
	ld	a,(hl)
	inc	hl
	ld	h,(hl)
	ld	l,a
	push	hl
	call	_fabsf
	lda	sp,4(sp)
	push	hl
	ldhl	sp,#6
	ld	(hl),e
	inc	hl
	ld	(hl),d
	pop	de
	inc	hl
	ld	(hl),e
	inc	hl
	ld	(hl),d
	ldhl	sp,#4
	ld	d,h
	ld	e,l
	ldhl	sp,#25
	ld	a,(de)
	ld	(hl),a
	inc	hl
	inc	de
	ld	a,(de)
	ld	(hl),a
	inc	hl
	inc	de
	ld	a,(de)
	ld	(hl),a
	inc	hl
	inc	de
	ld	a,(de)
	ld	(hl),a
;../sincosf.c:86: r=(int)y;
	ldhl	sp,#27
	ld	a,(hl)
	inc	hl
	ld	h,(hl)
	ld	l,a
	push	hl
	ldhl	sp,#27
	ld	a,(hl)
	inc	hl
	ld	h,(hl)
	ld	l,a
	push	hl
	call	___fs2sint
	lda	sp,4(sp)
	ld	b,d
	ld	c,e
	push	bc
	call	___sint2fs
	lda	sp,2(sp)
	push	hl
	ldhl	sp,#19
	ld	(hl),e
	inc	hl
	ld	(hl),d
	pop	de
	inc	hl
	ld	(hl),e
	inc	hl
	ld	(hl),d
;../sincosf.c:87: g=y-r;
	ldhl	sp,#19
	ld	a,(hl)
	inc	hl
	ld	h,(hl)
	ld	l,a
	push	hl
	ldhl	sp,#19
	ld	a,(hl)
	inc	hl
	ld	h,(hl)
	ld	l,a
	push	hl
	ldhl	sp,#31
	ld	a,(hl)
	inc	hl
	ld	h,(hl)
	ld	l,a
	push	hl
	ldhl	sp,#31
	ld	a,(hl)
	inc	hl
	ld	h,(hl)
	ld	l,a
	push	hl
	call	___fssub
	lda	sp,8(sp)
	push	hl
	ldhl	sp,#15
	ld	(hl),e
	inc	hl
	ld	(hl),d
	pop	de
	inc	hl
	ld	(hl),e
	inc	hl
	ld	(hl),d
;../sincosf.c:88: f=((r-XN*C1)+g)-XN*C2;
	ldhl	sp,#11
	ld	a,(hl)
	inc	hl
	ld	h,(hl)
	ld	l,a
	push	hl
	ldhl	sp,#11
	ld	a,(hl)
	inc	hl
	ld	h,(hl)
	ld	l,a
	push	hl
	ld	hl,#0x4049
	push	hl
	ld	hl,#0x0000
	push	hl
	call	___fsmul
	lda	sp,8(sp)
	push	hl
	ldhl	sp,#6
	ld	(hl),e
	inc	hl
	ld	(hl),d
	pop	de
	inc	hl
	ld	(hl),e
	inc	hl
	ld	(hl),d
	ldhl	sp,#6
	ld	a,(hl)
	inc	hl
	ld	h,(hl)
	ld	l,a
	push	hl
	ldhl	sp,#6
	ld	a,(hl)
	inc	hl
	ld	h,(hl)
	ld	l,a
	push	hl
	ldhl	sp,#23
	ld	a,(hl)
	inc	hl
	ld	h,(hl)
	ld	l,a
	push	hl
	ldhl	sp,#23
	ld	a,(hl)
	inc	hl
	ld	h,(hl)
	ld	l,a
	push	hl
	call	___fssub
	lda	sp,8(sp)
	push	hl
	ldhl	sp,#6
	ld	(hl),e
	inc	hl
	ld	(hl),d
	pop	de
	inc	hl
	ld	(hl),e
	inc	hl
	ld	(hl),d
	ldhl	sp,#15
	ld	a,(hl)
	inc	hl
	ld	h,(hl)
	ld	l,a
	push	hl
	ldhl	sp,#15
	ld	a,(hl)
	inc	hl
	ld	h,(hl)
	ld	l,a
	push	hl
	ldhl	sp,#10
	ld	a,(hl)
	inc	hl
	ld	h,(hl)
	ld	l,a
	push	hl
	ldhl	sp,#10
	ld	a,(hl)
	inc	hl
	ld	h,(hl)
	ld	l,a
	push	hl
	call	___fsadd
	lda	sp,8(sp)
	push	hl
	ldhl	sp,#6
	ld	(hl),e
	inc	hl
	ld	(hl),d
	pop	de
	inc	hl
	ld	(hl),e
	inc	hl
	ld	(hl),d
	ldhl	sp,#11
	ld	a,(hl)
	inc	hl
	ld	h,(hl)
	ld	l,a
	push	hl
	ldhl	sp,#11
	ld	a,(hl)
	inc	hl
	ld	h,(hl)
	ld	l,a
	push	hl
	ld	hl,#0x3A7D
	push	hl
	ld	hl,#0xAA22
	push	hl
	call	___fsmul
	lda	sp,8(sp)
	push	hl
	ldhl	sp,#2
	ld	(hl),e
	inc	hl
	ld	(hl),d
	pop	de
	inc	hl
	ld	(hl),e
	inc	hl
	ld	(hl),d
	ldhl	sp,#2
	ld	a,(hl)
	inc	hl
	ld	h,(hl)
	ld	l,a
	push	hl
	ldhl	sp,#2
	ld	a,(hl)
	inc	hl
	ld	h,(hl)
	ld	l,a
	push	hl
	ldhl	sp,#10
	ld	a,(hl)
	inc	hl
	ld	h,(hl)
	ld	l,a
	push	hl
	ldhl	sp,#10
	ld	a,(hl)
	inc	hl
	ld	h,(hl)
	ld	l,a
	push	hl
	call	___fssub
	lda	sp,8(sp)
	push	hl
	ldhl	sp,#23
	ld	(hl),e
	inc	hl
	ld	(hl),d
	pop	de
	inc	hl
	ld	(hl),e
	inc	hl
	ld	(hl),d
;../sincosf.c:90: g=f*f;
	ldhl	sp,#23
	ld	a,(hl)
	inc	hl
	ld	h,(hl)
	ld	l,a
	push	hl
	ldhl	sp,#23
	ld	a,(hl)
	inc	hl
	ld	h,(hl)
	ld	l,a
	push	hl
	ldhl	sp,#27
	ld	a,(hl)
	inc	hl
	ld	h,(hl)
	ld	l,a
	push	hl
	ldhl	sp,#27
	ld	a,(hl)
	inc	hl
	ld	h,(hl)
	ld	l,a
	push	hl
	call	___fsmul
	lda	sp,8(sp)
	push	hl
	ldhl	sp,#2
	ld	(hl),e
	inc	hl
	ld	(hl),d
	pop	de
	inc	hl
	ld	(hl),e
	inc	hl
	ld	(hl),d
	ldhl	sp,#0
	ld	d,h
	ld	e,l
	ldhl	sp,#13
	ld	a,(de)
	ld	(hl),a
	inc	hl
	inc	de
	ld	a,(de)
	ld	(hl),a
	inc	hl
	inc	de
	ld	a,(de)
	ld	(hl),a
	inc	hl
	inc	de
	ld	a,(de)
	ld	(hl),a
;../sincosf.c:91: if(g>EPS2) //Used to be if(fabsf(f)>EPS)
	ld	hl,#0x337F
	push	hl
	ld	hl,#0xFFF3
	push	hl
	ldhl	sp,#19
	ld	a,(hl)
	inc	hl
	ld	h,(hl)
	ld	l,a
	push	hl
	ldhl	sp,#19
	ld	a,(hl)
	inc	hl
	ld	h,(hl)
	ld	l,a
	push	hl
	call	___fsgt
	lda	sp,8(sp)
	ld	c,e
	xor	a,a
	or	a,c
	jp	Z,00114$
;../sincosf.c:93: r=(((r4*g+r3)*g+r2)*g+r1)*g;
	ldhl	sp,#15
	ld	a,(hl)
	inc	hl
	ld	h,(hl)
	ld	l,a
	push	hl
	ldhl	sp,#15
	ld	a,(hl)
	inc	hl
	ld	h,(hl)
	ld	l,a
	push	hl
	ld	hl,#0x362E
	push	hl
	ld	hl,#0x9C5B
	push	hl
	call	___fsmul
	lda	sp,8(sp)
	push	hl
	ldhl	sp,#2
	ld	(hl),e
	inc	hl
	ld	(hl),d
	pop	de
	inc	hl
	ld	(hl),e
	inc	hl
	ld	(hl),d
	ld	hl,#0xB94F
	push	hl
	ld	hl,#0xB222
	push	hl
	ldhl	sp,#6
	ld	a,(hl)
	inc	hl
	ld	h,(hl)
	ld	l,a
	push	hl
	ldhl	sp,#6
	ld	a,(hl)
	inc	hl
	ld	h,(hl)
	ld	l,a
	push	hl
	call	___fsadd
	lda	sp,8(sp)
	push	hl
	ldhl	sp,#2
	ld	(hl),e
	inc	hl
	ld	(hl),d
	pop	de
	inc	hl
	ld	(hl),e
	inc	hl
	ld	(hl),d
	ldhl	sp,#15
	ld	a,(hl)
	inc	hl
	ld	h,(hl)
	ld	l,a
	push	hl
	ldhl	sp,#15
	ld	a,(hl)
	inc	hl
	ld	h,(hl)
	ld	l,a
	push	hl
	ldhl	sp,#6
	ld	a,(hl)
	inc	hl
	ld	h,(hl)
	ld	l,a
	push	hl
	ldhl	sp,#6
	ld	a,(hl)
	inc	hl
	ld	h,(hl)
	ld	l,a
	push	hl
	call	___fsmul
	lda	sp,8(sp)
	push	hl
	ldhl	sp,#2
	ld	(hl),e
	inc	hl
	ld	(hl),d
	pop	de
	inc	hl
	ld	(hl),e
	inc	hl
	ld	(hl),d
	ld	hl,#0x3C08
	push	hl
	ld	hl,#0x873E
	push	hl
	ldhl	sp,#6
	ld	a,(hl)
	inc	hl
	ld	h,(hl)
	ld	l,a
	push	hl
	ldhl	sp,#6
	ld	a,(hl)
	inc	hl
	ld	h,(hl)
	ld	l,a
	push	hl
	call	___fsadd
	lda	sp,8(sp)
	push	hl
	ldhl	sp,#2
	ld	(hl),e
	inc	hl
	ld	(hl),d
	pop	de
	inc	hl
	ld	(hl),e
	inc	hl
	ld	(hl),d
	ldhl	sp,#15
	ld	a,(hl)
	inc	hl
	ld	h,(hl)
	ld	l,a
	push	hl
	ldhl	sp,#15
	ld	a,(hl)
	inc	hl
	ld	h,(hl)
	ld	l,a
	push	hl
	ldhl	sp,#6
	ld	a,(hl)
	inc	hl
	ld	h,(hl)
	ld	l,a
	push	hl
	ldhl	sp,#6
	ld	a,(hl)
	inc	hl
	ld	h,(hl)
	ld	l,a
	push	hl
	call	___fsmul
	lda	sp,8(sp)
	push	hl
	ldhl	sp,#2
	ld	(hl),e
	inc	hl
	ld	(hl),d
	pop	de
	inc	hl
	ld	(hl),e
	inc	hl
	ld	(hl),d
	ld	hl,#0xBE2A
	push	hl
	ld	hl,#0xAAA4
	push	hl
	ldhl	sp,#6
	ld	a,(hl)
	inc	hl
	ld	h,(hl)
	ld	l,a
	push	hl
	ldhl	sp,#6
	ld	a,(hl)
	inc	hl
	ld	h,(hl)
	ld	l,a
	push	hl
	call	___fsadd
	lda	sp,8(sp)
	push	hl
	ldhl	sp,#2
	ld	(hl),e
	inc	hl
	ld	(hl),d
	pop	de
	inc	hl
	ld	(hl),e
	inc	hl
	ld	(hl),d
	ldhl	sp,#15
	ld	a,(hl)
	inc	hl
	ld	h,(hl)
	ld	l,a
	push	hl
	ldhl	sp,#15
	ld	a,(hl)
	inc	hl
	ld	h,(hl)
	ld	l,a
	push	hl
	ldhl	sp,#6
	ld	a,(hl)
	inc	hl
	ld	h,(hl)
	ld	l,a
	push	hl
	ldhl	sp,#6
	ld	a,(hl)
	inc	hl
	ld	h,(hl)
	ld	l,a
	push	hl
	call	___fsmul
	lda	sp,8(sp)
	push	hl
	ldhl	sp,#2
	ld	(hl),e
	inc	hl
	ld	(hl),d
	pop	de
	inc	hl
	ld	(hl),e
	inc	hl
	ld	(hl),d
	ldhl	sp,#0
	ld	d,h
	ld	e,l
	ldhl	sp,#17
	ld	a,(de)
	ld	(hl),a
	inc	hl
	inc	de
	ld	a,(de)
	ld	(hl),a
	inc	hl
	inc	de
	ld	a,(de)
	ld	(hl),a
	inc	hl
	inc	de
	ld	a,(de)
	ld	(hl),a
;../sincosf.c:94: f+=f*r;
	ldhl	sp,#19
	ld	a,(hl)
	inc	hl
	ld	h,(hl)
	ld	l,a
	push	hl
	ldhl	sp,#19
	ld	a,(hl)
	inc	hl
	ld	h,(hl)
	ld	l,a
	push	hl
	ldhl	sp,#27
	ld	a,(hl)
	inc	hl
	ld	h,(hl)
	ld	l,a
	push	hl
	ldhl	sp,#27
	ld	a,(hl)
	inc	hl
	ld	h,(hl)
	ld	l,a
	push	hl
	call	___fsmul
	lda	sp,8(sp)
	push	hl
	ldhl	sp,#2
	ld	(hl),e
	inc	hl
	ld	(hl),d
	pop	de
	inc	hl
	ld	(hl),e
	inc	hl
	ld	(hl),d
	ldhl	sp,#2
	ld	a,(hl)
	inc	hl
	ld	h,(hl)
	ld	l,a
	push	hl
	ldhl	sp,#2
	ld	a,(hl)
	inc	hl
	ld	h,(hl)
	ld	l,a
	push	hl
	ldhl	sp,#27
	ld	a,(hl)
	inc	hl
	ld	h,(hl)
	ld	l,a
	push	hl
	ldhl	sp,#27
	ld	a,(hl)
	inc	hl
	ld	h,(hl)
	ld	l,a
	push	hl
	call	___fsadd
	lda	sp,8(sp)
	push	hl
	ldhl	sp,#2
	ld	(hl),e
	inc	hl
	ld	(hl),d
	pop	de
	inc	hl
	ld	(hl),e
	inc	hl
	ld	(hl),d
	ldhl	sp,#0
	ld	d,h
	ld	e,l
	ldhl	sp,#21
	ld	a,(de)
	ld	(hl),a
	inc	hl
	inc	de
	ld	a,(de)
	ld	(hl),a
	inc	hl
	inc	de
	ld	a,(de)
	ld	(hl),a
	inc	hl
	inc	de
	ld	a,(de)
	ld	(hl),a
00114$:
;../sincosf.c:96: return (sign?-f:f);
	ldhl	sp,#8
	bit	0,(hl)
	jp	Z,00117$
	ldhl	sp,#24
	ld	a,(hl)
	xor	a,#0x80
	ldhl	sp,#3
	ld	(hl),a
	ldhl	sp,#21
	ld	a,(hl)
	ldhl	sp,#0
	ld	(hl),a
	ldhl	sp,#22
	ld	a,(hl)
	ldhl	sp,#1
	ld	(hl),a
	ldhl	sp,#23
	ld	a,(hl)
	ldhl	sp,#2
	ld	(hl),a
	jr	00118$
00117$:
	ldhl	sp,#21
	ld	d,h
	ld	e,l
	ldhl	sp,#0
	ld	a,(de)
	ld	(hl),a
	inc	hl
	inc	de
	ld	a,(de)
	ld	(hl),a
	inc	hl
	inc	de
	ld	a,(de)
	ld	(hl),a
	inc	hl
	inc	de
	ld	a,(de)
	ld	(hl),a
00118$:
	ldhl	sp,#1
	dec	hl
	ld	e,(hl)
	inc	hl
	ld	d,(hl)
	inc	hl
	ld	a,(hl)
	inc	hl
	ld	h,(hl)
	ld	l,a
00115$:
	lda	sp,29(sp)
	ret
_sincosf_end::
	.area _CODE
	.area _CABS
