                              1 ;--------------------------------------------------------
                              2 ; File Created by SDCC : free open source ANSI-C Compiler
                              3 ; Version 3.0.1 #6227 (Oct  2 2015) (Linux)
                              4 ; This file was generated Fri Oct  2 17:15:19 2015
                              5 ;--------------------------------------------------------
                              6 	.module _modulong
                              7 	.optsdcc -mds400 --model-flat24
                              8 	
                              9 ;--------------------------------------------------------
                             10 ; CPU specific extensions
                             11 ;--------------------------------------------------------
                             12 .flat24 on		; 24 bit flat addressing
                    0084     13 dpl1	=	0x84
                    0085     14 dph1	=	0x85
                    0086     15 dps	=	0x86
                    0093     16 dpx	=	0x93
                    0095     17 dpx1	=	0x95
                    009B     18 esp	=	0x9B
                    009C     19 ap	=	0x9C
                    009C     20 _ap	=	0x9C
                    00D1     21 mcnt0	=	0xD1
                    00D2     22 mcnt1	=	0xD2
                    00D3     23 ma	=	0xD3
                    00D4     24 mb	=	0xD4
                    00D5     25 mc	=	0xD5
                    00D1     26 F1	=	0xD1	; user flag
                             27 ;--------------------------------------------------------
                             28 ; Public variables in this module
                             29 ;--------------------------------------------------------
                             30 	.globl __modulong_PARM_2
                             31 	.globl __modulong
                             32 ;--------------------------------------------------------
                             33 ; special function registers
                             34 ;--------------------------------------------------------
                             35 ;--------------------------------------------------------
                             36 ; special function bits
                             37 ;--------------------------------------------------------
                             38 ;--------------------------------------------------------
                             39 ; overlayable register banks
                             40 ;--------------------------------------------------------
                             41 	.area REG_BANK_0	(REL,OVR,DATA)
   0000                      42 	.ds 8
                             43 	.area REG_BANK_3	(REL,OVR,DATA)
   0000                      44 	.ds 8
                             45 ;--------------------------------------------------------
                             46 ; internal ram data
                             47 ;--------------------------------------------------------
                             48 	.area DSEG    (DATA)
                             49 ;--------------------------------------------------------
                             50 ; overlayable items in internal ram 
                             51 ;--------------------------------------------------------
                             52 	.area OSEG    (OVR,DATA)
                             53 ;--------------------------------------------------------
                             54 ; indirectly addressable internal ram data
                             55 ;--------------------------------------------------------
                             56 	.area ISEG    (DATA)
                             57 ;--------------------------------------------------------
                             58 ; absolute internal ram data
                             59 ;--------------------------------------------------------
                             60 	.area IABS    (ABS,DATA)
                             61 	.area IABS    (ABS,DATA)
                             62 ;--------------------------------------------------------
                             63 ; bit data
                             64 ;--------------------------------------------------------
                             65 	.area BSEG    (BIT)
                             66 ;--------------------------------------------------------
                             67 ; paged external ram data
                             68 ;--------------------------------------------------------
                             69 	.area PSEG    (PAG,XDATA)
                             70 ;--------------------------------------------------------
                             71 ; external ram data
                             72 ;--------------------------------------------------------
                             73 	.area XSEG    (XDATA)
   0000                      74 __modulong_PARM_2:
   0000                      75 	.ds 4
   0004                      76 __modulong_a_1_1:
   0004                      77 	.ds 4
                             78 ;--------------------------------------------------------
                             79 ; absolute external ram data
                             80 ;--------------------------------------------------------
                             81 	.area XABS    (ABS,XDATA)
                             82 ;--------------------------------------------------------
                             83 ; external initialized ram data
                             84 ;--------------------------------------------------------
                             85 	.area XISEG   (XDATA)
                             86 ;--------------------------------------------------------
                             87 ; global & static initialisations
                             88 ;--------------------------------------------------------
                             89 	.area HOME    (CODE)
                             90 	.area GSINIT  (CODE)
                             91 	.area GSFINAL (CODE)
                             92 	.area GSINIT  (CODE)
                             93 ;--------------------------------------------------------
                             94 ; Home
                             95 ;--------------------------------------------------------
                             96 	.area HOME    (CODE)
                             97 	.area HOME    (CODE)
                             98 ;--------------------------------------------------------
                             99 ; code
                            100 ;--------------------------------------------------------
                            101 	.area CSEG    (CODE)
                            102 ;------------------------------------------------------------
                            103 ;Allocation info for local variables in function '_modulong'
                            104 ;------------------------------------------------------------
                            105 ;b                         Allocated with name '__modulong_PARM_2'
                            106 ;a                         Allocated with name '__modulong_a_1_1'
                            107 ;count                     Allocated to registers r6 
                            108 ;------------------------------------------------------------
                            109 ;	_modulong.c:340: _modulong (unsigned long a, unsigned long b)
                            110 ;	-----------------------------------------
                            111 ;	 function _modulong
                            112 ;	-----------------------------------------
   0000                     113 __modulong:
                    0002    114 	ar2 = 0x02
                    0003    115 	ar3 = 0x03
                    0004    116 	ar4 = 0x04
                    0005    117 	ar5 = 0x05
                    0006    118 	ar6 = 0x06
                    0007    119 	ar7 = 0x07
                    0000    120 	ar0 = 0x00
                    0001    121 	ar1 = 0x01
   0000 75 86 01            122 	mov     dps, #1
   0003 90s00r00r04         123 	mov     dptr, #__modulong_a_1_1
   0007 E5 82               124 	mov	a,dpl
   0009 F0                  125 	movx	@dptr,a
   000A A3                  126 	inc	dptr
   000B E5 83               127 	mov	a,dph
   000D F0                  128 	movx	@dptr,a
   000E A3                  129 	inc	dptr
   000F E5 93               130 	mov	a,dpx
   0011 F0                  131 	movx	@dptr,a
   0012 A3                  132 	inc	dptr
   0013 E5 F0               133 	mov	a,b
   0015 F0                  134 	movx	@dptr,a
   0016 75 86 00            135 	mov	dps,#0
                            136 ;	_modulong.c:342: unsigned char count = 0;
                            137 ;	genAssign: resultIsFar = TRUE
   0019 7E 00               138 	mov	r6,#0x00
                            139 ;	_modulong.c:344: while (!MSB_SET(b))
                            140 ;	genAssign: resultIsFar = FALSE
   001B 7F 00               141 	mov	r7,#0x00
   001D                     142 00103$:
   001D 90s00r00r00         143 	mov	dptr,#__modulong_PARM_2
   0021 A3                  144 	inc	dptr
   0022 A3                  145 	inc	dptr
   0023 A3                  146 	inc	dptr
   0024 E0                  147 	movx	a,@dptr
   0025 23                  148 	rl	a
   0026 54 01               149 	anl	a,#0x01
   0028 F8                  150 	mov  r0,a
   0029 60 04               151 	jz	00120$
   002B 02s00r00rEB         152 	ljmp	00117$
   002F                     153 00120$:
                            154 ;	_modulong.c:346: b <<= 1;
   002F C0 06               155 	push	ar6
   0031 75 F0 02            156 	mov	b,#0x02
   0034 90s00r00r00         157 	mov	dptr,#__modulong_PARM_2
   0038 E0                  158 	movx	a,@dptr
   0039 F8                  159 	mov     r0,a
   003A A3                  160 	inc	dptr
   003B E0                  161 	movx	a,@dptr
   003C F9                  162 	mov     r1,a
   003D A3                  163 	inc	dptr
   003E E0                  164 	movx	a,@dptr
   003F FE                  165 	mov     r6,a
   0040 A3                  166 	inc	dptr
   0041 E0                  167 	movx	a,@dptr
   0042 FA                  168 	mov     r2,a
   0043 80 0D               169 	sjmp	00122$
   0045                     170 00121$:
   0045 E8                  171 	mov	a,r0
   0046 25 E0               172 	add	a,acc
   0048 F8                  173 	mov	r0,a
   0049 E9                  174 	mov	a,r1
   004A 33                  175 	rlc	a
   004B F9                  176 	mov	r1,a
   004C EE                  177 	mov	a,r6
   004D 33                  178 	rlc	a
   004E FE                  179 	mov	r6,a
   004F EA                  180 	mov	a,r2
   0050 33                  181 	rlc	a
   0051 FA                  182 	mov	r2,a
   0052                     183 00122$:
   0052 D5 F0 F0            184 	djnz	b,00121$
                            185 ;	genAssign: resultIsFar = TRUE
   0055 90s00r00r00         186 	mov	dptr,#__modulong_PARM_2
   0059 E8                  187 	mov	a,r0
   005A F0                  188 	movx	@dptr,a
   005B A3                  189 	inc	dptr
   005C E9                  190 	mov	a,r1
   005D F0                  191 	movx	@dptr,a
   005E A3                  192 	inc	dptr
   005F EE                  193 	mov	a,r6
   0060 F0                  194 	movx	@dptr,a
   0061 A3                  195 	inc	dptr
   0062 EA                  196 	mov	a,r2
   0063 F0                  197 	movx	@dptr,a
                            198 ;	_modulong.c:347: if (b > a)
   0064 90s00r00r04         199 	mov	dptr,#__modulong_a_1_1
   0068 75 86 01            200 	mov	dps, #1
   006B 90s00r00r00         201 	mov	dptr, #__modulong_PARM_2
   006F 15 86               202 	dec	dps
   0071 C3                  203 	clr	c
   0072 E0                  204 	movx	a,@dptr
   0073 75 86 01            205 	mov	dps,#1
   0076 C5 F0               206 	xch	a, b
   0078 E0                  207 	movx	a,@dptr
   0079 75 86 00            208 	mov	dps,#0
   007C C5 F0               209 	xch	a, b
   007E 95 F0               210 	subb	a,b
   0080 A3                  211 	inc	dptr
   0081 E0                  212 	movx	a,@dptr
   0082 75 86 01            213 	mov	dps,#1
   0085 C5 F0               214 	xch	a, b
   0087 A3                  215 	inc	dptr
   0088 E0                  216 	movx	a,@dptr
   0089 75 86 00            217 	mov	dps,#0
   008C C5 F0               218 	xch	a, b
   008E 95 F0               219 	subb	a,b
   0090 A3                  220 	inc	dptr
   0091 E0                  221 	movx	a,@dptr
   0092 75 86 01            222 	mov	dps,#1
   0095 C5 F0               223 	xch	a, b
   0097 A3                  224 	inc	dptr
   0098 E0                  225 	movx	a,@dptr
   0099 75 86 00            226 	mov	dps,#0
   009C C5 F0               227 	xch	a, b
   009E 95 F0               228 	subb	a,b
   00A0 A3                  229 	inc	dptr
   00A1 E0                  230 	movx	a,@dptr
   00A2 75 86 01            231 	mov	dps,#1
   00A5 C5 F0               232 	xch	a, b
   00A7 A3                  233 	inc	dptr
   00A8 E0                  234 	movx	a,@dptr
   00A9 75 86 00            235 	mov	dps,#0
   00AC C5 F0               236 	xch	a, b
   00AE 95 F0               237 	subb	a,b
   00B0 D0 06               238 	pop	ar6
   00B2 50 30               239 	jnc  00102$
   00B4                     240 00123$:
                            241 ;	_modulong.c:349: b >>=1;
   00B4 90s00r00r00         242 	mov	dptr,#__modulong_PARM_2
   00B8 A3                  243 	inc	dptr
   00B9 A3                  244 	inc	dptr
   00BA A3                  245 	inc	dptr
   00BB E0                  246 	movx	a,@dptr
   00BC C3                  247 	clr	c
   00BD 13                  248 	rrc	a
   00BE FD                  249 	mov	r5,a
   00BF 12s00r00r00         250 	lcall	__decdptr
   00C3 E0                  251 	movx	a,@dptr
   00C4 13                  252 	rrc	a
   00C5 FC                  253 	mov	r4,a
   00C6 12s00r00r00         254 	lcall	__decdptr
   00CA E0                  255 	movx	a,@dptr
   00CB 13                  256 	rrc	a
   00CC FB                  257 	mov	r3,a
   00CD 12s00r00r00         258 	lcall	__decdptr
   00D1 E0                  259 	movx	a,@dptr
   00D2 13                  260 	rrc	a
                            261 ;	genAssign: resultIsFar = TRUE
   00D3 FA                  262 	mov  r2,a
   00D4 90s00r00r00         263 	mov  dptr,#__modulong_PARM_2
   00D8 F0                  264 	movx @dptr,a
   00D9 A3                  265 	inc	dptr
   00DA EB                  266 	mov	a,r3
   00DB F0                  267 	movx	@dptr,a
   00DC A3                  268 	inc	dptr
   00DD EC                  269 	mov	a,r4
   00DE F0                  270 	movx	@dptr,a
   00DF A3                  271 	inc	dptr
   00E0 ED                  272 	mov	a,r5
   00E1 F0                  273 	movx	@dptr,a
                            274 ;	_modulong.c:350: break;
   00E2 80 07               275 	sjmp 00117$
   00E4                     276 00102$:
                            277 ;	_modulong.c:352: count++;
   00E4 0F                  278 	inc	r7
                            279 ;	genAssign: resultIsFar = TRUE
   00E5 8F 06               280 	mov	ar6,r7
   00E7 02s00r00r1D         281 	ljmp	00103$
                            282 ;	_modulong.c:354: do
   00EB                     283 00117$:
                            284 ;	genAssign: resultIsFar = FALSE
   00EB 8E 02               285 	mov	ar2,r6
   00ED                     286 00108$:
                            287 ;	_modulong.c:356: if (a >= b)
   00ED 90s00r00r00         288 	mov	dptr,#__modulong_PARM_2
   00F1 75 86 01            289 	mov	dps, #1
   00F4 90s00r00r04         290 	mov	dptr, #__modulong_a_1_1
   00F8 15 86               291 	dec	dps
   00FA C3                  292 	clr	c
   00FB 75 86 01            293 	mov	dps,#1
   00FE E0                  294 	movx	a,@dptr
   00FF 75 86 00            295 	mov	dps,#0
   0102 C5 F0               296 	xch	a, b
   0104 E0                  297 	movx	a,@dptr
   0105 C5 F0               298 	xch	a, b
   0107 95 F0               299 	subb	a,b
   0109 75 86 01            300 	mov	dps,#1
   010C A3                  301 	inc	dptr
   010D E0                  302 	movx	a,@dptr
   010E 75 86 00            303 	mov	dps,#0
   0111 C5 F0               304 	xch	a, b
   0113 A3                  305 	inc	dptr
   0114 E0                  306 	movx	a,@dptr
   0115 C5 F0               307 	xch	a, b
   0117 95 F0               308 	subb	a,b
   0119 75 86 01            309 	mov	dps,#1
   011C A3                  310 	inc	dptr
   011D E0                  311 	movx	a,@dptr
   011E 75 86 00            312 	mov	dps,#0
   0121 C5 F0               313 	xch	a, b
   0123 A3                  314 	inc	dptr
   0124 E0                  315 	movx	a,@dptr
   0125 C5 F0               316 	xch	a, b
   0127 95 F0               317 	subb	a,b
   0129 75 86 01            318 	mov	dps,#1
   012C A3                  319 	inc	dptr
   012D E0                  320 	movx	a,@dptr
   012E 75 86 00            321 	mov	dps,#0
   0131 C5 F0               322 	xch	a, b
   0133 A3                  323 	inc	dptr
   0134 E0                  324 	movx	a,@dptr
   0135 C5 F0               325 	xch	a, b
   0137 95 F0               326 	subb	a,b
   0139 40 50               327 	jc   00107$
   013B                     328 00124$:
                            329 ;	_modulong.c:357: a -= b;
   013B 90s00r00r00         330 	mov	dptr,#__modulong_PARM_2
   013F 75 86 01            331 	mov	dps, #1
   0142 90s00r00r04         332 	mov	dptr, #__modulong_a_1_1
   0146 15 86               333 	dec	dps
   0148 C3                  334 	clr	c
   0149 E0                  335 	movx	a,@dptr
   014A F5 F0               336 	mov	b,a
   014C 05 86               337 	inc	dps
   014E E0                  338 	movx	a,@dptr
   014F 95 F0               339 	subb	a,b
   0151 FB                  340 	mov	r3,a
   0152 15 86               341 	dec	dps
   0154 A3                  342 	inc	dptr
   0155 E0                  343 	movx	a,@dptr
   0156 F5 F0               344 	mov	b,a
   0158 05 86               345 	inc	dps
   015A A3                  346 	inc	dptr
   015B E0                  347 	movx	a,@dptr
   015C 95 F0               348 	subb	a,b
   015E FC                  349 	mov	r4,a
   015F 15 86               350 	dec	dps
   0161 A3                  351 	inc	dptr
   0162 E0                  352 	movx	a,@dptr
   0163 F5 F0               353 	mov	b,a
   0165 05 86               354 	inc	dps
   0167 A3                  355 	inc	dptr
   0168 E0                  356 	movx	a,@dptr
   0169 95 F0               357 	subb	a,b
   016B FD                  358 	mov	r5,a
   016C 15 86               359 	dec	dps
   016E A3                  360 	inc	dptr
   016F E0                  361 	movx	a,@dptr
   0170 F5 F0               362 	mov	b,a
   0172 05 86               363 	inc	dps
   0174 A3                  364 	inc	dptr
   0175 E0                  365 	movx	a,@dptr
   0176 95 F0               366 	subb	a,b
   0178 FE                  367 	mov	r6,a
   0179 75 86 00            368 	mov	dps,#0
                            369 ;	genAssign: resultIsFar = TRUE
   017C 90s00r00r04         370 	mov	dptr,#__modulong_a_1_1
   0180 EB                  371 	mov	a,r3
   0181 F0                  372 	movx	@dptr,a
   0182 A3                  373 	inc	dptr
   0183 EC                  374 	mov	a,r4
   0184 F0                  375 	movx	@dptr,a
   0185 A3                  376 	inc	dptr
   0186 ED                  377 	mov	a,r5
   0187 F0                  378 	movx	@dptr,a
   0188 A3                  379 	inc	dptr
   0189 EE                  380 	mov	a,r6
   018A F0                  381 	movx	@dptr,a
   018B                     382 00107$:
                            383 ;	_modulong.c:358: b >>= 1;
   018B 90s00r00r00         384 	mov	dptr,#__modulong_PARM_2
   018F A3                  385 	inc	dptr
   0190 A3                  386 	inc	dptr
   0191 A3                  387 	inc	dptr
   0192 E0                  388 	movx	a,@dptr
   0193 C3                  389 	clr	c
   0194 13                  390 	rrc	a
   0195 FE                  391 	mov	r6,a
   0196 12s00r00r00         392 	lcall	__decdptr
   019A E0                  393 	movx	a,@dptr
   019B 13                  394 	rrc	a
   019C FD                  395 	mov	r5,a
   019D 12s00r00r00         396 	lcall	__decdptr
   01A1 E0                  397 	movx	a,@dptr
   01A2 13                  398 	rrc	a
   01A3 FC                  399 	mov	r4,a
   01A4 12s00r00r00         400 	lcall	__decdptr
   01A8 E0                  401 	movx	a,@dptr
   01A9 13                  402 	rrc	a
                            403 ;	genAssign: resultIsFar = TRUE
   01AA FB                  404 	mov  r3,a
   01AB 90s00r00r00         405 	mov  dptr,#__modulong_PARM_2
   01AF F0                  406 	movx @dptr,a
   01B0 A3                  407 	inc	dptr
   01B1 EC                  408 	mov	a,r4
   01B2 F0                  409 	movx	@dptr,a
   01B3 A3                  410 	inc	dptr
   01B4 ED                  411 	mov	a,r5
   01B5 F0                  412 	movx	@dptr,a
   01B6 A3                  413 	inc	dptr
   01B7 EE                  414 	mov	a,r6
   01B8 F0                  415 	movx	@dptr,a
                            416 ;	_modulong.c:360: while (count--);
                            417 ;	genAssign: resultIsFar = FALSE
   01B9 8A 03               418 	mov	ar3,r2
   01BB 1A                  419 	dec	r2
   01BC EB                  420 	mov	a,r3
   01BD 60 04               421 	jz	00125$
   01BF 02s00r00rED         422 	ljmp	00108$
   01C3                     423 00125$:
                            424 ;	_modulong.c:362: return a;
   01C3 75 86 01            425 	mov     dps, #1
   01C6 90s00r00r04         426 	mov     dptr, #__modulong_a_1_1
   01CA E0                  427 	movx	a,@dptr
   01CB F5 82               428 	mov	dpl,a
   01CD A3                  429 	inc	dptr
   01CE E0                  430 	movx	a,@dptr
   01CF F5 83               431 	mov	dph,a
   01D1 A3                  432 	inc	dptr
   01D2 E0                  433 	movx	a,@dptr
   01D3 F5 93               434 	mov	dpx,a
   01D5 A3                  435 	inc	dptr
   01D6 E0                  436 	movx	a,@dptr
   01D7 F5 F0               437 	mov	b,a
   01D9 75 86 00            438 	mov	dps,#0
   01DC                     439 00111$:
   01DC 22                  440 	ret
                            441 	.area CSEG    (CODE)
                            442 	.area CONST   (CODE)
                            443 	.area XINIT   (CODE)
                            444 	.area CABS    (ABS,CODE)
