                              1 ;--------------------------------------------------------
                              2 ; File Created by SDCC : free open source ANSI-C Compiler
                              3 ; Version 3.0.1 #6227 (Oct  2 2015) (Linux)
                              4 ; This file was generated Fri Oct  2 17:15:18 2015
                              5 ;--------------------------------------------------------
                              6 	.module sincosf
                              7 	.optsdcc -mds400 --model-flat24
                              8 	
                              9 ;--------------------------------------------------------
                             10 ; CPU specific extensions
                             11 ;--------------------------------------------------------
                             12 .flat24 on		; 24 bit flat addressing
                    0084     13 dpl1	=	0x84
                    0085     14 dph1	=	0x85
                    0086     15 dps	=	0x86
                    0093     16 dpx	=	0x93
                    0095     17 dpx1	=	0x95
                    009B     18 esp	=	0x9B
                    009C     19 ap	=	0x9C
                    009C     20 _ap	=	0x9C
                    00D1     21 mcnt0	=	0xD1
                    00D2     22 mcnt1	=	0xD2
                    00D3     23 ma	=	0xD3
                    00D4     24 mb	=	0xD4
                    00D5     25 mc	=	0xD5
                    00D1     26 F1	=	0xD1	; user flag
                             27 ;--------------------------------------------------------
                             28 ; Public variables in this module
                             29 ;--------------------------------------------------------
                             30 	.globl _sincosf
                             31 	.globl _sincosf_PARM_2
                             32 ;--------------------------------------------------------
                             33 ; special function registers
                             34 ;--------------------------------------------------------
                             35 ;--------------------------------------------------------
                             36 ; special function bits
                             37 ;--------------------------------------------------------
                             38 ;--------------------------------------------------------
                             39 ; overlayable register banks
                             40 ;--------------------------------------------------------
                             41 	.area REG_BANK_0	(REL,OVR,DATA)
   0000                      42 	.ds 8
                             43 	.area REG_BANK_3	(REL,OVR,DATA)
   0000                      44 	.ds 8
                             45 ;--------------------------------------------------------
                             46 ; internal ram data
                             47 ;--------------------------------------------------------
                             48 	.area DSEG    (DATA)
                             49 ;--------------------------------------------------------
                             50 ; overlayable items in internal ram 
                             51 ;--------------------------------------------------------
                             52 	.area OSEG    (OVR,DATA)
                             53 ;--------------------------------------------------------
                             54 ; indirectly addressable internal ram data
                             55 ;--------------------------------------------------------
                             56 	.area ISEG    (DATA)
                             57 ;--------------------------------------------------------
                             58 ; absolute internal ram data
                             59 ;--------------------------------------------------------
                             60 	.area IABS    (ABS,DATA)
                             61 	.area IABS    (ABS,DATA)
                             62 ;--------------------------------------------------------
                             63 ; bit data
                             64 ;--------------------------------------------------------
                             65 	.area BSEG    (BIT)
   0000                      66 _sincosf_PARM_2:
   0000                      67 	.ds 1
   0001                      68 _sincosf_sign_1_1:
   0001                      69 	.ds 1
                             70 ;--------------------------------------------------------
                             71 ; paged external ram data
                             72 ;--------------------------------------------------------
                             73 	.area PSEG    (PAG,XDATA)
                             74 ;--------------------------------------------------------
                             75 ; external ram data
                             76 ;--------------------------------------------------------
                             77 	.area XSEG    (XDATA)
   0000                      78 _sincosf_x_1_1:
   0000                      79 	.ds 4
   0004                      80 _sincosf_f_1_1:
   0004                      81 	.ds 4
   0008                      82 _sincosf_r_1_1:
   0008                      83 	.ds 4
   000C                      84 _sincosf_XN_1_1:
   000C                      85 	.ds 4
                             86 ;--------------------------------------------------------
                             87 ; absolute external ram data
                             88 ;--------------------------------------------------------
                             89 	.area XABS    (ABS,XDATA)
                             90 ;--------------------------------------------------------
                             91 ; external initialized ram data
                             92 ;--------------------------------------------------------
                             93 	.area XISEG   (XDATA)
                             94 ;--------------------------------------------------------
                             95 ; global & static initialisations
                             96 ;--------------------------------------------------------
                             97 	.area HOME    (CODE)
                             98 	.area GSINIT  (CODE)
                             99 	.area GSFINAL (CODE)
                            100 	.area GSINIT  (CODE)
                            101 ;--------------------------------------------------------
                            102 ; Home
                            103 ;--------------------------------------------------------
                            104 	.area HOME    (CODE)
                            105 	.area HOME    (CODE)
                            106 ;--------------------------------------------------------
                            107 ; code
                            108 ;--------------------------------------------------------
                            109 	.area CSEG    (CODE)
                            110 ;------------------------------------------------------------
                            111 ;Allocation info for local variables in function 'sincosf'
                            112 ;------------------------------------------------------------
                            113 ;x                         Allocated with name '_sincosf_x_1_1'
                            114 ;y                         Allocated to registers r6 r7 r0 r1 
                            115 ;f                         Allocated with name '_sincosf_f_1_1'
                            116 ;r                         Allocated with name '_sincosf_r_1_1'
                            117 ;g                         Allocated to registers r6 r7 r0 r1 
                            118 ;XN                        Allocated with name '_sincosf_XN_1_1'
                            119 ;N                         Allocated to registers 
                            120 ;sloc0                     Allocated with name '_sincosf_sloc0_1_0'
                            121 ;------------------------------------------------------------
                            122 ;	sincosf.c:50: float sincosf(const float x, const BOOL iscos)
                            123 ;	-----------------------------------------
                            124 ;	 function sincosf
                            125 ;	-----------------------------------------
   0000                     126 _sincosf:
                    0002    127 	ar2 = 0x02
                    0003    128 	ar3 = 0x03
                    0004    129 	ar4 = 0x04
                    0005    130 	ar5 = 0x05
                    0006    131 	ar6 = 0x06
                    0007    132 	ar7 = 0x07
                    0000    133 	ar0 = 0x00
                    0001    134 	ar1 = 0x01
   0000 75 86 01            135 	mov     dps, #1
   0003 90s00r00r00         136 	mov     dptr, #_sincosf_x_1_1
   0007 E5 82               137 	mov	a,dpl
   0009 F0                  138 	movx	@dptr,a
   000A A3                  139 	inc	dptr
   000B E5 83               140 	mov	a,dph
   000D F0                  141 	movx	@dptr,a
   000E A3                  142 	inc	dptr
   000F E5 93               143 	mov	a,dpx
   0011 F0                  144 	movx	@dptr,a
   0012 A3                  145 	inc	dptr
   0013 E5 F0               146 	mov	a,b
   0015 F0                  147 	movx	@dptr,a
   0016 75 86 00            148 	mov	dps,#0
                            149 ;	sincosf.c:56: if(iscos)
   0019 30*00 4F            150 	jnb  _sincosf_PARM_2,00105$
   001C                     151 00126$:
                            152 ;	sincosf.c:58: y=fabsf(x)+HALF_PI;
   001C 05 86               153 	inc	dps
   001E 90s00r00r00         154 	mov	dptr,#_sincosf_x_1_1
   0022 E0                  155 	movx	a,@dptr
   0023 F5 82               156 	mov	dpl,a
   0025 A3                  157 	inc	dptr
   0026 E0                  158 	movx	a,@dptr
   0027 F5 83               159 	mov	dph,a
   0029 A3                  160 	inc	dptr
   002A E0                  161 	movx	a,@dptr
   002B F5 93               162 	mov	dpx,a
   002D A3                  163 	inc	dptr
   002E E0                  164 	movx	a,@dptr
   002F F5 F0               165 	mov	b,a
   0031 75 86 00            166 	mov	dps,#0
   0034 12s00r00r00         167 	lcall	_fabsf
   0038 AE 82               168 	mov	r6,dpl
   003A AF 83               169 	mov	r7,dph
   003C A8 93               170 	mov	r0,dpx
   003E A9 F0               171 	mov	r1,b
                            172 ;	genAssign: resultIsFar = TRUE
   0040 90s00r00r00         173 	mov	dptr,#___fsadd_PARM_2
   0044 74 DB               174 	mov	a,#0xDB
   0046 F0                  175 	movx	@dptr,a
   0047 A3                  176 	inc	dptr
   0048 74 0F               177 	mov	a,#0x0F
   004A F0                  178 	movx	@dptr,a
   004B A3                  179 	inc	dptr
   004C 74 C9               180 	mov	a,#0xC9
   004E F0                  181 	movx	@dptr,a
   004F A3                  182 	inc	dptr
   0050 74 3F               183 	mov	a,#0x3F
   0052 F0                  184 	movx	@dptr,a
   0053 8E 82               185 	mov	dpl,r6
   0055 8F 83               186 	mov	dph,r7
   0057 88 93               187 	mov	dpx,r0
   0059 89 F0               188 	mov	b,r1
   005B 12s00r00r00         189 	lcall	___fsadd
   005F AE 82               190 	mov	r6,dpl
   0061 AF 83               191 	mov	r7,dph
   0063 A8 93               192 	mov	r0,dpx
   0065 A9 F0               193 	mov	r1,b
                            194 ;	genAssign: resultIsFar = TRUE
                            195 ;	sincosf.c:59: sign=0;
                            196 ;	genAssign: resultIsFar = FALSE
   0067 C2*01               197 	clr	_sincosf_sign_1_1
   0069 80 52               198 	sjmp 00106$
   006B                     199 00105$:
                            200 ;	sincosf.c:63: if(x<0.0)
                            201 ;	genAssign: resultIsFar = TRUE
   006B 90s00r00r00         202 	mov	dptr,#___fslt_PARM_2
   006F E4                  203 	clr	a
   0070 F0                  204 	movx	@dptr,a
   0071 A3                  205 	inc	dptr
   0072 F0                  206 	movx	@dptr,a
   0073 A3                  207 	inc	dptr
   0074 F0                  208 	movx	@dptr,a
   0075 A3                  209 	inc	dptr
   0076 F0                  210 	movx	@dptr,a
   0077 05 86               211 	inc	dps
   0079 90s00r00r00         212 	mov	dptr,#_sincosf_x_1_1
   007D E0                  213 	movx	a,@dptr
   007E F5 82               214 	mov	dpl,a
   0080 A3                  215 	inc	dptr
   0081 E0                  216 	movx	a,@dptr
   0082 F5 83               217 	mov	dph,a
   0084 A3                  218 	inc	dptr
   0085 E0                  219 	movx	a,@dptr
   0086 F5 93               220 	mov	dpx,a
   0088 A3                  221 	inc	dptr
   0089 E0                  222 	movx	a,@dptr
   008A F5 F0               223 	mov	b,a
   008C 75 86 00            224 	mov	dps,#0
   008F 12s00r00r00         225 	lcall	___fslt
   0093 E5 82               226 	mov	a,dpl
   0095 60 15               227 	jz  00102$
   0097                     228 00127$:
                            229 ;	sincosf.c:64: { y=-x; sign=1; }
   0097 90s00r00r00         230 	mov	dptr,#_sincosf_x_1_1
   009B E0                  231 	movx	a,@dptr
   009C FE                  232 	mov	r6,a
   009D A3                  233 	inc	dptr
   009E E0                  234 	movx	a,@dptr
   009F FF                  235 	mov	r7,a
   00A0 A3                  236 	inc	dptr
   00A1 E0                  237 	movx	a,@dptr
   00A2 F8                  238 	mov	r0,a
   00A3 A3                  239 	inc	dptr
   00A4 E0                  240 	movx	a,@dptr
   00A5 B2 E7               241 	cpl	acc.7
   00A7 F9                  242 	mov	r1,a
                            243 ;	genAssign: resultIsFar = FALSE
   00A8 D2*01               244 	setb	_sincosf_sign_1_1
   00AA 80 11               245 	sjmp 00106$
   00AC                     246 00102$:
                            247 ;	sincosf.c:66: { y=x; sign=0; }
   00AC 90s00r00r00         248 	mov	dptr,#_sincosf_x_1_1
                            249 ;	genAssign: resultIsFar = TRUE
   00B0 E0                  250 	movx	a,@dptr
   00B1 FE                  251 	mov	r6,a
   00B2 A3                  252 	inc	dptr
   00B3 E0                  253 	movx	a,@dptr
   00B4 FF                  254 	mov	r7,a
   00B5 A3                  255 	inc	dptr
   00B6 E0                  256 	movx	a,@dptr
   00B7 F8                  257 	mov	r0,a
   00B8 A3                  258 	inc	dptr
   00B9 E0                  259 	movx	a,@dptr
   00BA F9                  260 	mov	r1,a
                            261 ;	genAssign: resultIsFar = FALSE
   00BB C2*01               262 	clr	_sincosf_sign_1_1
   00BD                     263 00106$:
                            264 ;	sincosf.c:69: if(y>YMAX)
                            265 ;	genAssign: resultIsFar = TRUE
   00BD 90s00r00r00         266 	mov	dptr,#___fsgt_PARM_2
   00C1 E4                  267 	clr  a
   00C2 F0                  268 	movx	@dptr,a
   00C3 A3                  269 	inc	dptr
   00C4 74 0C               270 	mov	a,#0x0C
   00C6 F0                  271 	movx	@dptr,a
   00C7 A3                  272 	inc	dptr
   00C8 74 49               273 	mov	a,#0x49
   00CA F0                  274 	movx	@dptr,a
   00CB A3                  275 	inc	dptr
   00CC 74 46               276 	mov	a,#0x46
   00CE F0                  277 	movx	@dptr,a
   00CF C0 06               278 	push	ar6
   00D1 C0 07               279 	push	ar7
   00D3 C0 00               280 	push	ar0
   00D5 C0 01               281 	push	ar1
   00D7 8E 82               282 	mov	dpl,r6
   00D9 8F 83               283 	mov	dph,r7
   00DB 88 93               284 	mov	dpx,r0
   00DD 89 F0               285 	mov	b,r1
   00DF 12s00r00r00         286 	lcall	___fsgt
   00E3 D0 01               287 	pop	ar1
   00E5 D0 00               288 	pop	ar0
   00E7 D0 07               289 	pop	ar7
   00E9 D0 06               290 	pop	ar6
   00EB E5 82               291 	mov	a,dpl
   00ED 60 15               292 	jz  00108$
   00EF                     293 00128$:
                            294 ;	sincosf.c:71: errno=ERANGE;
                            295 ;	genAssign: resultIsFar = TRUE
   00EF 90s00r00r00         296 	mov	dptr,#_errno
   00F3 74 22               297 	mov	a,#0x22
   00F5 F0                  298 	movx	@dptr,a
   00F6 E4                  299 	clr	a
   00F7 A3                  300 	inc	dptr
   00F8 F0                  301 	movx	@dptr,a
                            302 ;	sincosf.c:72: return 0.0;
   00F9 90 00 00 00         303 	mov  dptr,#0x0000
   00FD 75 F0 00            304 	mov	b,#0x00
   0100 02s00r05rEF         305 	ljmp	00115$
   0104                     306 00108$:
                            307 ;	sincosf.c:76: N=((y*iPI)+0.5); /*y is positive*/
                            308 ;	genAssign: resultIsFar = TRUE
   0104 90s00r00r00         309 	mov	dptr,#___fsmul_PARM_2
   0108 EE                  310 	mov	a,r6
   0109 F0                  311 	movx	@dptr,a
   010A A3                  312 	inc	dptr
   010B EF                  313 	mov	a,r7
   010C F0                  314 	movx	@dptr,a
   010D A3                  315 	inc	dptr
   010E E8                  316 	mov	a,r0
   010F F0                  317 	movx	@dptr,a
   0110 A3                  318 	inc	dptr
   0111 E9                  319 	mov	a,r1
   0112 F0                  320 	movx	@dptr,a
   0113 90 A2 F9 83         321 	mov	dptr,#0xA2F983
   0117 75 F0 3E            322 	mov	b,#0x3E
   011A 12s00r00r00         323 	lcall	___fsmul
   011E AA 82               324 	mov	r2,dpl
   0120 AB 83               325 	mov	r3,dph
   0122 AC 93               326 	mov	r4,dpx
   0124 AD F0               327 	mov	r5,b
                            328 ;	genAssign: resultIsFar = TRUE
   0126 90s00r00r00         329 	mov	dptr,#___fsadd_PARM_2
   012A E4                  330 	clr  a
   012B F0                  331 	movx @dptr,a
   012C A3                  332 	inc  dptr
   012D F0                  333 	movx @dptr,a
   012E A3                  334 	inc	dptr
   012F E4                  335 	clr  a
   0130 F0                  336 	movx	@dptr,a
   0131 A3                  337 	inc	dptr
   0132 74 3F               338 	mov	a,#0x3F
   0134 F0                  339 	movx	@dptr,a
   0135 8A 82               340 	mov	dpl,r2
   0137 8B 83               341 	mov	dph,r3
   0139 8C 93               342 	mov	dpx,r4
   013B 8D F0               343 	mov	b,r5
   013D 12s00r00r00         344 	lcall	___fsadd
   0141 12s00r00r00         345 	lcall	___fs2sint
   0145 AA 82               346 	mov	r2,dpl
   0147 AB 83               347 	mov	r3,dph
                            348 ;	genAssign: resultIsFar = FALSE
   0149 8A 82               349 	mov	dpl,r2
   014B 8B 83               350 	mov	dph,r3
                            351 ;	sincosf.c:79: if(N&1) sign=!sign;
   014D E5 82               352 	mov	a,dpl
   014F 30 E0 02            353 	jnb  acc.0,00110$
   0152                     354 00129$:
   0152 B2*01               355 	cpl	_sincosf_sign_1_1
   0154                     356 00110$:
                            357 ;	sincosf.c:81: XN=N;
   0154 12s00r00r00         358 	lcall	___sint2fs
   0158 AA 82               359 	mov	r2,dpl
   015A AB 83               360 	mov	r3,dph
   015C AC 93               361 	mov	r4,dpx
   015E AD F0               362 	mov	r5,b
                            363 ;	genAssign: resultIsFar = TRUE
   0160 90s00r00r0C         364 	mov	dptr,#_sincosf_XN_1_1
   0164 EA                  365 	mov	a,r2
   0165 F0                  366 	movx	@dptr,a
   0166 A3                  367 	inc	dptr
   0167 EB                  368 	mov	a,r3
   0168 F0                  369 	movx	@dptr,a
   0169 A3                  370 	inc	dptr
   016A EC                  371 	mov	a,r4
   016B F0                  372 	movx	@dptr,a
   016C A3                  373 	inc	dptr
   016D ED                  374 	mov	a,r5
   016E F0                  375 	movx	@dptr,a
                            376 ;	sincosf.c:83: if(iscos) XN-=0.5;
   016F 30*00 42            377 	jnb  _sincosf_PARM_2,00112$
   0172                     378 00130$:
                            379 ;	genAssign: resultIsFar = TRUE
   0172 90s00r00r00         380 	mov	dptr,#___fssub_PARM_2
   0176 E4                  381 	clr  a
   0177 F0                  382 	movx @dptr,a
   0178 A3                  383 	inc  dptr
   0179 F0                  384 	movx @dptr,a
   017A A3                  385 	inc	dptr
   017B E4                  386 	clr  a
   017C F0                  387 	movx	@dptr,a
   017D A3                  388 	inc	dptr
   017E 74 3F               389 	mov	a,#0x3F
   0180 F0                  390 	movx	@dptr,a
   0181 05 86               391 	inc	dps
   0183 90s00r00r0C         392 	mov	dptr,#_sincosf_XN_1_1
   0187 E0                  393 	movx	a,@dptr
   0188 F5 82               394 	mov	dpl,a
   018A A3                  395 	inc	dptr
   018B E0                  396 	movx	a,@dptr
   018C F5 83               397 	mov	dph,a
   018E A3                  398 	inc	dptr
   018F E0                  399 	movx	a,@dptr
   0190 F5 93               400 	mov	dpx,a
   0192 A3                  401 	inc	dptr
   0193 E0                  402 	movx	a,@dptr
   0194 F5 F0               403 	mov	b,a
   0196 75 86 00            404 	mov	dps,#0
   0199 12s00r00r00         405 	lcall	___fssub
   019D AA 82               406 	mov	r2,dpl
   019F AB 83               407 	mov	r3,dph
   01A1 AC 93               408 	mov	r4,dpx
   01A3 AD F0               409 	mov	r5,b
                            410 ;	genAssign: resultIsFar = TRUE
   01A5 90s00r00r0C         411 	mov	dptr,#_sincosf_XN_1_1
   01A9 EA                  412 	mov	a,r2
   01AA F0                  413 	movx	@dptr,a
   01AB A3                  414 	inc	dptr
   01AC EB                  415 	mov	a,r3
   01AD F0                  416 	movx	@dptr,a
   01AE A3                  417 	inc	dptr
   01AF EC                  418 	mov	a,r4
   01B0 F0                  419 	movx	@dptr,a
   01B1 A3                  420 	inc	dptr
   01B2 ED                  421 	mov	a,r5
   01B3 F0                  422 	movx	@dptr,a
   01B4                     423 00112$:
                            424 ;	sincosf.c:85: y=fabsf(x);
   01B4 05 86               425 	inc	dps
   01B6 90s00r00r00         426 	mov	dptr,#_sincosf_x_1_1
   01BA E0                  427 	movx	a,@dptr
   01BB F5 82               428 	mov	dpl,a
   01BD A3                  429 	inc	dptr
   01BE E0                  430 	movx	a,@dptr
   01BF F5 83               431 	mov	dph,a
   01C1 A3                  432 	inc	dptr
   01C2 E0                  433 	movx	a,@dptr
   01C3 F5 93               434 	mov	dpx,a
   01C5 A3                  435 	inc	dptr
   01C6 E0                  436 	movx	a,@dptr
   01C7 F5 F0               437 	mov	b,a
   01C9 75 86 00            438 	mov	dps,#0
   01CC 12s00r00r00         439 	lcall	_fabsf
   01D0 AA 82               440 	mov	r2,dpl
   01D2 AB 83               441 	mov	r3,dph
   01D4 AC 93               442 	mov	r4,dpx
   01D6 AD F0               443 	mov	r5,b
                            444 ;	genAssign: resultIsFar = TRUE
   01D8 8A 06               445 	mov	ar6,r2
   01DA 8B 07               446 	mov	ar7,r3
   01DC 8C 00               447 	mov	ar0,r4
   01DE 8D 01               448 	mov	ar1,r5
                            449 ;	sincosf.c:86: r=(int)y;
   01E0 C0 06               450 	push	ar6
   01E2 C0 07               451 	push	ar7
   01E4 C0 00               452 	push	ar0
   01E6 C0 01               453 	push	ar1
   01E8 8E 82               454 	mov	dpl,r6
   01EA 8F 83               455 	mov	dph,r7
   01EC 88 93               456 	mov	dpx,r0
   01EE 89 F0               457 	mov	b,r1
   01F0 12s00r00r00         458 	lcall	___fs2sint
   01F4 D0 01               459 	pop	ar1
   01F6 D0 00               460 	pop	ar0
   01F8 D0 07               461 	pop	ar7
   01FA D0 06               462 	pop	ar6
   01FC C0 06               463 	push	ar6
   01FE C0 07               464 	push	ar7
   0200 C0 00               465 	push	ar0
   0202 C0 01               466 	push	ar1
   0204 12s00r00r00         467 	lcall	___sint2fs
   0208 AA 82               468 	mov	r2,dpl
   020A AB 83               469 	mov	r3,dph
   020C AC 93               470 	mov	r4,dpx
   020E AD F0               471 	mov	r5,b
   0210 D0 01               472 	pop	ar1
   0212 D0 00               473 	pop	ar0
   0214 D0 07               474 	pop	ar7
   0216 D0 06               475 	pop	ar6
                            476 ;	genAssign: resultIsFar = TRUE
   0218 90s00r00r08         477 	mov	dptr,#_sincosf_r_1_1
   021C EA                  478 	mov	a,r2
   021D F0                  479 	movx	@dptr,a
   021E A3                  480 	inc	dptr
   021F EB                  481 	mov	a,r3
   0220 F0                  482 	movx	@dptr,a
   0221 A3                  483 	inc	dptr
   0222 EC                  484 	mov	a,r4
   0223 F0                  485 	movx	@dptr,a
   0224 A3                  486 	inc	dptr
   0225 ED                  487 	mov	a,r5
   0226 F0                  488 	movx	@dptr,a
                            489 ;	sincosf.c:87: g=y-r;
   0227 90s00r00r08         490 	mov	dptr,#_sincosf_r_1_1
                            491 ;	genAssign: resultIsFar = TRUE
   022B 75 86 21            492 	mov	dps,#0x21
   022E 90s00r00r00         493 	mov	dptr,#___fssub_PARM_2
   0232 E0                  494 	movx	a,@dptr
   0233 F0                  495 	movx	@dptr,a
   0234 A3                  496 	inc	dptr
   0235 A3                  497 	inc	dptr
   0236 E0                  498 	movx	a,@dptr
   0237 F0                  499 	movx	@dptr,a
   0238 A3                  500 	inc	dptr
   0239 A3                  501 	inc	dptr
   023A E0                  502 	movx	a,@dptr
   023B F0                  503 	movx	@dptr,a
   023C A3                  504 	inc	dptr
   023D A3                  505 	inc	dptr
   023E E0                  506 	movx	a,@dptr
   023F F0                  507 	movx	@dptr,a
   0240 75 86 00            508 	mov	dps,#0
   0243 8E 82               509 	mov	dpl,r6
   0245 8F 83               510 	mov	dph,r7
   0247 88 93               511 	mov	dpx,r0
   0249 89 F0               512 	mov	b,r1
   024B 12s00r00r00         513 	lcall	___fssub
   024F AE 82               514 	mov	r6,dpl
   0251 AF 83               515 	mov	r7,dph
   0253 A8 93               516 	mov	r0,dpx
   0255 A9 F0               517 	mov	r1,b
                            518 ;	genAssign: resultIsFar = TRUE
                            519 ;	sincosf.c:88: f=((r-XN*C1)+g)-XN*C2;
   0257 90s00r00r0C         520 	mov	dptr,#_sincosf_XN_1_1
                            521 ;	genAssign: resultIsFar = TRUE
   025B 75 86 21            522 	mov	dps,#0x21
   025E 90s00r00r00         523 	mov	dptr,#___fsmul_PARM_2
   0262 E0                  524 	movx	a,@dptr
   0263 F0                  525 	movx	@dptr,a
   0264 A3                  526 	inc	dptr
   0265 A3                  527 	inc	dptr
   0266 E0                  528 	movx	a,@dptr
   0267 F0                  529 	movx	@dptr,a
   0268 A3                  530 	inc	dptr
   0269 A3                  531 	inc	dptr
   026A E0                  532 	movx	a,@dptr
   026B F0                  533 	movx	@dptr,a
   026C A3                  534 	inc	dptr
   026D A3                  535 	inc	dptr
   026E E0                  536 	movx	a,@dptr
   026F F0                  537 	movx	@dptr,a
   0270 75 86 00            538 	mov	dps,#0
   0273 C0 06               539 	push	ar6
   0275 C0 07               540 	push	ar7
   0277 C0 00               541 	push	ar0
   0279 C0 01               542 	push	ar1
   027B 90 00 00 00         543 	mov  dptr,#0x0000
   027F 75 93 49            544 	mov	dpx,#0x49
   0282 75 F0 40            545 	mov	b,#0x40
   0285 12s00r00r00         546 	lcall	___fsmul
   0289 AA 82               547 	mov	r2,dpl
   028B AB 83               548 	mov	r3,dph
   028D AC 93               549 	mov	r4,dpx
   028F AD F0               550 	mov	r5,b
   0291 D0 01               551 	pop	ar1
   0293 D0 00               552 	pop	ar0
   0295 D0 07               553 	pop	ar7
   0297 D0 06               554 	pop	ar6
                            555 ;	genAssign: resultIsFar = TRUE
   0299 90s00r00r00         556 	mov	dptr,#___fssub_PARM_2
   029D EA                  557 	mov	a,r2
   029E F0                  558 	movx	@dptr,a
   029F A3                  559 	inc	dptr
   02A0 EB                  560 	mov	a,r3
   02A1 F0                  561 	movx	@dptr,a
   02A2 A3                  562 	inc	dptr
   02A3 EC                  563 	mov	a,r4
   02A4 F0                  564 	movx	@dptr,a
   02A5 A3                  565 	inc	dptr
   02A6 ED                  566 	mov	a,r5
   02A7 F0                  567 	movx	@dptr,a
   02A8 C0 06               568 	push	ar6
   02AA C0 07               569 	push	ar7
   02AC C0 00               570 	push	ar0
   02AE C0 01               571 	push	ar1
   02B0 05 86               572 	inc	dps
   02B2 90s00r00r08         573 	mov	dptr,#_sincosf_r_1_1
   02B6 E0                  574 	movx	a,@dptr
   02B7 F5 82               575 	mov	dpl,a
   02B9 A3                  576 	inc	dptr
   02BA E0                  577 	movx	a,@dptr
   02BB F5 83               578 	mov	dph,a
   02BD A3                  579 	inc	dptr
   02BE E0                  580 	movx	a,@dptr
   02BF F5 93               581 	mov	dpx,a
   02C1 A3                  582 	inc	dptr
   02C2 E0                  583 	movx	a,@dptr
   02C3 F5 F0               584 	mov	b,a
   02C5 75 86 00            585 	mov	dps,#0
   02C8 12s00r00r00         586 	lcall	___fssub
   02CC AA 82               587 	mov	r2,dpl
   02CE AB 83               588 	mov	r3,dph
   02D0 AC 93               589 	mov	r4,dpx
   02D2 AD F0               590 	mov	r5,b
   02D4 D0 01               591 	pop	ar1
   02D6 D0 00               592 	pop	ar0
   02D8 D0 07               593 	pop	ar7
   02DA D0 06               594 	pop	ar6
                            595 ;	genAssign: resultIsFar = TRUE
   02DC 90s00r00r00         596 	mov	dptr,#___fsadd_PARM_2
   02E0 EE                  597 	mov	a,r6
   02E1 F0                  598 	movx	@dptr,a
   02E2 A3                  599 	inc	dptr
   02E3 EF                  600 	mov	a,r7
   02E4 F0                  601 	movx	@dptr,a
   02E5 A3                  602 	inc	dptr
   02E6 E8                  603 	mov	a,r0
   02E7 F0                  604 	movx	@dptr,a
   02E8 A3                  605 	inc	dptr
   02E9 E9                  606 	mov	a,r1
   02EA F0                  607 	movx	@dptr,a
   02EB 8A 82               608 	mov	dpl,r2
   02ED 8B 83               609 	mov	dph,r3
   02EF 8C 93               610 	mov	dpx,r4
   02F1 8D F0               611 	mov	b,r5
   02F3 12s00r00r00         612 	lcall	___fsadd
   02F7 AE 82               613 	mov	r6,dpl
   02F9 AF 83               614 	mov	r7,dph
   02FB A8 93               615 	mov	r0,dpx
   02FD A9 F0               616 	mov	r1,b
   02FF 90s00r00r0C         617 	mov	dptr,#_sincosf_XN_1_1
                            618 ;	genAssign: resultIsFar = TRUE
   0303 75 86 21            619 	mov	dps,#0x21
   0306 90s00r00r00         620 	mov	dptr,#___fsmul_PARM_2
   030A E0                  621 	movx	a,@dptr
   030B F0                  622 	movx	@dptr,a
   030C A3                  623 	inc	dptr
   030D A3                  624 	inc	dptr
   030E E0                  625 	movx	a,@dptr
   030F F0                  626 	movx	@dptr,a
   0310 A3                  627 	inc	dptr
   0311 A3                  628 	inc	dptr
   0312 E0                  629 	movx	a,@dptr
   0313 F0                  630 	movx	@dptr,a
   0314 A3                  631 	inc	dptr
   0315 A3                  632 	inc	dptr
   0316 E0                  633 	movx	a,@dptr
   0317 F0                  634 	movx	@dptr,a
   0318 75 86 00            635 	mov	dps,#0
   031B C0 06               636 	push	ar6
   031D C0 07               637 	push	ar7
   031F C0 00               638 	push	ar0
   0321 C0 01               639 	push	ar1
   0323 90 7D AA 22         640 	mov	dptr,#0x7DAA22
   0327 75 F0 3A            641 	mov	b,#0x3A
   032A 12s00r00r00         642 	lcall	___fsmul
   032E AA 82               643 	mov	r2,dpl
   0330 AB 83               644 	mov	r3,dph
   0332 AC 93               645 	mov	r4,dpx
   0334 AD F0               646 	mov	r5,b
   0336 D0 01               647 	pop	ar1
   0338 D0 00               648 	pop	ar0
   033A D0 07               649 	pop	ar7
   033C D0 06               650 	pop	ar6
                            651 ;	genAssign: resultIsFar = TRUE
   033E 90s00r00r00         652 	mov	dptr,#___fssub_PARM_2
   0342 EA                  653 	mov	a,r2
   0343 F0                  654 	movx	@dptr,a
   0344 A3                  655 	inc	dptr
   0345 EB                  656 	mov	a,r3
   0346 F0                  657 	movx	@dptr,a
   0347 A3                  658 	inc	dptr
   0348 EC                  659 	mov	a,r4
   0349 F0                  660 	movx	@dptr,a
   034A A3                  661 	inc	dptr
   034B ED                  662 	mov	a,r5
   034C F0                  663 	movx	@dptr,a
   034D 8E 82               664 	mov	dpl,r6
   034F 8F 83               665 	mov	dph,r7
   0351 88 93               666 	mov	dpx,r0
   0353 89 F0               667 	mov	b,r1
   0355 12s00r00r00         668 	lcall	___fssub
   0359 AA 82               669 	mov	r2,dpl
   035B AB 83               670 	mov	r3,dph
   035D AC 93               671 	mov	r4,dpx
   035F AD F0               672 	mov	r5,b
                            673 ;	genAssign: resultIsFar = TRUE
   0361 90s00r00r04         674 	mov	dptr,#_sincosf_f_1_1
   0365 EA                  675 	mov	a,r2
   0366 F0                  676 	movx	@dptr,a
   0367 A3                  677 	inc	dptr
   0368 EB                  678 	mov	a,r3
   0369 F0                  679 	movx	@dptr,a
   036A A3                  680 	inc	dptr
   036B EC                  681 	mov	a,r4
   036C F0                  682 	movx	@dptr,a
   036D A3                  683 	inc	dptr
   036E ED                  684 	mov	a,r5
   036F F0                  685 	movx	@dptr,a
                            686 ;	sincosf.c:90: g=f*f;
   0370 90s00r00r04         687 	mov	dptr,#_sincosf_f_1_1
                            688 ;	genAssign: resultIsFar = TRUE
   0374 75 86 21            689 	mov	dps,#0x21
   0377 90s00r00r00         690 	mov	dptr,#___fsmul_PARM_2
   037B E0                  691 	movx	a,@dptr
   037C F0                  692 	movx	@dptr,a
   037D A3                  693 	inc	dptr
   037E A3                  694 	inc	dptr
   037F E0                  695 	movx	a,@dptr
   0380 F0                  696 	movx	@dptr,a
   0381 A3                  697 	inc	dptr
   0382 A3                  698 	inc	dptr
   0383 E0                  699 	movx	a,@dptr
   0384 F0                  700 	movx	@dptr,a
   0385 A3                  701 	inc	dptr
   0386 A3                  702 	inc	dptr
   0387 E0                  703 	movx	a,@dptr
   0388 F0                  704 	movx	@dptr,a
   0389 75 86 01            705 	mov	dps, #1
   038C 90s00r00r04         706 	mov	dptr,#_sincosf_f_1_1
   0390 E0                  707 	movx	a,@dptr
   0391 F5 82               708 	mov	dpl,a
   0393 A3                  709 	inc	dptr
   0394 E0                  710 	movx	a,@dptr
   0395 F5 83               711 	mov	dph,a
   0397 A3                  712 	inc	dptr
   0398 E0                  713 	movx	a,@dptr
   0399 F5 93               714 	mov	dpx,a
   039B A3                  715 	inc	dptr
   039C E0                  716 	movx	a,@dptr
   039D F5 F0               717 	mov	b,a
   039F 75 86 00            718 	mov	dps,#0
   03A2 12s00r00r00         719 	lcall	___fsmul
   03A6 AA 82               720 	mov	r2,dpl
   03A8 AB 83               721 	mov	r3,dph
   03AA AC 93               722 	mov	r4,dpx
   03AC AD F0               723 	mov	r5,b
                            724 ;	genAssign: resultIsFar = TRUE
   03AE 8A 06               725 	mov	ar6,r2
   03B0 8B 07               726 	mov	ar7,r3
   03B2 8C 00               727 	mov	ar0,r4
   03B4 8D 01               728 	mov	ar1,r5
                            729 ;	sincosf.c:91: if(g>EPS2) //Used to be if(fabsf(f)>EPS)
                            730 ;	genAssign: resultIsFar = TRUE
   03B6 90s00r00r00         731 	mov	dptr,#___fsgt_PARM_2
   03BA 74 F3               732 	mov	a,#0xF3
   03BC F0                  733 	movx	@dptr,a
   03BD A3                  734 	inc	dptr
   03BE 74 FF               735 	mov	a,#0xFF
   03C0 F0                  736 	movx	@dptr,a
   03C1 A3                  737 	inc	dptr
   03C2 74 7F               738 	mov	a,#0x7F
   03C4 F0                  739 	movx	@dptr,a
   03C5 A3                  740 	inc	dptr
   03C6 74 33               741 	mov	a,#0x33
   03C8 F0                  742 	movx	@dptr,a
   03C9 C0 06               743 	push	ar6
   03CB C0 07               744 	push	ar7
   03CD C0 00               745 	push	ar0
   03CF C0 01               746 	push	ar1
   03D1 8E 82               747 	mov	dpl,r6
   03D3 8F 83               748 	mov	dph,r7
   03D5 88 93               749 	mov	dpx,r0
   03D7 89 F0               750 	mov	b,r1
   03D9 12s00r00r00         751 	lcall	___fsgt
   03DD D0 01               752 	pop	ar1
   03DF D0 00               753 	pop	ar0
   03E1 D0 07               754 	pop	ar7
   03E3 D0 06               755 	pop	ar6
   03E5 E5 82               756 	mov	a,dpl
   03E7 70 04               757 	jnz	00131$
   03E9 02s00r05rC2         758 	ljmp	00114$
   03ED                     759 00131$:
                            760 ;	sincosf.c:93: r=(((r4*g+r3)*g+r2)*g+r1)*g;
                            761 ;	genAssign: resultIsFar = TRUE
   03ED 90s00r00r00         762 	mov	dptr,#___fsmul_PARM_2
   03F1 EE                  763 	mov	a,r6
   03F2 F0                  764 	movx	@dptr,a
   03F3 A3                  765 	inc	dptr
   03F4 EF                  766 	mov	a,r7
   03F5 F0                  767 	movx	@dptr,a
   03F6 A3                  768 	inc	dptr
   03F7 E8                  769 	mov	a,r0
   03F8 F0                  770 	movx	@dptr,a
   03F9 A3                  771 	inc	dptr
   03FA E9                  772 	mov	a,r1
   03FB F0                  773 	movx	@dptr,a
   03FC C0 06               774 	push	ar6
   03FE C0 07               775 	push	ar7
   0400 C0 00               776 	push	ar0
   0402 C0 01               777 	push	ar1
   0404 90 2E 9C 5B         778 	mov	dptr,#0x2E9C5B
   0408 75 F0 36            779 	mov	b,#0x36
   040B 12s00r00r00         780 	lcall	___fsmul
   040F AA 82               781 	mov	r2,dpl
   0411 AB 83               782 	mov	r3,dph
   0413 AC 93               783 	mov	r4,dpx
   0415 AD F0               784 	mov	r5,b
   0417 D0 01               785 	pop	ar1
   0419 D0 00               786 	pop	ar0
   041B D0 07               787 	pop	ar7
   041D D0 06               788 	pop	ar6
                            789 ;	genAssign: resultIsFar = TRUE
   041F 90s00r00r00         790 	mov	dptr,#___fsadd_PARM_2
   0423 74 22               791 	mov	a,#0x22
   0425 F0                  792 	movx	@dptr,a
   0426 A3                  793 	inc	dptr
   0427 74 B2               794 	mov	a,#0xB2
   0429 F0                  795 	movx	@dptr,a
   042A A3                  796 	inc	dptr
   042B 74 4F               797 	mov	a,#0x4F
   042D F0                  798 	movx	@dptr,a
   042E A3                  799 	inc	dptr
   042F 74 B9               800 	mov	a,#0xB9
   0431 F0                  801 	movx	@dptr,a
   0432 C0 06               802 	push	ar6
   0434 C0 07               803 	push	ar7
   0436 C0 00               804 	push	ar0
   0438 C0 01               805 	push	ar1
   043A 8A 82               806 	mov	dpl,r2
   043C 8B 83               807 	mov	dph,r3
   043E 8C 93               808 	mov	dpx,r4
   0440 8D F0               809 	mov	b,r5
   0442 12s00r00r00         810 	lcall	___fsadd
   0446 AA 82               811 	mov	r2,dpl
   0448 AB 83               812 	mov	r3,dph
   044A AC 93               813 	mov	r4,dpx
   044C AD F0               814 	mov	r5,b
   044E D0 01               815 	pop	ar1
   0450 D0 00               816 	pop	ar0
   0452 D0 07               817 	pop	ar7
   0454 D0 06               818 	pop	ar6
                            819 ;	genAssign: resultIsFar = TRUE
   0456 90s00r00r00         820 	mov	dptr,#___fsmul_PARM_2
   045A EE                  821 	mov	a,r6
   045B F0                  822 	movx	@dptr,a
   045C A3                  823 	inc	dptr
   045D EF                  824 	mov	a,r7
   045E F0                  825 	movx	@dptr,a
   045F A3                  826 	inc	dptr
   0460 E8                  827 	mov	a,r0
   0461 F0                  828 	movx	@dptr,a
   0462 A3                  829 	inc	dptr
   0463 E9                  830 	mov	a,r1
   0464 F0                  831 	movx	@dptr,a
   0465 C0 06               832 	push	ar6
   0467 C0 07               833 	push	ar7
   0469 C0 00               834 	push	ar0
   046B C0 01               835 	push	ar1
   046D 8A 82               836 	mov	dpl,r2
   046F 8B 83               837 	mov	dph,r3
   0471 8C 93               838 	mov	dpx,r4
   0473 8D F0               839 	mov	b,r5
   0475 12s00r00r00         840 	lcall	___fsmul
   0479 AA 82               841 	mov	r2,dpl
   047B AB 83               842 	mov	r3,dph
   047D AC 93               843 	mov	r4,dpx
   047F AD F0               844 	mov	r5,b
   0481 D0 01               845 	pop	ar1
   0483 D0 00               846 	pop	ar0
   0485 D0 07               847 	pop	ar7
   0487 D0 06               848 	pop	ar6
                            849 ;	genAssign: resultIsFar = TRUE
   0489 90s00r00r00         850 	mov	dptr,#___fsadd_PARM_2
   048D 74 3E               851 	mov	a,#0x3E
   048F F0                  852 	movx	@dptr,a
   0490 A3                  853 	inc	dptr
   0491 74 87               854 	mov	a,#0x87
   0493 F0                  855 	movx	@dptr,a
   0494 A3                  856 	inc	dptr
   0495 74 08               857 	mov	a,#0x08
   0497 F0                  858 	movx	@dptr,a
   0498 A3                  859 	inc	dptr
   0499 74 3C               860 	mov	a,#0x3C
   049B F0                  861 	movx	@dptr,a
   049C C0 06               862 	push	ar6
   049E C0 07               863 	push	ar7
   04A0 C0 00               864 	push	ar0
   04A2 C0 01               865 	push	ar1
   04A4 8A 82               866 	mov	dpl,r2
   04A6 8B 83               867 	mov	dph,r3
   04A8 8C 93               868 	mov	dpx,r4
   04AA 8D F0               869 	mov	b,r5
   04AC 12s00r00r00         870 	lcall	___fsadd
   04B0 AA 82               871 	mov	r2,dpl
   04B2 AB 83               872 	mov	r3,dph
   04B4 AC 93               873 	mov	r4,dpx
   04B6 AD F0               874 	mov	r5,b
   04B8 D0 01               875 	pop	ar1
   04BA D0 00               876 	pop	ar0
   04BC D0 07               877 	pop	ar7
   04BE D0 06               878 	pop	ar6
                            879 ;	genAssign: resultIsFar = TRUE
   04C0 90s00r00r00         880 	mov	dptr,#___fsmul_PARM_2
   04C4 EE                  881 	mov	a,r6
   04C5 F0                  882 	movx	@dptr,a
   04C6 A3                  883 	inc	dptr
   04C7 EF                  884 	mov	a,r7
   04C8 F0                  885 	movx	@dptr,a
   04C9 A3                  886 	inc	dptr
   04CA E8                  887 	mov	a,r0
   04CB F0                  888 	movx	@dptr,a
   04CC A3                  889 	inc	dptr
   04CD E9                  890 	mov	a,r1
   04CE F0                  891 	movx	@dptr,a
   04CF C0 06               892 	push	ar6
   04D1 C0 07               893 	push	ar7
   04D3 C0 00               894 	push	ar0
   04D5 C0 01               895 	push	ar1
   04D7 8A 82               896 	mov	dpl,r2
   04D9 8B 83               897 	mov	dph,r3
   04DB 8C 93               898 	mov	dpx,r4
   04DD 8D F0               899 	mov	b,r5
   04DF 12s00r00r00         900 	lcall	___fsmul
   04E3 AA 82               901 	mov	r2,dpl
   04E5 AB 83               902 	mov	r3,dph
   04E7 AC 93               903 	mov	r4,dpx
   04E9 AD F0               904 	mov	r5,b
   04EB D0 01               905 	pop	ar1
   04ED D0 00               906 	pop	ar0
   04EF D0 07               907 	pop	ar7
   04F1 D0 06               908 	pop	ar6
                            909 ;	genAssign: resultIsFar = TRUE
   04F3 90s00r00r00         910 	mov	dptr,#___fsadd_PARM_2
   04F7 74 A4               911 	mov	a,#0xA4
   04F9 F0                  912 	movx	@dptr,a
   04FA A3                  913 	inc	dptr
   04FB 74 AA               914 	mov	a,#0xAA
   04FD F0                  915 	movx	@dptr,a
   04FE A3                  916 	inc	dptr
   04FF 74 2A               917 	mov	a,#0x2A
   0501 F0                  918 	movx	@dptr,a
   0502 A3                  919 	inc	dptr
   0503 74 BE               920 	mov	a,#0xBE
   0505 F0                  921 	movx	@dptr,a
   0506 C0 06               922 	push	ar6
   0508 C0 07               923 	push	ar7
   050A C0 00               924 	push	ar0
   050C C0 01               925 	push	ar1
   050E 8A 82               926 	mov	dpl,r2
   0510 8B 83               927 	mov	dph,r3
   0512 8C 93               928 	mov	dpx,r4
   0514 8D F0               929 	mov	b,r5
   0516 12s00r00r00         930 	lcall	___fsadd
   051A AA 82               931 	mov	r2,dpl
   051C AB 83               932 	mov	r3,dph
   051E AC 93               933 	mov	r4,dpx
   0520 AD F0               934 	mov	r5,b
   0522 D0 01               935 	pop	ar1
   0524 D0 00               936 	pop	ar0
   0526 D0 07               937 	pop	ar7
   0528 D0 06               938 	pop	ar6
                            939 ;	genAssign: resultIsFar = TRUE
   052A 90s00r00r00         940 	mov	dptr,#___fsmul_PARM_2
   052E EE                  941 	mov	a,r6
   052F F0                  942 	movx	@dptr,a
   0530 A3                  943 	inc	dptr
   0531 EF                  944 	mov	a,r7
   0532 F0                  945 	movx	@dptr,a
   0533 A3                  946 	inc	dptr
   0534 E8                  947 	mov	a,r0
   0535 F0                  948 	movx	@dptr,a
   0536 A3                  949 	inc	dptr
   0537 E9                  950 	mov	a,r1
   0538 F0                  951 	movx	@dptr,a
   0539 8A 82               952 	mov	dpl,r2
   053B 8B 83               953 	mov	dph,r3
   053D 8C 93               954 	mov	dpx,r4
   053F 8D F0               955 	mov	b,r5
   0541 12s00r00r00         956 	lcall	___fsmul
   0545 AA 82               957 	mov	r2,dpl
   0547 AB 83               958 	mov	r3,dph
   0549 AC 93               959 	mov	r4,dpx
   054B AD F0               960 	mov	r5,b
                            961 ;	genAssign: resultIsFar = TRUE
   054D 90s00r00r00         962 	mov	dptr,#___fsmul_PARM_2
   0551 EA                  963 	mov	a,r2
   0552 F0                  964 	movx	@dptr,a
   0553 A3                  965 	inc	dptr
   0554 EB                  966 	mov	a,r3
   0555 F0                  967 	movx	@dptr,a
   0556 A3                  968 	inc	dptr
   0557 EC                  969 	mov	a,r4
   0558 F0                  970 	movx	@dptr,a
   0559 A3                  971 	inc	dptr
   055A ED                  972 	mov	a,r5
   055B F0                  973 	movx	@dptr,a
                            974 ;	sincosf.c:94: f+=f*r;
   055C 05 86               975 	inc	dps
   055E 90s00r00r04         976 	mov	dptr,#_sincosf_f_1_1
   0562 E0                  977 	movx	a,@dptr
   0563 F5 82               978 	mov	dpl,a
   0565 A3                  979 	inc	dptr
   0566 E0                  980 	movx	a,@dptr
   0567 F5 83               981 	mov	dph,a
   0569 A3                  982 	inc	dptr
   056A E0                  983 	movx	a,@dptr
   056B F5 93               984 	mov	dpx,a
   056D A3                  985 	inc	dptr
   056E E0                  986 	movx	a,@dptr
   056F F5 F0               987 	mov	b,a
   0571 75 86 00            988 	mov	dps,#0
   0574 12s00r00r00         989 	lcall	___fsmul
   0578 AA 82               990 	mov	r2,dpl
   057A AB 83               991 	mov	r3,dph
   057C AC 93               992 	mov	r4,dpx
   057E AD F0               993 	mov	r5,b
                            994 ;	genAssign: resultIsFar = TRUE
   0580 90s00r00r00         995 	mov	dptr,#___fsadd_PARM_2
   0584 EA                  996 	mov	a,r2
   0585 F0                  997 	movx	@dptr,a
   0586 A3                  998 	inc	dptr
   0587 EB                  999 	mov	a,r3
   0588 F0                 1000 	movx	@dptr,a
   0589 A3                 1001 	inc	dptr
   058A EC                 1002 	mov	a,r4
   058B F0                 1003 	movx	@dptr,a
   058C A3                 1004 	inc	dptr
   058D ED                 1005 	mov	a,r5
   058E F0                 1006 	movx	@dptr,a
   058F 05 86              1007 	inc	dps
   0591 90s00r00r04        1008 	mov	dptr,#_sincosf_f_1_1
   0595 E0                 1009 	movx	a,@dptr
   0596 F5 82              1010 	mov	dpl,a
   0598 A3                 1011 	inc	dptr
   0599 E0                 1012 	movx	a,@dptr
   059A F5 83              1013 	mov	dph,a
   059C A3                 1014 	inc	dptr
   059D E0                 1015 	movx	a,@dptr
   059E F5 93              1016 	mov	dpx,a
   05A0 A3                 1017 	inc	dptr
   05A1 E0                 1018 	movx	a,@dptr
   05A2 F5 F0              1019 	mov	b,a
   05A4 75 86 00           1020 	mov	dps,#0
   05A7 12s00r00r00        1021 	lcall	___fsadd
   05AB AA 82              1022 	mov	r2,dpl
   05AD AB 83              1023 	mov	r3,dph
   05AF AC 93              1024 	mov	r4,dpx
   05B1 AD F0              1025 	mov	r5,b
                           1026 ;	genAssign: resultIsFar = TRUE
   05B3 90s00r00r04        1027 	mov	dptr,#_sincosf_f_1_1
   05B7 EA                 1028 	mov	a,r2
   05B8 F0                 1029 	movx	@dptr,a
   05B9 A3                 1030 	inc	dptr
   05BA EB                 1031 	mov	a,r3
   05BB F0                 1032 	movx	@dptr,a
   05BC A3                 1033 	inc	dptr
   05BD EC                 1034 	mov	a,r4
   05BE F0                 1035 	movx	@dptr,a
   05BF A3                 1036 	inc	dptr
   05C0 ED                 1037 	mov	a,r5
   05C1 F0                 1038 	movx	@dptr,a
   05C2                    1039 00114$:
                           1040 ;	sincosf.c:96: return (sign?-f:f);
   05C2 30*01 13           1041 	jnb  _sincosf_sign_1_1,00117$
   05C5                    1042 00132$:
   05C5 90s00r00r04        1043 	mov	dptr,#_sincosf_f_1_1
   05C9 E0                 1044 	movx	a,@dptr
   05CA FA                 1045 	mov	r2,a
   05CB A3                 1046 	inc	dptr
   05CC E0                 1047 	movx	a,@dptr
   05CD FB                 1048 	mov	r3,a
   05CE A3                 1049 	inc	dptr
   05CF E0                 1050 	movx	a,@dptr
   05D0 FC                 1051 	mov	r4,a
   05D1 A3                 1052 	inc	dptr
   05D2 E0                 1053 	movx	a,@dptr
   05D3 B2 E7              1054 	cpl	acc.7
   05D5 FD                 1055 	mov	r5,a
   05D6 80 0F              1056 	sjmp 00118$
   05D8                    1057 00117$:
   05D8 90s00r00r04        1058 	mov	dptr,#_sincosf_f_1_1
                           1059 ;	genAssign: resultIsFar = FALSE
   05DC E0                 1060 	movx	a,@dptr
   05DD FA                 1061 	mov	r2,a
   05DE A3                 1062 	inc	dptr
   05DF E0                 1063 	movx	a,@dptr
   05E0 FB                 1064 	mov	r3,a
   05E1 A3                 1065 	inc	dptr
   05E2 E0                 1066 	movx	a,@dptr
   05E3 FC                 1067 	mov	r4,a
   05E4 A3                 1068 	inc	dptr
   05E5 E0                 1069 	movx	a,@dptr
   05E6 FD                 1070 	mov	r5,a
   05E7                    1071 00118$:
   05E7 8A 82              1072 	mov	dpl,r2
   05E9 8B 83              1073 	mov	dph,r3
   05EB 8C 93              1074 	mov	dpx,r4
   05ED 8D F0              1075 	mov	b,r5
   05EF                    1076 00115$:
   05EF 22                 1077 	ret
                           1078 	.area CSEG    (CODE)
                           1079 	.area CONST   (CODE)
                           1080 	.area XINIT   (CODE)
                           1081 	.area CABS    (ABS,CODE)
