                              1 ;--------------------------------------------------------
                              2 ; File Created by SDCC : free open source ANSI-C Compiler
                              3 ; Version 3.0.1 #6227 (Oct  2 2015) (Linux)
                              4 ; This file was generated Fri Oct  2 17:15:28 2015
                              5 ;--------------------------------------------------------
                              6 	.module sincoshf
                              7 	.optsdcc -mmcs51 --model-large
                              8 	
                              9 ;--------------------------------------------------------
                             10 ; Public variables in this module
                             11 ;--------------------------------------------------------
                             12 	.globl _sincoshf
                             13 	.globl _sincoshf_PARM_2
                             14 ;--------------------------------------------------------
                             15 ; special function registers
                             16 ;--------------------------------------------------------
                             17 	.area RSEG    (ABS,DATA)
   0000                      18 	.org 0x0000
                             19 ;--------------------------------------------------------
                             20 ; special function bits
                             21 ;--------------------------------------------------------
                             22 	.area RSEG    (ABS,DATA)
   0000                      23 	.org 0x0000
                             24 ;--------------------------------------------------------
                             25 ; overlayable register banks
                             26 ;--------------------------------------------------------
                             27 	.area REG_BANK_0	(REL,OVR,DATA)
   0000                      28 	.ds 8
                             29 ;--------------------------------------------------------
                             30 ; internal ram data
                             31 ;--------------------------------------------------------
                             32 	.area DSEG    (DATA)
   0000                      33 _sincoshf_sloc0_1_0:
   0000                      34 	.ds 4
   0004                      35 _sincoshf_sloc1_1_0:
   0004                      36 	.ds 4
   0008                      37 _sincoshf_sloc2_1_0:
   0008                      38 	.ds 4
                             39 ;--------------------------------------------------------
                             40 ; overlayable items in internal ram 
                             41 ;--------------------------------------------------------
                             42 	.area OSEG    (OVR,DATA)
                             43 ;--------------------------------------------------------
                             44 ; indirectly addressable internal ram data
                             45 ;--------------------------------------------------------
                             46 	.area ISEG    (DATA)
                             47 ;--------------------------------------------------------
                             48 ; absolute internal ram data
                             49 ;--------------------------------------------------------
                             50 	.area IABS    (ABS,DATA)
                             51 	.area IABS    (ABS,DATA)
                             52 ;--------------------------------------------------------
                             53 ; bit data
                             54 ;--------------------------------------------------------
                             55 	.area BSEG    (BIT)
   0000                      56 _sincoshf_sign_1_1:
   0000                      57 	.ds 1
                             58 ;--------------------------------------------------------
                             59 ; paged external ram data
                             60 ;--------------------------------------------------------
                             61 	.area PSEG    (PAG,XDATA)
                             62 ;--------------------------------------------------------
                             63 ; external ram data
                             64 ;--------------------------------------------------------
                             65 	.area XSEG    (XDATA)
   0000                      66 _sincoshf_PARM_2:
   0000                      67 	.ds 2
   0002                      68 _sincoshf_x_1_1:
   0002                      69 	.ds 4
   0006                      70 _sincoshf_y_1_1:
   0006                      71 	.ds 4
   000A                      72 _sincoshf_w_1_1:
   000A                      73 	.ds 4
   000E                      74 _sincoshf_z_1_1:
   000E                      75 	.ds 4
                             76 ;--------------------------------------------------------
                             77 ; absolute external ram data
                             78 ;--------------------------------------------------------
                             79 	.area XABS    (ABS,XDATA)
                             80 ;--------------------------------------------------------
                             81 ; external initialized ram data
                             82 ;--------------------------------------------------------
                             83 	.area XISEG   (XDATA)
                             84 	.area HOME    (CODE)
                             85 	.area GSINIT0 (CODE)
                             86 	.area GSINIT1 (CODE)
                             87 	.area GSINIT2 (CODE)
                             88 	.area GSINIT3 (CODE)
                             89 	.area GSINIT4 (CODE)
                             90 	.area GSINIT5 (CODE)
                             91 	.area GSINIT  (CODE)
                             92 	.area GSFINAL (CODE)
                             93 	.area CSEG    (CODE)
                             94 ;--------------------------------------------------------
                             95 ; global & static initialisations
                             96 ;--------------------------------------------------------
                             97 	.area HOME    (CODE)
                             98 	.area GSINIT  (CODE)
                             99 	.area GSFINAL (CODE)
                            100 	.area GSINIT  (CODE)
                            101 ;--------------------------------------------------------
                            102 ; Home
                            103 ;--------------------------------------------------------
                            104 	.area HOME    (CODE)
                            105 	.area HOME    (CODE)
                            106 ;--------------------------------------------------------
                            107 ; code
                            108 ;--------------------------------------------------------
                            109 	.area CSEG    (CODE)
                            110 ;------------------------------------------------------------
                            111 ;Allocation info for local variables in function 'sincoshf'
                            112 ;------------------------------------------------------------
                            113 ;sloc0                     Allocated with name '_sincoshf_sloc0_1_0'
                            114 ;sloc1                     Allocated with name '_sincoshf_sloc1_1_0'
                            115 ;sloc2                     Allocated with name '_sincoshf_sloc2_1_0'
                            116 ;iscosh                    Allocated with name '_sincoshf_PARM_2'
                            117 ;x                         Allocated with name '_sincoshf_x_1_1'
                            118 ;y                         Allocated with name '_sincoshf_y_1_1'
                            119 ;w                         Allocated with name '_sincoshf_w_1_1'
                            120 ;z                         Allocated with name '_sincoshf_z_1_1'
                            121 ;------------------------------------------------------------
                            122 ;	sincoshf.c:53: float sincoshf(const float x, const int iscosh)
                            123 ;	-----------------------------------------
                            124 ;	 function sincoshf
                            125 ;	-----------------------------------------
   0000                     126 _sincoshf:
                    0002    127 	ar2 = 0x02
                    0003    128 	ar3 = 0x03
                    0004    129 	ar4 = 0x04
                    0005    130 	ar5 = 0x05
                    0006    131 	ar6 = 0x06
                    0007    132 	ar7 = 0x07
                    0000    133 	ar0 = 0x00
                    0001    134 	ar1 = 0x01
                            135 ;	sincoshf.c:58: if (x<0.0) { y=-x; sign=1; }
   0000 AA 82               136 	mov	r2,dpl
   0002 AB 83               137 	mov	r3,dph
   0004 AC F0               138 	mov	r4,b
   0006 FD                  139 	mov	r5,a
   0007 90s00r02            140 	mov	dptr,#_sincoshf_x_1_1
   000A EA                  141 	mov	a,r2
   000B F0                  142 	movx	@dptr,a
   000C A3                  143 	inc	dptr
   000D EB                  144 	mov	a,r3
   000E F0                  145 	movx	@dptr,a
   000F A3                  146 	inc	dptr
   0010 EC                  147 	mov	a,r4
   0011 F0                  148 	movx	@dptr,a
   0012 A3                  149 	inc	dptr
   0013 ED                  150 	mov	a,r5
   0014 F0                  151 	movx	@dptr,a
   0015 C0 02               152 	push	ar2
   0017 C0 03               153 	push	ar3
   0019 C0 04               154 	push	ar4
   001B C0 05               155 	push	ar5
   001D E4                  156 	clr	a
   001E C0 E0               157 	push	acc
   0020 C0 E0               158 	push	acc
   0022 C0 E0               159 	push	acc
   0024 C0 E0               160 	push	acc
   0026 8A 82               161 	mov	dpl,r2
   0028 8B 83               162 	mov	dph,r3
   002A 8C F0               163 	mov	b,r4
   002C ED                  164 	mov	a,r5
   002D 12s00r00            165 	lcall	___fslt
   0030 AE 82               166 	mov	r6,dpl
   0032 E5 81               167 	mov	a,sp
   0034 24 FC               168 	add	a,#0xfc
   0036 F5 81               169 	mov	sp,a
   0038 D0 05               170 	pop	ar5
   003A D0 04               171 	pop	ar4
   003C D0 03               172 	pop	ar3
   003E D0 02               173 	pop	ar2
   0040 EE                  174 	mov	a,r6
   0041 60 14               175 	jz	00102$
   0043 90s00r06            176 	mov	dptr,#_sincoshf_y_1_1
   0046 EA                  177 	mov	a,r2
   0047 F0                  178 	movx	@dptr,a
   0048 A3                  179 	inc	dptr
   0049 EB                  180 	mov	a,r3
   004A F0                  181 	movx	@dptr,a
   004B A3                  182 	inc	dptr
   004C EC                  183 	mov	a,r4
   004D F0                  184 	movx	@dptr,a
   004E ED                  185 	mov	a,r5
   004F B2 E7               186 	cpl	acc.7
   0051 A3                  187 	inc	dptr
   0052 F0                  188 	movx	@dptr,a
   0053 D2*00               189 	setb	_sincoshf_sign_1_1
   0055 80 10               190 	sjmp	00103$
   0057                     191 00102$:
                            192 ;	sincoshf.c:59: else { y=x;  sign=0; }
   0057 90s00r06            193 	mov	dptr,#_sincoshf_y_1_1
   005A EA                  194 	mov	a,r2
   005B F0                  195 	movx	@dptr,a
   005C A3                  196 	inc	dptr
   005D EB                  197 	mov	a,r3
   005E F0                  198 	movx	@dptr,a
   005F A3                  199 	inc	dptr
   0060 EC                  200 	mov	a,r4
   0061 F0                  201 	movx	@dptr,a
   0062 A3                  202 	inc	dptr
   0063 ED                  203 	mov	a,r5
   0064 F0                  204 	movx	@dptr,a
   0065 C2*00               205 	clr	_sincoshf_sign_1_1
   0067                     206 00103$:
                            207 ;	sincoshf.c:61: if ((y>1.0) || iscosh)
   0067 90s00r06            208 	mov	dptr,#_sincoshf_y_1_1
   006A E0                  209 	movx	a,@dptr
   006B F5*00               210 	mov	_sincoshf_sloc0_1_0,a
   006D A3                  211 	inc	dptr
   006E E0                  212 	movx	a,@dptr
   006F F5*01               213 	mov	(_sincoshf_sloc0_1_0 + 1),a
   0071 A3                  214 	inc	dptr
   0072 E0                  215 	movx	a,@dptr
   0073 F5*02               216 	mov	(_sincoshf_sloc0_1_0 + 2),a
   0075 A3                  217 	inc	dptr
   0076 E0                  218 	movx	a,@dptr
   0077 F5*03               219 	mov	(_sincoshf_sloc0_1_0 + 3),a
   0079 C0 02               220 	push	ar2
   007B C0 03               221 	push	ar3
   007D C0 04               222 	push	ar4
   007F C0 05               223 	push	ar5
   0081 E4                  224 	clr	a
   0082 C0 E0               225 	push	acc
   0084 C0 E0               226 	push	acc
   0086 74 80               227 	mov	a,#0x80
   0088 C0 E0               228 	push	acc
   008A 74 3F               229 	mov	a,#0x3F
   008C C0 E0               230 	push	acc
   008E 85*00 82            231 	mov	dpl,_sincoshf_sloc0_1_0
   0091 85*01 83            232 	mov	dph,(_sincoshf_sloc0_1_0 + 1)
   0094 85*02 F0            233 	mov	b,(_sincoshf_sloc0_1_0 + 2)
   0097 E5*03               234 	mov	a,(_sincoshf_sloc0_1_0 + 3)
   0099 12s00r00            235 	lcall	___fsgt
   009C AE 82               236 	mov	r6,dpl
   009E E5 81               237 	mov	a,sp
   00A0 24 FC               238 	add	a,#0xfc
   00A2 F5 81               239 	mov	sp,a
   00A4 D0 05               240 	pop	ar5
   00A6 D0 04               241 	pop	ar4
   00A8 D0 03               242 	pop	ar3
   00AA D0 02               243 	pop	ar2
   00AC EE                  244 	mov	a,r6
   00AD 70 0E               245 	jnz	00117$
   00AF 90s00r00            246 	mov	dptr,#_sincoshf_PARM_2
   00B2 E0                  247 	movx	a,@dptr
   00B3 FE                  248 	mov	r6,a
   00B4 A3                  249 	inc	dptr
   00B5 E0                  250 	movx	a,@dptr
   00B6 FF                  251 	mov	r7,a
   00B7 4E                  252 	orl	a,r6
   00B8 70 03               253 	jnz	00132$
   00BA 02s02rB4            254 	ljmp	00118$
   00BD                     255 00132$:
   00BD                     256 00117$:
                            257 ;	sincoshf.c:63: if(y>YBAR)
   00BD E4                  258 	clr	a
   00BE C0 E0               259 	push	acc
   00C0 C0 E0               260 	push	acc
   00C2 74 10               261 	mov	a,#0x10
   00C4 C0 E0               262 	push	acc
   00C6 74 41               263 	mov	a,#0x41
   00C8 C0 E0               264 	push	acc
   00CA 85*00 82            265 	mov	dpl,_sincoshf_sloc0_1_0
   00CD 85*01 83            266 	mov	dph,(_sincoshf_sloc0_1_0 + 1)
   00D0 85*02 F0            267 	mov	b,(_sincoshf_sloc0_1_0 + 2)
   00D3 E5*03               268 	mov	a,(_sincoshf_sloc0_1_0 + 3)
   00D5 12s00r00            269 	lcall	___fsgt
   00D8 AE 82               270 	mov	r6,dpl
   00DA E5 81               271 	mov	a,sp
   00DC 24 FC               272 	add	a,#0xfc
   00DE F5 81               273 	mov	sp,a
   00E0 EE                  274 	mov	a,r6
   00E1 70 03               275 	jnz	00133$
   00E3 02s01rC4            276 	ljmp	00110$
   00E6                     277 00133$:
                            278 ;	sincoshf.c:65: w=y-K1;
   00E6 E4                  279 	clr	a
   00E7 C0 E0               280 	push	acc
   00E9 74 73               281 	mov	a,#0x73
   00EB C0 E0               282 	push	acc
   00ED 74 31               283 	mov	a,#0x31
   00EF C0 E0               284 	push	acc
   00F1 74 3F               285 	mov	a,#0x3F
   00F3 C0 E0               286 	push	acc
                            287 ;	sincoshf.c:66: if (w>WMAX)
   00F5 85*00 82            288 	mov	dpl,_sincoshf_sloc0_1_0
   00F8 85*01 83            289 	mov	dph,(_sincoshf_sloc0_1_0 + 1)
   00FB 85*02 F0            290 	mov	b,(_sincoshf_sloc0_1_0 + 2)
   00FE E5*03               291 	mov	a,(_sincoshf_sloc0_1_0 + 3)
   0100 12s00r00            292 	lcall	___fssub
   0103 85 82*04            293 	mov	_sincoshf_sloc1_1_0,dpl
   0106 85 83*05            294 	mov	(_sincoshf_sloc1_1_0 + 1),dph
   0109 85 F0*06            295 	mov	(_sincoshf_sloc1_1_0 + 2),b
   010C F5*07               296 	mov	(_sincoshf_sloc1_1_0 + 3),a
   010E E5 81               297 	mov	a,sp
   0110 24 FC               298 	add	a,#0xfc
   0112 F5 81               299 	mov	sp,a
   0114 74 CF               300 	mov	a,#0xCF
   0116 C0 E0               301 	push	acc
   0118 74 BD               302 	mov	a,#0xBD
   011A C0 E0               303 	push	acc
   011C 74 33               304 	mov	a,#0x33
   011E C0 E0               305 	push	acc
   0120 74 42               306 	mov	a,#0x42
   0122 C0 E0               307 	push	acc
   0124 85*04 82            308 	mov	dpl,_sincoshf_sloc1_1_0
   0127 85*05 83            309 	mov	dph,(_sincoshf_sloc1_1_0 + 1)
   012A 85*06 F0            310 	mov	b,(_sincoshf_sloc1_1_0 + 2)
   012D E5*07               311 	mov	a,(_sincoshf_sloc1_1_0 + 3)
   012F 12s00r00            312 	lcall	___fsgt
   0132 AE 82               313 	mov	r6,dpl
   0134 E5 81               314 	mov	a,sp
   0136 24 FC               315 	add	a,#0xfc
   0138 F5 81               316 	mov	sp,a
   013A EE                  317 	mov	a,r6
   013B 60 1A               318 	jz	00105$
                            319 ;	sincoshf.c:68: errno=ERANGE;
   013D 90s00r00            320 	mov	dptr,#_errno
   0140 74 22               321 	mov	a,#0x22
   0142 F0                  322 	movx	@dptr,a
   0143 A3                  323 	inc	dptr
   0144 E4                  324 	clr	a
   0145 F0                  325 	movx	@dptr,a
                            326 ;	sincoshf.c:69: z=HUGE_VALF;
   0146 90s00r0E            327 	mov	dptr,#_sincoshf_z_1_1
   0149 74 FF               328 	mov	a,#0xFF
   014B F0                  329 	movx	@dptr,a
   014C A3                  330 	inc	dptr
   014D F0                  331 	movx	@dptr,a
   014E A3                  332 	inc	dptr
   014F 74 7F               333 	mov	a,#0x7F
   0151 F0                  334 	movx	@dptr,a
   0152 A3                  335 	inc	dptr
   0153 F0                  336 	movx	@dptr,a
   0154 02s02r8D            337 	ljmp	00111$
   0157                     338 00105$:
                            339 ;	sincoshf.c:73: z=expf(w);
   0157 85*04 82            340 	mov	dpl,_sincoshf_sloc1_1_0
   015A 85*05 83            341 	mov	dph,(_sincoshf_sloc1_1_0 + 1)
   015D 85*06 F0            342 	mov	b,(_sincoshf_sloc1_1_0 + 2)
   0160 E5*07               343 	mov	a,(_sincoshf_sloc1_1_0 + 3)
   0162 12s00r00            344 	lcall	_expf
   0165 85 82*04            345 	mov	_sincoshf_sloc1_1_0,dpl
   0168 85 83*05            346 	mov	(_sincoshf_sloc1_1_0 + 1),dph
   016B 85 F0*06            347 	mov	(_sincoshf_sloc1_1_0 + 2),b
   016E F5*07               348 	mov	(_sincoshf_sloc1_1_0 + 3),a
                            349 ;	sincoshf.c:74: z+=K3*z;
   0170 C0*04               350 	push	_sincoshf_sloc1_1_0
   0172 C0*05               351 	push	(_sincoshf_sloc1_1_0 + 1)
   0174 C0*06               352 	push	(_sincoshf_sloc1_1_0 + 2)
   0176 C0*07               353 	push	(_sincoshf_sloc1_1_0 + 3)
   0178 90 08 97            354 	mov	dptr,#0x0897
   017B 75 F0 68            355 	mov	b,#0x68
   017E 74 37               356 	mov	a,#0x37
   0180 12s00r00            357 	lcall	___fsmul
   0183 AE 82               358 	mov	r6,dpl
   0185 AF 83               359 	mov	r7,dph
   0187 A8 F0               360 	mov	r0,b
   0189 F9                  361 	mov	r1,a
   018A E5 81               362 	mov	a,sp
   018C 24 FC               363 	add	a,#0xfc
   018E F5 81               364 	mov	sp,a
   0190 C0 06               365 	push	ar6
   0192 C0 07               366 	push	ar7
   0194 C0 00               367 	push	ar0
   0196 C0 01               368 	push	ar1
   0198 85*04 82            369 	mov	dpl,_sincoshf_sloc1_1_0
   019B 85*05 83            370 	mov	dph,(_sincoshf_sloc1_1_0 + 1)
   019E 85*06 F0            371 	mov	b,(_sincoshf_sloc1_1_0 + 2)
   01A1 E5*07               372 	mov	a,(_sincoshf_sloc1_1_0 + 3)
   01A3 12s00r00            373 	lcall	___fsadd
   01A6 AE 82               374 	mov	r6,dpl
   01A8 AF 83               375 	mov	r7,dph
   01AA A8 F0               376 	mov	r0,b
   01AC F9                  377 	mov	r1,a
   01AD E5 81               378 	mov	a,sp
   01AF 24 FC               379 	add	a,#0xfc
   01B1 F5 81               380 	mov	sp,a
   01B3 90s00r0E            381 	mov	dptr,#_sincoshf_z_1_1
   01B6 EE                  382 	mov	a,r6
   01B7 F0                  383 	movx	@dptr,a
   01B8 A3                  384 	inc	dptr
   01B9 EF                  385 	mov	a,r7
   01BA F0                  386 	movx	@dptr,a
   01BB A3                  387 	inc	dptr
   01BC E8                  388 	mov	a,r0
   01BD F0                  389 	movx	@dptr,a
   01BE A3                  390 	inc	dptr
   01BF E9                  391 	mov	a,r1
   01C0 F0                  392 	movx	@dptr,a
   01C1 02s02r8D            393 	ljmp	00111$
   01C4                     394 00110$:
                            395 ;	sincoshf.c:79: z=expf(y);
   01C4 85*00 82            396 	mov	dpl,_sincoshf_sloc0_1_0
   01C7 85*01 83            397 	mov	dph,(_sincoshf_sloc0_1_0 + 1)
   01CA 85*02 F0            398 	mov	b,(_sincoshf_sloc0_1_0 + 2)
   01CD E5*03               399 	mov	a,(_sincoshf_sloc0_1_0 + 3)
   01CF 12s00r00            400 	lcall	_expf
   01D2 85 82*08            401 	mov	_sincoshf_sloc2_1_0,dpl
   01D5 85 83*09            402 	mov	(_sincoshf_sloc2_1_0 + 1),dph
   01D8 85 F0*0A            403 	mov	(_sincoshf_sloc2_1_0 + 2),b
   01DB F5*0B               404 	mov	(_sincoshf_sloc2_1_0 + 3),a
                            405 ;	sincoshf.c:80: w=1.0/z;
   01DD C0*08               406 	push	_sincoshf_sloc2_1_0
   01DF C0*09               407 	push	(_sincoshf_sloc2_1_0 + 1)
   01E1 C0*0A               408 	push	(_sincoshf_sloc2_1_0 + 2)
   01E3 C0*0B               409 	push	(_sincoshf_sloc2_1_0 + 3)
   01E5 90 00 00            410 	mov	dptr,#0x0000
   01E8 75 F0 80            411 	mov	b,#0x80
   01EB 74 3F               412 	mov	a,#0x3F
   01ED 12s00r00            413 	lcall	___fsdiv
   01F0 85 82*04            414 	mov	_sincoshf_sloc1_1_0,dpl
   01F3 85 83*05            415 	mov	(_sincoshf_sloc1_1_0 + 1),dph
   01F6 85 F0*06            416 	mov	(_sincoshf_sloc1_1_0 + 2),b
   01F9 F5*07               417 	mov	(_sincoshf_sloc1_1_0 + 3),a
   01FB E5 81               418 	mov	a,sp
   01FD 24 FC               419 	add	a,#0xfc
   01FF F5 81               420 	mov	sp,a
   0201 90s00r0A            421 	mov	dptr,#_sincoshf_w_1_1
   0204 E5*04               422 	mov	a,_sincoshf_sloc1_1_0
   0206 F0                  423 	movx	@dptr,a
   0207 A3                  424 	inc	dptr
   0208 E5*05               425 	mov	a,(_sincoshf_sloc1_1_0 + 1)
   020A F0                  426 	movx	@dptr,a
   020B A3                  427 	inc	dptr
   020C E5*06               428 	mov	a,(_sincoshf_sloc1_1_0 + 2)
   020E F0                  429 	movx	@dptr,a
   020F A3                  430 	inc	dptr
   0210 E5*07               431 	mov	a,(_sincoshf_sloc1_1_0 + 3)
   0212 F0                  432 	movx	@dptr,a
                            433 ;	sincoshf.c:81: if(!iscosh) w=-w;
   0213 90s00r00            434 	mov	dptr,#_sincoshf_PARM_2
   0216 E0                  435 	movx	a,@dptr
   0217 FE                  436 	mov	r6,a
   0218 A3                  437 	inc	dptr
   0219 E0                  438 	movx	a,@dptr
   021A FF                  439 	mov	r7,a
   021B 4E                  440 	orl	a,r6
   021C 70 14               441 	jnz	00108$
   021E 90s00r0A            442 	mov	dptr,#_sincoshf_w_1_1
   0221 E5*04               443 	mov	a,_sincoshf_sloc1_1_0
   0223 F0                  444 	movx	@dptr,a
   0224 A3                  445 	inc	dptr
   0225 E5*05               446 	mov	a,(_sincoshf_sloc1_1_0 + 1)
   0227 F0                  447 	movx	@dptr,a
   0228 A3                  448 	inc	dptr
   0229 E5*06               449 	mov	a,(_sincoshf_sloc1_1_0 + 2)
   022B F0                  450 	movx	@dptr,a
   022C E5*07               451 	mov	a,(_sincoshf_sloc1_1_0 + 3)
   022E B2 E7               452 	cpl	acc.7
   0230 A3                  453 	inc	dptr
   0231 F0                  454 	movx	@dptr,a
   0232                     455 00108$:
                            456 ;	sincoshf.c:82: z=(z+w)*0.5;
   0232 90s00r0A            457 	mov	dptr,#_sincoshf_w_1_1
   0235 E0                  458 	movx	a,@dptr
   0236 C0 E0               459 	push	acc
   0238 A3                  460 	inc	dptr
   0239 E0                  461 	movx	a,@dptr
   023A C0 E0               462 	push	acc
   023C A3                  463 	inc	dptr
   023D E0                  464 	movx	a,@dptr
   023E C0 E0               465 	push	acc
   0240 A3                  466 	inc	dptr
   0241 E0                  467 	movx	a,@dptr
   0242 C0 E0               468 	push	acc
   0244 85*08 82            469 	mov	dpl,_sincoshf_sloc2_1_0
   0247 85*09 83            470 	mov	dph,(_sincoshf_sloc2_1_0 + 1)
   024A 85*0A F0            471 	mov	b,(_sincoshf_sloc2_1_0 + 2)
   024D E5*0B               472 	mov	a,(_sincoshf_sloc2_1_0 + 3)
   024F 12s00r00            473 	lcall	___fsadd
   0252 AE 82               474 	mov	r6,dpl
   0254 AF 83               475 	mov	r7,dph
   0256 A8 F0               476 	mov	r0,b
   0258 F9                  477 	mov	r1,a
   0259 E5 81               478 	mov	a,sp
   025B 24 FC               479 	add	a,#0xfc
   025D F5 81               480 	mov	sp,a
   025F C0 06               481 	push	ar6
   0261 C0 07               482 	push	ar7
   0263 C0 00               483 	push	ar0
   0265 C0 01               484 	push	ar1
   0267 90 00 00            485 	mov	dptr,#(0x00&0x00ff)
   026A E4                  486 	clr	a
   026B F5 F0               487 	mov	b,a
   026D 74 3F               488 	mov	a,#0x3F
   026F 12s00r00            489 	lcall	___fsmul
   0272 AE 82               490 	mov	r6,dpl
   0274 AF 83               491 	mov	r7,dph
   0276 A8 F0               492 	mov	r0,b
   0278 F9                  493 	mov	r1,a
   0279 E5 81               494 	mov	a,sp
   027B 24 FC               495 	add	a,#0xfc
   027D F5 81               496 	mov	sp,a
   027F 90s00r0E            497 	mov	dptr,#_sincoshf_z_1_1
   0282 EE                  498 	mov	a,r6
   0283 F0                  499 	movx	@dptr,a
   0284 A3                  500 	inc	dptr
   0285 EF                  501 	mov	a,r7
   0286 F0                  502 	movx	@dptr,a
   0287 A3                  503 	inc	dptr
   0288 E8                  504 	mov	a,r0
   0289 F0                  505 	movx	@dptr,a
   028A A3                  506 	inc	dptr
   028B E9                  507 	mov	a,r1
   028C F0                  508 	movx	@dptr,a
   028D                     509 00111$:
                            510 ;	sincoshf.c:84: if(sign) z=-z;
   028D 20*00 03            511 	jb	_sincoshf_sign_1_1,00136$
   0290 02s04r4A            512 	ljmp	00119$
   0293                     513 00136$:
   0293 90s00r0E            514 	mov	dptr,#_sincoshf_z_1_1
   0296 E0                  515 	movx	a,@dptr
   0297 FE                  516 	mov	r6,a
   0298 A3                  517 	inc	dptr
   0299 E0                  518 	movx	a,@dptr
   029A FF                  519 	mov	r7,a
   029B A3                  520 	inc	dptr
   029C E0                  521 	movx	a,@dptr
   029D F8                  522 	mov	r0,a
   029E A3                  523 	inc	dptr
   029F E0                  524 	movx	a,@dptr
   02A0 F9                  525 	mov	r1,a
   02A1 90s00r0E            526 	mov	dptr,#_sincoshf_z_1_1
   02A4 EE                  527 	mov	a,r6
   02A5 F0                  528 	movx	@dptr,a
   02A6 A3                  529 	inc	dptr
   02A7 EF                  530 	mov	a,r7
   02A8 F0                  531 	movx	@dptr,a
   02A9 A3                  532 	inc	dptr
   02AA E8                  533 	mov	a,r0
   02AB F0                  534 	movx	@dptr,a
   02AC E9                  535 	mov	a,r1
   02AD B2 E7               536 	cpl	acc.7
   02AF A3                  537 	inc	dptr
   02B0 F0                  538 	movx	@dptr,a
   02B1 02s04r4A            539 	ljmp	00119$
   02B4                     540 00118$:
                            541 ;	sincoshf.c:88: if (y<EPS)
   02B4 C0 02               542 	push	ar2
   02B6 C0 03               543 	push	ar3
   02B8 C0 04               544 	push	ar4
   02BA C0 05               545 	push	ar5
   02BC E4                  546 	clr	a
   02BD C0 E0               547 	push	acc
   02BF C0 E0               548 	push	acc
   02C1 74 80               549 	mov	a,#0x80
   02C3 C0 E0               550 	push	acc
   02C5 74 39               551 	mov	a,#0x39
   02C7 C0 E0               552 	push	acc
   02C9 85*00 82            553 	mov	dpl,_sincoshf_sloc0_1_0
   02CC 85*01 83            554 	mov	dph,(_sincoshf_sloc0_1_0 + 1)
   02CF 85*02 F0            555 	mov	b,(_sincoshf_sloc0_1_0 + 2)
   02D2 E5*03               556 	mov	a,(_sincoshf_sloc0_1_0 + 3)
   02D4 12s00r00            557 	lcall	___fslt
   02D7 AE 82               558 	mov	r6,dpl
   02D9 E5 81               559 	mov	a,sp
   02DB 24 FC               560 	add	a,#0xfc
   02DD F5 81               561 	mov	sp,a
   02DF D0 05               562 	pop	ar5
   02E1 D0 04               563 	pop	ar4
   02E3 D0 03               564 	pop	ar3
   02E5 D0 02               565 	pop	ar2
   02E7 EE                  566 	mov	a,r6
   02E8 60 11               567 	jz	00115$
                            568 ;	sincoshf.c:89: z=x;
   02EA 90s00r0E            569 	mov	dptr,#_sincoshf_z_1_1
   02ED EA                  570 	mov	a,r2
   02EE F0                  571 	movx	@dptr,a
   02EF A3                  572 	inc	dptr
   02F0 EB                  573 	mov	a,r3
   02F1 F0                  574 	movx	@dptr,a
   02F2 A3                  575 	inc	dptr
   02F3 EC                  576 	mov	a,r4
   02F4 F0                  577 	movx	@dptr,a
   02F5 A3                  578 	inc	dptr
   02F6 ED                  579 	mov	a,r5
   02F7 F0                  580 	movx	@dptr,a
   02F8 02s04r4A            581 	ljmp	00119$
   02FB                     582 00115$:
                            583 ;	sincoshf.c:92: z=x*x;
   02FB C0 02               584 	push	ar2
   02FD C0 03               585 	push	ar3
   02FF C0 04               586 	push	ar4
   0301 C0 05               587 	push	ar5
   0303 C0 02               588 	push	ar2
   0305 C0 03               589 	push	ar3
   0307 C0 04               590 	push	ar4
   0309 C0 05               591 	push	ar5
                            592 ;	sincoshf.c:93: z=x+x*z*P(z)/Q(z);
   030B 8A 82               593 	mov	dpl,r2
   030D 8B 83               594 	mov	dph,r3
   030F 8C F0               595 	mov	b,r4
   0311 ED                  596 	mov	a,r5
   0312 12s00r00            597 	lcall	___fsmul
   0315 85 82*08            598 	mov	_sincoshf_sloc2_1_0,dpl
   0318 85 83*09            599 	mov	(_sincoshf_sloc2_1_0 + 1),dph
   031B 85 F0*0A            600 	mov	(_sincoshf_sloc2_1_0 + 2),b
   031E F5*0B               601 	mov	(_sincoshf_sloc2_1_0 + 3),a
   0320 E5 81               602 	mov	a,sp
   0322 24 FC               603 	add	a,#0xfc
   0324 F5 81               604 	mov	sp,a
   0326 D0 05               605 	pop	ar5
   0328 D0 04               606 	pop	ar4
   032A D0 03               607 	pop	ar3
   032C D0 02               608 	pop	ar2
   032E C0 02               609 	push	ar2
   0330 C0 03               610 	push	ar3
   0332 C0 04               611 	push	ar4
   0334 C0 05               612 	push	ar5
   0336 C0*08               613 	push	_sincoshf_sloc2_1_0
   0338 C0*09               614 	push	(_sincoshf_sloc2_1_0 + 1)
   033A C0*0A               615 	push	(_sincoshf_sloc2_1_0 + 2)
   033C C0*0B               616 	push	(_sincoshf_sloc2_1_0 + 3)
   033E 8A 82               617 	mov	dpl,r2
   0340 8B 83               618 	mov	dph,r3
   0342 8C F0               619 	mov	b,r4
   0344 ED                  620 	mov	a,r5
   0345 12s00r00            621 	lcall	___fsmul
   0348 85 82*04            622 	mov	_sincoshf_sloc1_1_0,dpl
   034B 85 83*05            623 	mov	(_sincoshf_sloc1_1_0 + 1),dph
   034E 85 F0*06            624 	mov	(_sincoshf_sloc1_1_0 + 2),b
   0351 F5*07               625 	mov	(_sincoshf_sloc1_1_0 + 3),a
   0353 E5 81               626 	mov	a,sp
   0355 24 FC               627 	add	a,#0xfc
   0357 F5 81               628 	mov	sp,a
   0359 C0*08               629 	push	_sincoshf_sloc2_1_0
   035B C0*09               630 	push	(_sincoshf_sloc2_1_0 + 1)
   035D C0*0A               631 	push	(_sincoshf_sloc2_1_0 + 2)
   035F C0*0B               632 	push	(_sincoshf_sloc2_1_0 + 3)
   0361 90 E6 EA            633 	mov	dptr,#0xE6EA
   0364 75 F0 42            634 	mov	b,#0x42
   0367 74 BE               635 	mov	a,#0xBE
   0369 12s00r00            636 	lcall	___fsmul
   036C AE 82               637 	mov	r6,dpl
   036E AF 83               638 	mov	r7,dph
   0370 A8 F0               639 	mov	r0,b
   0372 F9                  640 	mov	r1,a
   0373 E5 81               641 	mov	a,sp
   0375 24 FC               642 	add	a,#0xfc
   0377 F5 81               643 	mov	sp,a
   0379 74 F0               644 	mov	a,#0xF0
   037B C0 E0               645 	push	acc
   037D 74 69               646 	mov	a,#0x69
   037F C0 E0               647 	push	acc
   0381 74 E4               648 	mov	a,#0xE4
   0383 C0 E0               649 	push	acc
   0385 74 C0               650 	mov	a,#0xC0
   0387 C0 E0               651 	push	acc
   0389 8E 82               652 	mov	dpl,r6
   038B 8F 83               653 	mov	dph,r7
   038D 88 F0               654 	mov	b,r0
   038F E9                  655 	mov	a,r1
   0390 12s00r00            656 	lcall	___fsadd
   0393 AE 82               657 	mov	r6,dpl
   0395 AF 83               658 	mov	r7,dph
   0397 A8 F0               659 	mov	r0,b
   0399 F9                  660 	mov	r1,a
   039A E5 81               661 	mov	a,sp
   039C 24 FC               662 	add	a,#0xfc
   039E F5 81               663 	mov	sp,a
   03A0 C0 06               664 	push	ar6
   03A2 C0 07               665 	push	ar7
   03A4 C0 00               666 	push	ar0
   03A6 C0 01               667 	push	ar1
   03A8 85*04 82            668 	mov	dpl,_sincoshf_sloc1_1_0
   03AB 85*05 83            669 	mov	dph,(_sincoshf_sloc1_1_0 + 1)
   03AE 85*06 F0            670 	mov	b,(_sincoshf_sloc1_1_0 + 2)
   03B1 E5*07               671 	mov	a,(_sincoshf_sloc1_1_0 + 3)
   03B3 12s00r00            672 	lcall	___fsmul
   03B6 85 82*04            673 	mov	_sincoshf_sloc1_1_0,dpl
   03B9 85 83*05            674 	mov	(_sincoshf_sloc1_1_0 + 1),dph
   03BC 85 F0*06            675 	mov	(_sincoshf_sloc1_1_0 + 2),b
   03BF F5*07               676 	mov	(_sincoshf_sloc1_1_0 + 3),a
   03C1 E5 81               677 	mov	a,sp
   03C3 24 FC               678 	add	a,#0xfc
   03C5 F5 81               679 	mov	sp,a
   03C7 74 93               680 	mov	a,#0x93
   03C9 C0 E0               681 	push	acc
   03CB 74 4F               682 	mov	a,#0x4F
   03CD C0 E0               683 	push	acc
   03CF 74 2B               684 	mov	a,#0x2B
   03D1 C0 E0               685 	push	acc
   03D3 74 C2               686 	mov	a,#0xC2
   03D5 C0 E0               687 	push	acc
   03D7 85*08 82            688 	mov	dpl,_sincoshf_sloc2_1_0
   03DA 85*09 83            689 	mov	dph,(_sincoshf_sloc2_1_0 + 1)
   03DD 85*0A F0            690 	mov	b,(_sincoshf_sloc2_1_0 + 2)
   03E0 E5*0B               691 	mov	a,(_sincoshf_sloc2_1_0 + 3)
   03E2 12s00r00            692 	lcall	___fsadd
   03E5 AE 82               693 	mov	r6,dpl
   03E7 AF 83               694 	mov	r7,dph
   03E9 A8 F0               695 	mov	r0,b
   03EB F9                  696 	mov	r1,a
   03EC E5 81               697 	mov	a,sp
   03EE 24 FC               698 	add	a,#0xfc
   03F0 F5 81               699 	mov	sp,a
   03F2 C0 06               700 	push	ar6
   03F4 C0 07               701 	push	ar7
   03F6 C0 00               702 	push	ar0
   03F8 C0 01               703 	push	ar1
   03FA 85*04 82            704 	mov	dpl,_sincoshf_sloc1_1_0
   03FD 85*05 83            705 	mov	dph,(_sincoshf_sloc1_1_0 + 1)
   0400 85*06 F0            706 	mov	b,(_sincoshf_sloc1_1_0 + 2)
   0403 E5*07               707 	mov	a,(_sincoshf_sloc1_1_0 + 3)
   0405 12s00r00            708 	lcall	___fsdiv
   0408 AE 82               709 	mov	r6,dpl
   040A AF 83               710 	mov	r7,dph
   040C A8 F0               711 	mov	r0,b
   040E F9                  712 	mov	r1,a
   040F E5 81               713 	mov	a,sp
   0411 24 FC               714 	add	a,#0xfc
   0413 F5 81               715 	mov	sp,a
   0415 D0 05               716 	pop	ar5
   0417 D0 04               717 	pop	ar4
   0419 D0 03               718 	pop	ar3
   041B D0 02               719 	pop	ar2
   041D C0 06               720 	push	ar6
   041F C0 07               721 	push	ar7
   0421 C0 00               722 	push	ar0
   0423 C0 01               723 	push	ar1
   0425 8A 82               724 	mov	dpl,r2
   0427 8B 83               725 	mov	dph,r3
   0429 8C F0               726 	mov	b,r4
   042B ED                  727 	mov	a,r5
   042C 12s00r00            728 	lcall	___fsadd
   042F AA 82               729 	mov	r2,dpl
   0431 AB 83               730 	mov	r3,dph
   0433 AC F0               731 	mov	r4,b
   0435 FD                  732 	mov	r5,a
   0436 E5 81               733 	mov	a,sp
   0438 24 FC               734 	add	a,#0xfc
   043A F5 81               735 	mov	sp,a
   043C 90s00r0E            736 	mov	dptr,#_sincoshf_z_1_1
   043F EA                  737 	mov	a,r2
   0440 F0                  738 	movx	@dptr,a
   0441 A3                  739 	inc	dptr
   0442 EB                  740 	mov	a,r3
   0443 F0                  741 	movx	@dptr,a
   0444 A3                  742 	inc	dptr
   0445 EC                  743 	mov	a,r4
   0446 F0                  744 	movx	@dptr,a
   0447 A3                  745 	inc	dptr
   0448 ED                  746 	mov	a,r5
   0449 F0                  747 	movx	@dptr,a
   044A                     748 00119$:
                            749 ;	sincoshf.c:96: return z;
   044A 90s00r0E            750 	mov	dptr,#_sincoshf_z_1_1
   044D E0                  751 	movx	a,@dptr
   044E FA                  752 	mov	r2,a
   044F A3                  753 	inc	dptr
   0450 E0                  754 	movx	a,@dptr
   0451 FB                  755 	mov	r3,a
   0452 A3                  756 	inc	dptr
   0453 E0                  757 	movx	a,@dptr
   0454 FC                  758 	mov	r4,a
   0455 A3                  759 	inc	dptr
   0456 E0                  760 	movx	a,@dptr
   0457 8A 82               761 	mov	dpl,r2
   0459 8B 83               762 	mov	dph,r3
   045B 8C F0               763 	mov	b,r4
   045D 22                  764 	ret
                            765 	.area CSEG    (CODE)
                            766 	.area CONST   (CODE)
                            767 	.area XINIT   (CODE)
                            768 	.area CABS    (ABS,CODE)
