                              1 ;--------------------------------------------------------
                              2 ; File Created by SDCC : free open source ANSI-C Compiler
                              3 ; Version 3.0.1 #6227 (Oct  2 2015) (Linux)
                              4 ; This file was generated Fri Oct  2 17:15:21 2015
                              5 ;--------------------------------------------------------
                              6 	.module _fsadd
                              7 	.optsdcc -mhc08
                              8 	
                              9 	.area HOME (CODE)
                             10 	.area GSINIT0 (CODE)
                             11 	.area GSINIT (CODE)
                             12 	.area GSFINAL (CODE)
                             13 	.area CSEG (CODE)
                             14 	.area XINIT
                             15 	.area CONST   (CODE)
                             16 	.area DSEG
                             17 	.area OSEG    (OVR)
                             18 	.area BSEG
                             19 	.area XSEG
                             20 	.area XISEG
                             21 ;--------------------------------------------------------
                             22 ; Public variables in this module
                             23 ;--------------------------------------------------------
                             24 	.globl ___fsadd_PARM_2
                             25 	.globl ___fsadd_PARM_1
                             26 	.globl ___fsadd
                             27 ;--------------------------------------------------------
                             28 ;  ram data
                             29 ;--------------------------------------------------------
                             30 	.area DSEG
                             31 ;--------------------------------------------------------
                             32 ; overlayable items in  ram 
                             33 ;--------------------------------------------------------
                             34 	.area	OSEG    (OVR)
   0000                      35 ___fsadd_sloc0_1_0::
   0000                      36 	.ds 4
   0004                      37 ___fsadd_sloc1_1_0::
   0004                      38 	.ds 4
                             39 ;--------------------------------------------------------
                             40 ; absolute external ram data
                             41 ;--------------------------------------------------------
                             42 	.area XABS    (ABS)
                             43 ;--------------------------------------------------------
                             44 ; external initialized ram data
                             45 ;--------------------------------------------------------
                             46 	.area XISEG
                             47 ;--------------------------------------------------------
                             48 ; extended address mode data
                             49 ;--------------------------------------------------------
                             50 	.area XSEG
   0000                      51 ___fsadd_PARM_1:
   0000                      52 	.ds 4
   0004                      53 ___fsadd_PARM_2:
   0004                      54 	.ds 4
   0008                      55 ___fsadd_mant1_1_1:
   0008                      56 	.ds 4
   000C                      57 ___fsadd_mant2_1_1:
   000C                      58 	.ds 4
   0010                      59 ___fsadd_exp1_1_1:
   0010                      60 	.ds 2
   0012                      61 ___fsadd_exp2_1_1:
   0012                      62 	.ds 2
   0014                      63 ___fsadd_expd_1_1:
   0014                      64 	.ds 2
   0016                      65 ___fsadd_sign_1_1:
   0016                      66 	.ds 1
                             67 ;--------------------------------------------------------
                             68 ; global & static initialisations
                             69 ;--------------------------------------------------------
                             70 	.area HOME (CODE)
                             71 	.area GSINIT (CODE)
                             72 	.area GSFINAL (CODE)
                             73 	.area GSINIT (CODE)
                             74 ;--------------------------------------------------------
                             75 ; Home
                             76 ;--------------------------------------------------------
                             77 	.area HOME (CODE)
                             78 	.area HOME (CODE)
                             79 ;--------------------------------------------------------
                             80 ; code
                             81 ;--------------------------------------------------------
                             82 	.area CSEG (CODE)
                             83 ;------------------------------------------------------------
                             84 ;Allocation info for local variables in function '__fsadd'
                             85 ;------------------------------------------------------------
                             86 ;a1                        Allocated with name '___fsadd_PARM_1'
                             87 ;a2                        Allocated with name '___fsadd_PARM_2'
                             88 ;mant1                     Allocated with name '___fsadd_mant1_1_1'
                             89 ;mant2                     Allocated with name '___fsadd_mant2_1_1'
                             90 ;pfl1                      Allocated to registers 
                             91 ;pfl2                      Allocated to registers 
                             92 ;exp1                      Allocated with name '___fsadd_exp1_1_1'
                             93 ;exp2                      Allocated with name '___fsadd_exp2_1_1'
                             94 ;expd                      Allocated with name '___fsadd_expd_1_1'
                             95 ;sign                      Allocated with name '___fsadd_sign_1_1'
                             96 ;sloc0                     Allocated with name '___fsadd_sloc0_1_0'
                             97 ;sloc1                     Allocated with name '___fsadd_sloc1_1_0'
                             98 ;------------------------------------------------------------
                             99 ;../_fsadd.c:171: float __fsadd (float a1, float a2)
                            100 ;	-----------------------------------------
                            101 ;	 function __fsadd
                            102 ;	-----------------------------------------
   0000                     103 ___fsadd:
                            104 ;../_fsadd.c:179: pfl2 = (long _AUTOMEM *)&a2;
                            105 ;../_fsadd.c:180: exp2 = EXP (*pfl2);
   0000 C6s00r04            106 	lda	___fsadd_PARM_2
   0003 B7*00               107 	sta	*___fsadd_sloc0_1_0
   0005 C6s00r05            108 	lda	(___fsadd_PARM_2 + 1)
   0008 B7*01               109 	sta	*(___fsadd_sloc0_1_0 + 1)
   000A C6s00r06            110 	lda	(___fsadd_PARM_2 + 2)
   000D B7*02               111 	sta	*(___fsadd_sloc0_1_0 + 2)
   000F C6s00r07            112 	lda	(___fsadd_PARM_2 + 3)
   0012 B7*03               113 	sta	*(___fsadd_sloc0_1_0 + 3)
   0014 B6*01               114 	lda	*(___fsadd_sloc0_1_0 + 1)
   0016 BE*00               115 	ldx	*___fsadd_sloc0_1_0
   0018 48                  116 	lsla
   0019 9F                  117 	txa
   001A 49                  118 	rola
   001B 5F                  119 	clrx
   001C 59                  120 	rolx
   001D B7*03               121 	sta	*(___fsadd_sloc0_1_0 + 3)
   001F BF*02               122 	stx	*(___fsadd_sloc0_1_0 + 2)
   0021 3F*01               123 	clr	*(___fsadd_sloc0_1_0 + 1)
   0023 3F*00               124 	clr	*___fsadd_sloc0_1_0
   0025 3F*02               125 	clr	*(___fsadd_sloc0_1_0 + 2)
   0027 3F*01               126 	clr	*(___fsadd_sloc0_1_0 + 1)
   0029 3F*00               127 	clr	*___fsadd_sloc0_1_0
   002B B6*03               128 	lda	*(___fsadd_sloc0_1_0 + 3)
   002D C7s00r13            129 	sta	(___fsadd_exp2_1_1 + 1)
   0030 B6*02               130 	lda	*(___fsadd_sloc0_1_0 + 2)
   0032 C7s00r12            131 	sta	___fsadd_exp2_1_1
                            132 ;../_fsadd.c:181: mant2 = MANT (*pfl2) << 4;
   0035 C6s00r04            133 	lda	___fsadd_PARM_2
   0038 B7*00               134 	sta	*___fsadd_sloc0_1_0
   003A C6s00r05            135 	lda	(___fsadd_PARM_2 + 1)
   003D B7*01               136 	sta	*(___fsadd_sloc0_1_0 + 1)
   003F C6s00r06            137 	lda	(___fsadd_PARM_2 + 2)
   0042 B7*02               138 	sta	*(___fsadd_sloc0_1_0 + 2)
   0044 C6s00r07            139 	lda	(___fsadd_PARM_2 + 3)
   0047 B7*03               140 	sta	*(___fsadd_sloc0_1_0 + 3)
   0049 B6*01               141 	lda	*(___fsadd_sloc0_1_0 + 1)
   004B A4 7F               142 	and	#0x7F
   004D B7*01               143 	sta	*(___fsadd_sloc0_1_0 + 1)
   004F 3F*00               144 	clr	*___fsadd_sloc0_1_0
   0051 1E*01               145 	bset	#7,*(___fsadd_sloc0_1_0 + 1)
   0053 B6*01               146 	lda	*(___fsadd_sloc0_1_0 + 1)
   0055 BE*00               147 	ldx	*___fsadd_sloc0_1_0
   0057 48                  148 	lsla
   0058 59                  149 	rolx
   0059 48                  150 	lsla
   005A 59                  151 	rolx
   005B 48                  152 	lsla
   005C 59                  153 	rolx
   005D 48                  154 	lsla
   005E 59                  155 	rolx
   005F C7s00r0D            156 	sta	(___fsadd_mant2_1_1 + 1)
   0062 CFs00r0C            157 	stx	___fsadd_mant2_1_1
   0065 B6*02               158 	lda	*(___fsadd_sloc0_1_0 + 2)
   0067 62                  159 	nsa	
   0068 A4 0F               160 	and	#0x0f
   006A CAs00r0D            161 	ora	(___fsadd_mant2_1_1 + 1)
   006D C7s00r0D            162 	sta	(___fsadd_mant2_1_1 + 1)
   0070 B6*03               163 	lda	*(___fsadd_sloc0_1_0 + 3)
   0072 BE*02               164 	ldx	*(___fsadd_sloc0_1_0 + 2)
   0074 48                  165 	lsla
   0075 59                  166 	rolx
   0076 48                  167 	lsla
   0077 59                  168 	rolx
   0078 48                  169 	lsla
   0079 59                  170 	rolx
   007A 48                  171 	lsla
   007B 59                  172 	rolx
   007C C7s00r0F            173 	sta	(___fsadd_mant2_1_1 + 3)
   007F CFs00r0E            174 	stx	(___fsadd_mant2_1_1 + 2)
                            175 ;../_fsadd.c:182: if (SIGN (*pfl2))
   0082 C6s00r04            176 	lda	___fsadd_PARM_2
   0085 B7*00               177 	sta	*___fsadd_sloc0_1_0
   0087 C6s00r05            178 	lda	(___fsadd_PARM_2 + 1)
   008A B7*01               179 	sta	*(___fsadd_sloc0_1_0 + 1)
   008C C6s00r06            180 	lda	(___fsadd_PARM_2 + 2)
   008F B7*02               181 	sta	*(___fsadd_sloc0_1_0 + 2)
   0091 C6s00r07            182 	lda	(___fsadd_PARM_2 + 3)
   0094 B7*03               183 	sta	*(___fsadd_sloc0_1_0 + 3)
   0096 B6*00               184 	lda	*___fsadd_sloc0_1_0
   0098 49                  185 	rola
   0099 4F                  186 	clra
   009A 49                  187 	rola
   009B 4D                  188 	tsta
   009C 27 1C               189 	beq	00102$
   009E                     190 00164$:
                            191 ;../_fsadd.c:183: mant2 = -mant2;
   009E 4F                  192 	clra
   009F C0s00r0F            193 	sub	(___fsadd_mant2_1_1 + 3)
   00A2 C7s00r0F            194 	sta	(___fsadd_mant2_1_1 + 3)
   00A5 4F                  195 	clra
   00A6 C2s00r0E            196 	sbc	(___fsadd_mant2_1_1 + 2)
   00A9 C7s00r0E            197 	sta	(___fsadd_mant2_1_1 + 2)
   00AC 4F                  198 	clra
   00AD C2s00r0D            199 	sbc	(___fsadd_mant2_1_1 + 1)
   00B0 C7s00r0D            200 	sta	(___fsadd_mant2_1_1 + 1)
   00B3 4F                  201 	clra
   00B4 C2s00r0C            202 	sbc	___fsadd_mant2_1_1
   00B7 C7s00r0C            203 	sta	___fsadd_mant2_1_1
   00BA                     204 00102$:
                            205 ;../_fsadd.c:185: if (!*pfl2)
   00BA C6s00r04            206 	lda	___fsadd_PARM_2
   00BD B7*00               207 	sta	*___fsadd_sloc0_1_0
   00BF C6s00r05            208 	lda	(___fsadd_PARM_2 + 1)
   00C2 B7*01               209 	sta	*(___fsadd_sloc0_1_0 + 1)
   00C4 C6s00r06            210 	lda	(___fsadd_PARM_2 + 2)
   00C7 B7*02               211 	sta	*(___fsadd_sloc0_1_0 + 2)
   00C9 C6s00r07            212 	lda	(___fsadd_PARM_2 + 3)
   00CC B7*03               213 	sta	*(___fsadd_sloc0_1_0 + 3)
   00CE B6*03               214 	lda	*(___fsadd_sloc0_1_0 + 3)
   00D0 BA*02               215 	ora	*(___fsadd_sloc0_1_0 + 2)
   00D2 BA*01               216 	ora	*(___fsadd_sloc0_1_0 + 1)
   00D4 BA*00               217 	ora	*___fsadd_sloc0_1_0
   00D6 26 11               218 	bne	00104$
   00D8                     219 00165$:
                            220 ;../_fsadd.c:186: return (a1);
   00D8 C6s00r00            221 	lda	___fsadd_PARM_1
   00DB B7*00               222 	sta	*__ret3
   00DD C6s00r01            223 	lda	(___fsadd_PARM_1 + 1)
   00E0 B7*00               224 	sta	*__ret2
   00E2 CEs00r02            225 	ldx	(___fsadd_PARM_1 + 2)
   00E5 C6s00r03            226 	lda	(___fsadd_PARM_1 + 3)
   00E8 81                  227 	rts
   00E9                     228 00104$:
                            229 ;../_fsadd.c:188: pfl1 = (long _AUTOMEM *)&a1;
                            230 ;../_fsadd.c:189: exp1 = EXP (*pfl1);
   00E9 C6s00r00            231 	lda	___fsadd_PARM_1
   00EC B7*00               232 	sta	*___fsadd_sloc0_1_0
   00EE C6s00r01            233 	lda	(___fsadd_PARM_1 + 1)
   00F1 B7*01               234 	sta	*(___fsadd_sloc0_1_0 + 1)
   00F3 C6s00r02            235 	lda	(___fsadd_PARM_1 + 2)
   00F6 B7*02               236 	sta	*(___fsadd_sloc0_1_0 + 2)
   00F8 C6s00r03            237 	lda	(___fsadd_PARM_1 + 3)
   00FB B7*03               238 	sta	*(___fsadd_sloc0_1_0 + 3)
   00FD B6*01               239 	lda	*(___fsadd_sloc0_1_0 + 1)
   00FF BE*00               240 	ldx	*___fsadd_sloc0_1_0
   0101 48                  241 	lsla
   0102 9F                  242 	txa
   0103 49                  243 	rola
   0104 5F                  244 	clrx
   0105 59                  245 	rolx
   0106 B7*03               246 	sta	*(___fsadd_sloc0_1_0 + 3)
   0108 BF*02               247 	stx	*(___fsadd_sloc0_1_0 + 2)
   010A 3F*01               248 	clr	*(___fsadd_sloc0_1_0 + 1)
   010C 3F*00               249 	clr	*___fsadd_sloc0_1_0
   010E 3F*02               250 	clr	*(___fsadd_sloc0_1_0 + 2)
   0110 3F*01               251 	clr	*(___fsadd_sloc0_1_0 + 1)
   0112 3F*00               252 	clr	*___fsadd_sloc0_1_0
   0114 B6*03               253 	lda	*(___fsadd_sloc0_1_0 + 3)
   0116 C7s00r11            254 	sta	(___fsadd_exp1_1_1 + 1)
   0119 B6*02               255 	lda	*(___fsadd_sloc0_1_0 + 2)
   011B C7s00r10            256 	sta	___fsadd_exp1_1_1
                            257 ;../_fsadd.c:190: mant1 = MANT (*pfl1) << 4;
   011E C6s00r00            258 	lda	___fsadd_PARM_1
   0121 B7*00               259 	sta	*___fsadd_sloc0_1_0
   0123 C6s00r01            260 	lda	(___fsadd_PARM_1 + 1)
   0126 B7*01               261 	sta	*(___fsadd_sloc0_1_0 + 1)
   0128 C6s00r02            262 	lda	(___fsadd_PARM_1 + 2)
   012B B7*02               263 	sta	*(___fsadd_sloc0_1_0 + 2)
   012D C6s00r03            264 	lda	(___fsadd_PARM_1 + 3)
   0130 B7*03               265 	sta	*(___fsadd_sloc0_1_0 + 3)
   0132 B6*01               266 	lda	*(___fsadd_sloc0_1_0 + 1)
   0134 A4 7F               267 	and	#0x7F
   0136 B7*01               268 	sta	*(___fsadd_sloc0_1_0 + 1)
   0138 3F*00               269 	clr	*___fsadd_sloc0_1_0
   013A 1E*01               270 	bset	#7,*(___fsadd_sloc0_1_0 + 1)
   013C B6*01               271 	lda	*(___fsadd_sloc0_1_0 + 1)
   013E BE*00               272 	ldx	*___fsadd_sloc0_1_0
   0140 48                  273 	lsla
   0141 59                  274 	rolx
   0142 48                  275 	lsla
   0143 59                  276 	rolx
   0144 48                  277 	lsla
   0145 59                  278 	rolx
   0146 48                  279 	lsla
   0147 59                  280 	rolx
   0148 C7s00r09            281 	sta	(___fsadd_mant1_1_1 + 1)
   014B CFs00r08            282 	stx	___fsadd_mant1_1_1
   014E B6*02               283 	lda	*(___fsadd_sloc0_1_0 + 2)
   0150 62                  284 	nsa	
   0151 A4 0F               285 	and	#0x0f
   0153 CAs00r09            286 	ora	(___fsadd_mant1_1_1 + 1)
   0156 C7s00r09            287 	sta	(___fsadd_mant1_1_1 + 1)
   0159 B6*03               288 	lda	*(___fsadd_sloc0_1_0 + 3)
   015B BE*02               289 	ldx	*(___fsadd_sloc0_1_0 + 2)
   015D 48                  290 	lsla
   015E 59                  291 	rolx
   015F 48                  292 	lsla
   0160 59                  293 	rolx
   0161 48                  294 	lsla
   0162 59                  295 	rolx
   0163 48                  296 	lsla
   0164 59                  297 	rolx
   0165 C7s00r0B            298 	sta	(___fsadd_mant1_1_1 + 3)
   0168 CFs00r0A            299 	stx	(___fsadd_mant1_1_1 + 2)
                            300 ;../_fsadd.c:191: if (SIGN(*pfl1))
   016B C6s00r00            301 	lda	___fsadd_PARM_1
   016E B7*00               302 	sta	*___fsadd_sloc0_1_0
   0170 C6s00r01            303 	lda	(___fsadd_PARM_1 + 1)
   0173 B7*01               304 	sta	*(___fsadd_sloc0_1_0 + 1)
   0175 C6s00r02            305 	lda	(___fsadd_PARM_1 + 2)
   0178 B7*02               306 	sta	*(___fsadd_sloc0_1_0 + 2)
   017A C6s00r03            307 	lda	(___fsadd_PARM_1 + 3)
   017D B7*03               308 	sta	*(___fsadd_sloc0_1_0 + 3)
   017F B6*00               309 	lda	*___fsadd_sloc0_1_0
   0181 49                  310 	rola
   0182 4F                  311 	clra
   0183 49                  312 	rola
   0184 4D                  313 	tsta
   0185 27 36               314 	beq	00108$
   0187                     315 00166$:
                            316 ;../_fsadd.c:192: if (*pfl1 & 0x80000000)
   0187 C6s00r00            317 	lda	___fsadd_PARM_1
   018A B7*00               318 	sta	*___fsadd_sloc0_1_0
   018C C6s00r01            319 	lda	(___fsadd_PARM_1 + 1)
   018F B7*01               320 	sta	*(___fsadd_sloc0_1_0 + 1)
   0191 C6s00r02            321 	lda	(___fsadd_PARM_1 + 2)
   0194 B7*02               322 	sta	*(___fsadd_sloc0_1_0 + 2)
   0196 C6s00r03            323 	lda	(___fsadd_PARM_1 + 3)
   0199 B7*03               324 	sta	*(___fsadd_sloc0_1_0 + 3)
   019B B6*00               325 	lda	*___fsadd_sloc0_1_0
   019D A4 80               326 	and	#0x80
   019F 27 1C               327 	beq	00108$
   01A1                     328 00167$:
                            329 ;../_fsadd.c:193: mant1 = -mant1;
   01A1 4F                  330 	clra
   01A2 C0s00r0B            331 	sub	(___fsadd_mant1_1_1 + 3)
   01A5 C7s00r0B            332 	sta	(___fsadd_mant1_1_1 + 3)
   01A8 4F                  333 	clra
   01A9 C2s00r0A            334 	sbc	(___fsadd_mant1_1_1 + 2)
   01AC C7s00r0A            335 	sta	(___fsadd_mant1_1_1 + 2)
   01AF 4F                  336 	clra
   01B0 C2s00r09            337 	sbc	(___fsadd_mant1_1_1 + 1)
   01B3 C7s00r09            338 	sta	(___fsadd_mant1_1_1 + 1)
   01B6 4F                  339 	clra
   01B7 C2s00r08            340 	sbc	___fsadd_mant1_1_1
   01BA C7s00r08            341 	sta	___fsadd_mant1_1_1
   01BD                     342 00108$:
                            343 ;../_fsadd.c:195: if (!*pfl1)
   01BD C6s00r00            344 	lda	___fsadd_PARM_1
   01C0 B7*00               345 	sta	*___fsadd_sloc0_1_0
   01C2 C6s00r01            346 	lda	(___fsadd_PARM_1 + 1)
   01C5 B7*01               347 	sta	*(___fsadd_sloc0_1_0 + 1)
   01C7 C6s00r02            348 	lda	(___fsadd_PARM_1 + 2)
   01CA B7*02               349 	sta	*(___fsadd_sloc0_1_0 + 2)
   01CC C6s00r03            350 	lda	(___fsadd_PARM_1 + 3)
   01CF B7*03               351 	sta	*(___fsadd_sloc0_1_0 + 3)
   01D1 B6*03               352 	lda	*(___fsadd_sloc0_1_0 + 3)
   01D3 BA*02               353 	ora	*(___fsadd_sloc0_1_0 + 2)
   01D5 BA*01               354 	ora	*(___fsadd_sloc0_1_0 + 1)
   01D7 BA*00               355 	ora	*___fsadd_sloc0_1_0
   01D9 26 11               356 	bne	00110$
   01DB                     357 00168$:
                            358 ;../_fsadd.c:196: return (a2);
   01DB C6s00r04            359 	lda	___fsadd_PARM_2
   01DE B7*00               360 	sta	*__ret3
   01E0 C6s00r05            361 	lda	(___fsadd_PARM_2 + 1)
   01E3 B7*00               362 	sta	*__ret2
   01E5 CEs00r06            363 	ldx	(___fsadd_PARM_2 + 2)
   01E8 C6s00r07            364 	lda	(___fsadd_PARM_2 + 3)
   01EB 81                  365 	rts
   01EC                     366 00110$:
                            367 ;../_fsadd.c:198: expd = exp1 - exp2;
   01EC C6s00r11            368 	lda	(___fsadd_exp1_1_1 + 1)
   01EF C0s00r13            369 	sub	(___fsadd_exp2_1_1 + 1)
   01F2 C7s00r15            370 	sta	(___fsadd_expd_1_1 + 1)
   01F5 C6s00r10            371 	lda	___fsadd_exp1_1_1
   01F8 C2s00r12            372 	sbc	___fsadd_exp2_1_1
   01FB C7s00r14            373 	sta	___fsadd_expd_1_1
                            374 ;../_fsadd.c:199: if (expd > 25)
   01FE A6 19               375 	lda	#0x19
   0200 C0s00r15            376 	sub	(___fsadd_expd_1_1 + 1)
   0203 4F                  377 	clra
   0204 C2s00r14            378 	sbc	___fsadd_expd_1_1
   0207 90 11               379 	bge	00112$
   0209                     380 00169$:
                            381 ;../_fsadd.c:200: return (a1);
   0209 C6s00r00            382 	lda	___fsadd_PARM_1
   020C B7*00               383 	sta	*__ret3
   020E C6s00r01            384 	lda	(___fsadd_PARM_1 + 1)
   0211 B7*00               385 	sta	*__ret2
   0213 CEs00r02            386 	ldx	(___fsadd_PARM_1 + 2)
   0216 C6s00r03            387 	lda	(___fsadd_PARM_1 + 3)
   0219 81                  388 	rts
   021A                     389 00112$:
                            390 ;../_fsadd.c:201: if (expd < -25)
   021A C6s00r15            391 	lda	(___fsadd_expd_1_1 + 1)
   021D A0 E7               392 	sub	#0xE7
   021F C6s00r14            393 	lda	___fsadd_expd_1_1
   0222 A2 FF               394 	sbc	#0xFF
   0224 90 11               395 	bge	00114$
   0226                     396 00170$:
                            397 ;../_fsadd.c:202: return (a2);
   0226 C6s00r04            398 	lda	___fsadd_PARM_2
   0229 B7*00               399 	sta	*__ret3
   022B C6s00r05            400 	lda	(___fsadd_PARM_2 + 1)
   022E B7*00               401 	sta	*__ret2
   0230 CEs00r06            402 	ldx	(___fsadd_PARM_2 + 2)
   0233 C6s00r07            403 	lda	(___fsadd_PARM_2 + 3)
   0236 81                  404 	rts
   0237                     405 00114$:
                            406 ;../_fsadd.c:204: if (expd < 0)
   0237 C6s00r14            407 	lda	___fsadd_expd_1_1
   023A A0 00               408 	sub	#0x00
   023C 90 46               409 	bge	00116$
   023E                     410 00171$:
                            411 ;../_fsadd.c:206: expd = -expd;
   023E 4F                  412 	clra
   023F C0s00r15            413 	sub	(___fsadd_expd_1_1 + 1)
   0242 C7s00r15            414 	sta	(___fsadd_expd_1_1 + 1)
   0245 4F                  415 	clra
   0246 C2s00r14            416 	sbc	___fsadd_expd_1_1
   0249 C7s00r14            417 	sta	___fsadd_expd_1_1
                            418 ;../_fsadd.c:207: exp1 += expd;
   024C C6s00r11            419 	lda	(___fsadd_exp1_1_1 + 1)
   024F CBs00r15            420 	add	(___fsadd_expd_1_1 + 1)
   0252 C7s00r11            421 	sta	(___fsadd_exp1_1_1 + 1)
   0255 C6s00r10            422 	lda	___fsadd_exp1_1_1
   0258 C9s00r14            423 	adc	___fsadd_expd_1_1
   025B C7s00r10            424 	sta	___fsadd_exp1_1_1
                            425 ;../_fsadd.c:208: mant1 >>= expd;
   025E CEs00r15            426 	ldx	(___fsadd_expd_1_1 + 1)
   0261 27 1F               427 	beq	00173$
   0263                     428 00172$:
   0263 C6s00r08            429 	lda	___fsadd_mant1_1_1
   0266 47                  430 	asra
   0267 C7s00r08            431 	sta	___fsadd_mant1_1_1
   026A C6s00r09            432 	lda	(___fsadd_mant1_1_1 + 1)
   026D 46                  433 	rora
   026E C7s00r09            434 	sta	(___fsadd_mant1_1_1 + 1)
   0271 C6s00r0A            435 	lda	(___fsadd_mant1_1_1 + 2)
   0274 46                  436 	rora
   0275 C7s00r0A            437 	sta	(___fsadd_mant1_1_1 + 2)
   0278 C6s00r0B            438 	lda	(___fsadd_mant1_1_1 + 3)
   027B 46                  439 	rora
   027C C7s00r0B            440 	sta	(___fsadd_mant1_1_1 + 3)
   027F 5A                  441 	decx
   0280 26 E1               442 	bne	00172$
   0282                     443 00173$:
   0282 20 24               444 	bra	00117$
   0284                     445 00116$:
                            446 ;../_fsadd.c:212: mant2 >>= expd;
   0284 CEs00r15            447 	ldx	(___fsadd_expd_1_1 + 1)
   0287 27 1F               448 	beq	00175$
   0289                     449 00174$:
   0289 C6s00r0C            450 	lda	___fsadd_mant2_1_1
   028C 47                  451 	asra
   028D C7s00r0C            452 	sta	___fsadd_mant2_1_1
   0290 C6s00r0D            453 	lda	(___fsadd_mant2_1_1 + 1)
   0293 46                  454 	rora
   0294 C7s00r0D            455 	sta	(___fsadd_mant2_1_1 + 1)
   0297 C6s00r0E            456 	lda	(___fsadd_mant2_1_1 + 2)
   029A 46                  457 	rora
   029B C7s00r0E            458 	sta	(___fsadd_mant2_1_1 + 2)
   029E C6s00r0F            459 	lda	(___fsadd_mant2_1_1 + 3)
   02A1 46                  460 	rora
   02A2 C7s00r0F            461 	sta	(___fsadd_mant2_1_1 + 3)
   02A5 5A                  462 	decx
   02A6 26 E1               463 	bne	00174$
   02A8                     464 00175$:
   02A8                     465 00117$:
                            466 ;../_fsadd.c:214: mant1 += mant2;
   02A8 C6s00r0B            467 	lda	(___fsadd_mant1_1_1 + 3)
   02AB CBs00r0F            468 	add	(___fsadd_mant2_1_1 + 3)
   02AE C7s00r0B            469 	sta	(___fsadd_mant1_1_1 + 3)
   02B1 C6s00r0A            470 	lda	(___fsadd_mant1_1_1 + 2)
   02B4 C9s00r0E            471 	adc	(___fsadd_mant2_1_1 + 2)
   02B7 C7s00r0A            472 	sta	(___fsadd_mant1_1_1 + 2)
   02BA C6s00r09            473 	lda	(___fsadd_mant1_1_1 + 1)
   02BD C9s00r0D            474 	adc	(___fsadd_mant2_1_1 + 1)
   02C0 C7s00r09            475 	sta	(___fsadd_mant1_1_1 + 1)
   02C3 C6s00r08            476 	lda	___fsadd_mant1_1_1
   02C6 C9s00r0C            477 	adc	___fsadd_mant2_1_1
   02C9 C7s00r08            478 	sta	___fsadd_mant1_1_1
                            479 ;../_fsadd.c:216: sign = false;
   02CC 4F                  480 	clra
   02CD C7s00r16            481 	sta	___fsadd_sign_1_1
                            482 ;../_fsadd.c:218: if (mant1 < 0)
   02D0 C6s00r08            483 	lda	___fsadd_mant1_1_1
   02D3 A0 00               484 	sub	#0x00
   02D5 90 23               485 	bge	00121$
   02D7                     486 00176$:
                            487 ;../_fsadd.c:220: mant1 = -mant1;
   02D7 4F                  488 	clra
   02D8 C0s00r0B            489 	sub	(___fsadd_mant1_1_1 + 3)
   02DB C7s00r0B            490 	sta	(___fsadd_mant1_1_1 + 3)
   02DE 4F                  491 	clra
   02DF C2s00r0A            492 	sbc	(___fsadd_mant1_1_1 + 2)
   02E2 C7s00r0A            493 	sta	(___fsadd_mant1_1_1 + 2)
   02E5 4F                  494 	clra
   02E6 C2s00r09            495 	sbc	(___fsadd_mant1_1_1 + 1)
   02E9 C7s00r09            496 	sta	(___fsadd_mant1_1_1 + 1)
   02EC 4F                  497 	clra
   02ED C2s00r08            498 	sbc	___fsadd_mant1_1_1
   02F0 C7s00r08            499 	sta	___fsadd_mant1_1_1
                            500 ;../_fsadd.c:221: sign = true;
   02F3 A6 01               501 	lda	#0x01
   02F5 C7s00r16            502 	sta	___fsadd_sign_1_1
   02F8 20 15               503 	bra	00154$
   02FA                     504 00121$:
                            505 ;../_fsadd.c:223: else if (!mant1)
   02FA C6s00r0B            506 	lda	(___fsadd_mant1_1_1 + 3)
   02FD CAs00r0A            507 	ora	(___fsadd_mant1_1_1 + 2)
   0300 CAs00r09            508 	ora	(___fsadd_mant1_1_1 + 1)
   0303 CAs00r08            509 	ora	___fsadd_mant1_1_1
   0306 26 07               510 	bne	00154$
   0308                     511 00177$:
                            512 ;../_fsadd.c:224: return (0);
   0308 3F*00               513 	clr	*__ret3
   030A 3F*00               514 	clr	*__ret2
   030C 5F                  515 	clrx
   030D 4F                  516 	clra
   030E 81                  517 	rts
                            518 ;../_fsadd.c:227: while (mant1 < (HIDDEN<<4)) {
   030F                     519 00154$:
   030F C6s00r10            520 	lda	___fsadd_exp1_1_1
   0312 B7*00               521 	sta	*___fsadd_sloc0_1_0
   0314 C6s00r11            522 	lda	(___fsadd_exp1_1_1 + 1)
   0317 B7*01               523 	sta	*(___fsadd_sloc0_1_0 + 1)
   0319                     524 00123$:
   0319 C6s00r08            525 	lda	___fsadd_mant1_1_1
   031C B7*04               526 	sta	*___fsadd_sloc1_1_0
   031E C6s00r09            527 	lda	(___fsadd_mant1_1_1 + 1)
   0321 B7*05               528 	sta	*(___fsadd_sloc1_1_0 + 1)
   0323 C6s00r0A            529 	lda	(___fsadd_mant1_1_1 + 2)
   0326 B7*06               530 	sta	*(___fsadd_sloc1_1_0 + 2)
   0328 C6s00r0B            531 	lda	(___fsadd_mant1_1_1 + 3)
   032B B7*07               532 	sta	*(___fsadd_sloc1_1_0 + 3)
   032D B6*04               533 	lda	*___fsadd_sloc1_1_0
   032F A0 08               534 	sub	#0x08
   0331 24 2A               535 	bcc	00157$
   0333                     536 00178$:
                            537 ;../_fsadd.c:228: mant1 <<= 1;
   0333 C6s00r0B            538 	lda	(___fsadd_mant1_1_1 + 3)
   0336 CEs00r0A            539 	ldx	(___fsadd_mant1_1_1 + 2)
   0339 48                  540 	lsla
   033A 59                  541 	rolx
   033B C7s00r0B            542 	sta	(___fsadd_mant1_1_1 + 3)
   033E CFs00r0A            543 	stx	(___fsadd_mant1_1_1 + 2)
   0341 C6s00r09            544 	lda	(___fsadd_mant1_1_1 + 1)
   0344 CEs00r08            545 	ldx	___fsadd_mant1_1_1
   0347 49                  546 	rola
   0348 59                  547 	rolx
   0349 C7s00r09            548 	sta	(___fsadd_mant1_1_1 + 1)
   034C CFs00r08            549 	stx	___fsadd_mant1_1_1
                            550 ;../_fsadd.c:229: exp1--;
   034F B6*01               551 	lda	*(___fsadd_sloc0_1_0 + 1)
   0351 A0 01               552 	sub	#0x01
   0353 B7*01               553 	sta	*(___fsadd_sloc0_1_0 + 1)
   0355 B6*00               554 	lda	*___fsadd_sloc0_1_0
   0357 A2 00               555 	sbc	#0x00
   0359 B7*00               556 	sta	*___fsadd_sloc0_1_0
   035B 20 BC               557 	bra	00123$
                            558 ;../_fsadd.c:233: while (mant1 & 0xf0000000) {
   035D                     559 00157$:
   035D 4E*00*04            560 	mov	*___fsadd_sloc0_1_0,*___fsadd_sloc1_1_0
   0360 4E*01*05            561 	mov	*(___fsadd_sloc0_1_0 + 1),*(___fsadd_sloc1_1_0 + 1)
   0363                     562 00128$:
   0363 C6s00r08            563 	lda	___fsadd_mant1_1_1
   0366 A4 F0               564 	and	#0xF0
   0368 27 50               565 	beq	00163$
   036A                     566 00179$:
                            567 ;../_fsadd.c:234: if (mant1&1)
   036A C6s00r0B            568 	lda	(___fsadd_mant1_1_1 + 3)
   036D A4 01               569 	and	#0x01
   036F 26 00               570 	bne	00180$
   0371                     571 00180$:
   0371 27 23               572 	beq	00127$
   0373                     573 00181$:
                            574 ;../_fsadd.c:235: mant1 += 2;
   0373 C6s00r0B            575 	lda	(___fsadd_mant1_1_1 + 3)
   0376 AB 02               576 	add	#0x02
   0378 C7s00r0B            577 	sta	(___fsadd_mant1_1_1 + 3)
   037B 24 19               578 	bcc	00182$
   037D C6s00r0A            579 	lda	(___fsadd_mant1_1_1 + 2)
   0380 4C                  580 	inca
   0381 C7s00r0A            581 	sta	(___fsadd_mant1_1_1 + 2)
   0384 26 10               582 	bne	00182$
   0386 C6s00r09            583 	lda	(___fsadd_mant1_1_1 + 1)
   0389 4C                  584 	inca
   038A C7s00r09            585 	sta	(___fsadd_mant1_1_1 + 1)
   038D 26 07               586 	bne	00182$
   038F C6s00r08            587 	lda	___fsadd_mant1_1_1
   0392 4C                  588 	inca
   0393 C7s00r08            589 	sta	___fsadd_mant1_1_1
   0396                     590 00182$:
   0396                     591 00127$:
                            592 ;../_fsadd.c:236: mant1 >>= 1;
   0396 C6s00r09            593 	lda	(___fsadd_mant1_1_1 + 1)
   0399 CEs00r08            594 	ldx	___fsadd_mant1_1_1
   039C 57                  595 	asrx
   039D 46                  596 	rora
   039E C7s00r09            597 	sta	(___fsadd_mant1_1_1 + 1)
   03A1 CFs00r08            598 	stx	___fsadd_mant1_1_1
   03A4 C6s00r0B            599 	lda	(___fsadd_mant1_1_1 + 3)
   03A7 CEs00r0A            600 	ldx	(___fsadd_mant1_1_1 + 2)
   03AA 56                  601 	rorx
   03AB 46                  602 	rora
   03AC C7s00r0B            603 	sta	(___fsadd_mant1_1_1 + 3)
   03AF CFs00r0A            604 	stx	(___fsadd_mant1_1_1 + 2)
                            605 ;../_fsadd.c:237: exp1++;
   03B2 55*04               606 	ldhx	*___fsadd_sloc1_1_0
   03B4 AF 01               607 	aix	#1
   03B6 35*04               608 	sthx	*___fsadd_sloc1_1_0
   03B8 20 A9               609 	bra	00128$
   03BA                     610 00163$:
   03BA B6*04               611 	lda	*___fsadd_sloc1_1_0
   03BC C7s00r10            612 	sta	___fsadd_exp1_1_1
   03BF B6*05               613 	lda	*(___fsadd_sloc1_1_0 + 1)
   03C1 C7s00r11            614 	sta	(___fsadd_exp1_1_1 + 1)
                            615 ;../_fsadd.c:241: mant1 &= ~(HIDDEN<<4);
   03C4 C6s00r08            616 	lda	___fsadd_mant1_1_1
   03C7 A4 F7               617 	and	#0xF7
   03C9 C7s00r08            618 	sta	___fsadd_mant1_1_1
                            619 ;../_fsadd.c:244: if (exp1 >= 0x100)
   03CC 55*04               620 	ldhx	*___fsadd_sloc1_1_0
   03CE 65 01 00            621 	cphx	#0x0100
   03D1 91 32               622 	blt	00135$
   03D3                     623 00183$:
                            624 ;../_fsadd.c:245: *pfl1 = (sign ? (SIGNBIT | __INFINITY) : __INFINITY);
   03D3 C6s00r16            625 	lda	___fsadd_sign_1_1
   03D6 27 0C               626 	beq	00139$
   03D8                     627 00184$:
   03D8 6E FF*00            628 	mov	#0xFF,*___fsadd_sloc0_1_0
   03DB 6E 80*01            629 	mov	#0x80,*(___fsadd_sloc0_1_0 + 1)
   03DE 3F*02               630 	clr	*(___fsadd_sloc0_1_0 + 2)
   03E0 3F*03               631 	clr	*(___fsadd_sloc0_1_0 + 3)
   03E2 20 0A               632 	bra	00140$
   03E4                     633 00139$:
   03E4 6E 7F*00            634 	mov	#0x7F,*___fsadd_sloc0_1_0
   03E7 6E 80*01            635 	mov	#0x80,*(___fsadd_sloc0_1_0 + 1)
   03EA 3F*02               636 	clr	*(___fsadd_sloc0_1_0 + 2)
   03EC 3F*03               637 	clr	*(___fsadd_sloc0_1_0 + 3)
   03EE                     638 00140$:
   03EE B6*00               639 	lda	*___fsadd_sloc0_1_0
   03F0 C7s00r00            640 	sta	___fsadd_PARM_1
   03F3 B6*01               641 	lda	*(___fsadd_sloc0_1_0 + 1)
   03F5 C7s00r01            642 	sta	(___fsadd_PARM_1 + 1)
   03F8 B6*02               643 	lda	*(___fsadd_sloc0_1_0 + 2)
   03FA C7s00r02            644 	sta	(___fsadd_PARM_1 + 2)
   03FD B6*03               645 	lda	*(___fsadd_sloc0_1_0 + 3)
   03FF C7s00r03            646 	sta	(___fsadd_PARM_1 + 3)
   0402 CCs04rCC            647 	jmp	00136$
   0405                     648 00135$:
                            649 ;../_fsadd.c:246: else if (exp1 < 0)
   0405 55*04               650 	ldhx	*___fsadd_sloc1_1_0
   0407 65 00 00            651 	cphx	#0x0000
   040A 90 10               652 	bge	00132$
   040C                     653 00185$:
                            654 ;../_fsadd.c:247: *pfl1 = 0;
   040C 4F                  655 	clra
   040D C7s00r00            656 	sta	___fsadd_PARM_1
   0410 C7s00r01            657 	sta	(___fsadd_PARM_1 + 1)
   0413 C7s00r02            658 	sta	(___fsadd_PARM_1 + 2)
   0416 C7s00r03            659 	sta	(___fsadd_PARM_1 + 3)
   0419 CCs04rCC            660 	jmp	00136$
   041C                     661 00132$:
                            662 ;../_fsadd.c:249: *pfl1 = PACK (sign ? SIGNBIT : 0 , exp1, mant1>>4);
   041C C6s00r16            663 	lda	___fsadd_sign_1_1
   041F 27 0B               664 	beq	00141$
   0421                     665 00186$:
   0421 6E 80*04            666 	mov	#0x80,*___fsadd_sloc1_1_0
   0424 3F*05               667 	clr	*(___fsadd_sloc1_1_0 + 1)
   0426 3F*06               668 	clr	*(___fsadd_sloc1_1_0 + 2)
   0428 3F*07               669 	clr	*(___fsadd_sloc1_1_0 + 3)
   042A 20 08               670 	bra	00142$
   042C                     671 00141$:
   042C 3F*04               672 	clr	*___fsadd_sloc1_1_0
   042E 3F*05               673 	clr	*(___fsadd_sloc1_1_0 + 1)
   0430 3F*06               674 	clr	*(___fsadd_sloc1_1_0 + 2)
   0432 3F*07               675 	clr	*(___fsadd_sloc1_1_0 + 3)
   0434                     676 00142$:
   0434 C6s00r11            677 	lda	(___fsadd_exp1_1_1 + 1)
   0437 B7*03               678 	sta	*(___fsadd_sloc0_1_0 + 3)
   0439 C6s00r10            679 	lda	___fsadd_exp1_1_1
   043C B7*02               680 	sta	*(___fsadd_sloc0_1_0 + 2)
   043E C6s00r10            681 	lda	___fsadd_exp1_1_1
   0441 49                  682 	rola	
   0442 4F                  683 	clra	
   0443 A2 00               684 	sbc	#0x00
   0445 B7*01               685 	sta	*(___fsadd_sloc0_1_0 + 1)
   0447 B7*00               686 	sta	*___fsadd_sloc0_1_0
   0449 B6*03               687 	lda	*(___fsadd_sloc0_1_0 + 3)
   044B BE*02               688 	ldx	*(___fsadd_sloc0_1_0 + 2)
   044D 54                  689 	lsrx
   044E 46                  690 	rora
   044F 97                  691 	tax
   0450 4F                  692 	clra
   0451 46                  693 	rora
   0452 B7*01               694 	sta	*(___fsadd_sloc0_1_0 + 1)
   0454 BF*00               695 	stx	*___fsadd_sloc0_1_0
   0456 3F*03               696 	clr	*(___fsadd_sloc0_1_0 + 3)
   0458 3F*02               697 	clr	*(___fsadd_sloc0_1_0 + 2)
   045A B6*07               698 	lda	*(___fsadd_sloc1_1_0 + 3)
   045C BA*03               699 	ora	*(___fsadd_sloc0_1_0 + 3)
   045E B7*07               700 	sta	*(___fsadd_sloc1_1_0 + 3)
   0460 B6*06               701 	lda	*(___fsadd_sloc1_1_0 + 2)
   0462 BA*02               702 	ora	*(___fsadd_sloc0_1_0 + 2)
   0464 B7*06               703 	sta	*(___fsadd_sloc1_1_0 + 2)
   0466 B6*05               704 	lda	*(___fsadd_sloc1_1_0 + 1)
   0468 BA*01               705 	ora	*(___fsadd_sloc0_1_0 + 1)
   046A B7*05               706 	sta	*(___fsadd_sloc1_1_0 + 1)
   046C B6*04               707 	lda	*___fsadd_sloc1_1_0
   046E BA*00               708 	ora	*___fsadd_sloc0_1_0
   0470 B7*04               709 	sta	*___fsadd_sloc1_1_0
   0472 C6s00r0B            710 	lda	(___fsadd_mant1_1_1 + 3)
   0475 CEs00r0A            711 	ldx	(___fsadd_mant1_1_1 + 2)
   0478 54                  712 	lsrx
   0479 46                  713 	rora
   047A 54                  714 	lsrx
   047B 46                  715 	rora
   047C 54                  716 	lsrx
   047D 46                  717 	rora
   047E 54                  718 	lsrx
   047F 46                  719 	rora
   0480 B7*03               720 	sta	*(___fsadd_sloc0_1_0 + 3)
   0482 BF*02               721 	stx	*(___fsadd_sloc0_1_0 + 2)
   0484 C6s00r09            722 	lda	(___fsadd_mant1_1_1 + 1)
   0487 62                  723 	nsa	
   0488 A4 F0               724 	and	#0xf0
   048A BA*02               725 	ora	*(___fsadd_sloc0_1_0 + 2)
   048C B7*02               726 	sta	*(___fsadd_sloc0_1_0 + 2)
   048E C6s00r09            727 	lda	(___fsadd_mant1_1_1 + 1)
   0491 CEs00r08            728 	ldx	___fsadd_mant1_1_1
   0494 57                  729 	asrx
   0495 46                  730 	rora
   0496 57                  731 	asrx
   0497 46                  732 	rora
   0498 57                  733 	asrx
   0499 46                  734 	rora
   049A 57                  735 	asrx
   049B 46                  736 	rora
   049C B7*01               737 	sta	*(___fsadd_sloc0_1_0 + 1)
   049E BF*00               738 	stx	*___fsadd_sloc0_1_0
   04A0 B6*07               739 	lda	*(___fsadd_sloc1_1_0 + 3)
   04A2 BA*03               740 	ora	*(___fsadd_sloc0_1_0 + 3)
   04A4 B7*07               741 	sta	*(___fsadd_sloc1_1_0 + 3)
   04A6 B6*06               742 	lda	*(___fsadd_sloc1_1_0 + 2)
   04A8 BA*02               743 	ora	*(___fsadd_sloc0_1_0 + 2)
   04AA B7*06               744 	sta	*(___fsadd_sloc1_1_0 + 2)
   04AC B6*05               745 	lda	*(___fsadd_sloc1_1_0 + 1)
   04AE BA*01               746 	ora	*(___fsadd_sloc0_1_0 + 1)
   04B0 B7*05               747 	sta	*(___fsadd_sloc1_1_0 + 1)
   04B2 B6*04               748 	lda	*___fsadd_sloc1_1_0
   04B4 BA*00               749 	ora	*___fsadd_sloc0_1_0
   04B6 B7*04               750 	sta	*___fsadd_sloc1_1_0
   04B8 B6*04               751 	lda	*___fsadd_sloc1_1_0
   04BA C7s00r00            752 	sta	___fsadd_PARM_1
   04BD B6*05               753 	lda	*(___fsadd_sloc1_1_0 + 1)
   04BF C7s00r01            754 	sta	(___fsadd_PARM_1 + 1)
   04C2 B6*06               755 	lda	*(___fsadd_sloc1_1_0 + 2)
   04C4 C7s00r02            756 	sta	(___fsadd_PARM_1 + 2)
   04C7 B6*07               757 	lda	*(___fsadd_sloc1_1_0 + 3)
   04C9 C7s00r03            758 	sta	(___fsadd_PARM_1 + 3)
   04CC                     759 00136$:
                            760 ;../_fsadd.c:250: return (a1);
   04CC C6s00r00            761 	lda	___fsadd_PARM_1
   04CF B7*00               762 	sta	*__ret3
   04D1 C6s00r01            763 	lda	(___fsadd_PARM_1 + 1)
   04D4 B7*00               764 	sta	*__ret2
   04D6 CEs00r02            765 	ldx	(___fsadd_PARM_1 + 2)
   04D9 C6s00r03            766 	lda	(___fsadd_PARM_1 + 3)
   04DC                     767 00137$:
   04DC 81                  768 	rts
                            769 	.area CSEG (CODE)
                            770 	.area CONST   (CODE)
                            771 	.area XINIT
                            772 	.area CABS    (ABS,CODE)
