                              1 ;--------------------------------------------------------
                              2 ; File Created by SDCC : free open source ANSI-C Compiler
                              3 ; Version 3.0.1 #6227 (Oct  2 2015) (Linux)
                              4 ; This file was generated Fri Oct  2 17:15:21 2015
                              5 ;--------------------------------------------------------
                              6 	.module _fsdiv
                              7 	.optsdcc -mhc08
                              8 	
                              9 	.area HOME (CODE)
                             10 	.area GSINIT0 (CODE)
                             11 	.area GSINIT (CODE)
                             12 	.area GSFINAL (CODE)
                             13 	.area CSEG (CODE)
                             14 	.area XINIT
                             15 	.area CONST   (CODE)
                             16 	.area DSEG
                             17 	.area OSEG    (OVR)
                             18 	.area BSEG
                             19 	.area XSEG
                             20 	.area XISEG
                             21 ;--------------------------------------------------------
                             22 ; Public variables in this module
                             23 ;--------------------------------------------------------
                             24 	.globl ___fsdiv_PARM_2
                             25 	.globl ___fsdiv_PARM_1
                             26 	.globl ___fsdiv
                             27 ;--------------------------------------------------------
                             28 ;  ram data
                             29 ;--------------------------------------------------------
                             30 	.area DSEG
                             31 ;--------------------------------------------------------
                             32 ; overlayable items in  ram 
                             33 ;--------------------------------------------------------
                             34 	.area	OSEG    (OVR)
   0000                      35 ___fsdiv_sloc0_1_0::
   0000                      36 	.ds 4
   0004                      37 ___fsdiv_sloc1_1_0::
   0004                      38 	.ds 4
                             39 ;--------------------------------------------------------
                             40 ; absolute external ram data
                             41 ;--------------------------------------------------------
                             42 	.area XABS    (ABS)
                             43 ;--------------------------------------------------------
                             44 ; external initialized ram data
                             45 ;--------------------------------------------------------
                             46 	.area XISEG
                             47 ;--------------------------------------------------------
                             48 ; extended address mode data
                             49 ;--------------------------------------------------------
                             50 	.area XSEG
   0000                      51 ___fsdiv_PARM_1:
   0000                      52 	.ds 4
   0004                      53 ___fsdiv_PARM_2:
   0004                      54 	.ds 4
   0008                      55 ___fsdiv_fl1_1_1:
   0008                      56 	.ds 4
   000C                      57 ___fsdiv_fl2_1_1:
   000C                      58 	.ds 4
   0010                      59 ___fsdiv_result_1_1:
   0010                      60 	.ds 4
   0014                      61 ___fsdiv_mask_1_1:
   0014                      62 	.ds 4
   0018                      63 ___fsdiv_mant1_1_1:
   0018                      64 	.ds 4
   001C                      65 ___fsdiv_mant2_1_1:
   001C                      66 	.ds 4
   0020                      67 ___fsdiv_exp_1_1:
   0020                      68 	.ds 2
   0022                      69 ___fsdiv_sign_1_1:
   0022                      70 	.ds 1
                             71 ;--------------------------------------------------------
                             72 ; global & static initialisations
                             73 ;--------------------------------------------------------
                             74 	.area HOME (CODE)
                             75 	.area GSINIT (CODE)
                             76 	.area GSFINAL (CODE)
                             77 	.area GSINIT (CODE)
                             78 ;--------------------------------------------------------
                             79 ; Home
                             80 ;--------------------------------------------------------
                             81 	.area HOME (CODE)
                             82 	.area HOME (CODE)
                             83 ;--------------------------------------------------------
                             84 ; code
                             85 ;--------------------------------------------------------
                             86 	.area CSEG (CODE)
                             87 ;------------------------------------------------------------
                             88 ;Allocation info for local variables in function '__fsdiv'
                             89 ;------------------------------------------------------------
                             90 ;a1                        Allocated with name '___fsdiv_PARM_1'
                             91 ;a2                        Allocated with name '___fsdiv_PARM_2'
                             92 ;fl1                       Allocated with name '___fsdiv_fl1_1_1'
                             93 ;fl2                       Allocated with name '___fsdiv_fl2_1_1'
                             94 ;result                    Allocated with name '___fsdiv_result_1_1'
                             95 ;mask                      Allocated with name '___fsdiv_mask_1_1'
                             96 ;mant1                     Allocated with name '___fsdiv_mant1_1_1'
                             97 ;mant2                     Allocated with name '___fsdiv_mant2_1_1'
                             98 ;exp                       Allocated with name '___fsdiv_exp_1_1'
                             99 ;sign                      Allocated with name '___fsdiv_sign_1_1'
                            100 ;sloc0                     Allocated with name '___fsdiv_sloc0_1_0'
                            101 ;sloc1                     Allocated with name '___fsdiv_sloc1_1_0'
                            102 ;------------------------------------------------------------
                            103 ;../_fsdiv.c:274: float __fsdiv (float a1, float a2)
                            104 ;	-----------------------------------------
                            105 ;	 function __fsdiv
                            106 ;	-----------------------------------------
   0000                     107 ___fsdiv:
                            108 ;../_fsdiv.c:283: fl1.f = a1;
   0000 C6s00r00            109 	lda	___fsdiv_PARM_1
   0003 C7s00r08            110 	sta	___fsdiv_fl1_1_1
   0006 C6s00r01            111 	lda	(___fsdiv_PARM_1 + 1)
   0009 C7s00r09            112 	sta	(___fsdiv_fl1_1_1 + 1)
   000C C6s00r02            113 	lda	(___fsdiv_PARM_1 + 2)
   000F C7s00r0A            114 	sta	(___fsdiv_fl1_1_1 + 2)
   0012 C6s00r03            115 	lda	(___fsdiv_PARM_1 + 3)
   0015 C7s00r0B            116 	sta	(___fsdiv_fl1_1_1 + 3)
                            117 ;../_fsdiv.c:284: fl2.f = a2;
   0018 C6s00r04            118 	lda	___fsdiv_PARM_2
   001B C7s00r0C            119 	sta	___fsdiv_fl2_1_1
   001E C6s00r05            120 	lda	(___fsdiv_PARM_2 + 1)
   0021 C7s00r0D            121 	sta	(___fsdiv_fl2_1_1 + 1)
   0024 C6s00r06            122 	lda	(___fsdiv_PARM_2 + 2)
   0027 C7s00r0E            123 	sta	(___fsdiv_fl2_1_1 + 2)
   002A C6s00r07            124 	lda	(___fsdiv_PARM_2 + 3)
   002D C7s00r0F            125 	sta	(___fsdiv_fl2_1_1 + 3)
                            126 ;../_fsdiv.c:287: exp = EXP (fl1.l) ;
   0030 C6s00r08            127 	lda	___fsdiv_fl1_1_1
   0033 B7*00               128 	sta	*___fsdiv_sloc0_1_0
   0035 C6s00r09            129 	lda	(___fsdiv_fl1_1_1 + 1)
   0038 B7*01               130 	sta	*(___fsdiv_sloc0_1_0 + 1)
   003A C6s00r0A            131 	lda	(___fsdiv_fl1_1_1 + 2)
   003D B7*02               132 	sta	*(___fsdiv_sloc0_1_0 + 2)
   003F C6s00r0B            133 	lda	(___fsdiv_fl1_1_1 + 3)
   0042 B7*03               134 	sta	*(___fsdiv_sloc0_1_0 + 3)
   0044 B6*01               135 	lda	*(___fsdiv_sloc0_1_0 + 1)
   0046 BE*00               136 	ldx	*___fsdiv_sloc0_1_0
   0048 48                  137 	lsla
   0049 9F                  138 	txa
   004A 49                  139 	rola
   004B 5F                  140 	clrx
   004C 59                  141 	rolx
   004D B7*03               142 	sta	*(___fsdiv_sloc0_1_0 + 3)
   004F BF*02               143 	stx	*(___fsdiv_sloc0_1_0 + 2)
   0051 3F*01               144 	clr	*(___fsdiv_sloc0_1_0 + 1)
   0053 3F*00               145 	clr	*___fsdiv_sloc0_1_0
   0055 3F*02               146 	clr	*(___fsdiv_sloc0_1_0 + 2)
   0057 3F*01               147 	clr	*(___fsdiv_sloc0_1_0 + 1)
   0059 3F*00               148 	clr	*___fsdiv_sloc0_1_0
   005B B6*03               149 	lda	*(___fsdiv_sloc0_1_0 + 3)
   005D C7s00r21            150 	sta	(___fsdiv_exp_1_1 + 1)
   0060 B6*02               151 	lda	*(___fsdiv_sloc0_1_0 + 2)
   0062 C7s00r20            152 	sta	___fsdiv_exp_1_1
                            153 ;../_fsdiv.c:288: exp -= EXP (fl2.l);
   0065 C6s00r0C            154 	lda	___fsdiv_fl2_1_1
   0068 B7*00               155 	sta	*___fsdiv_sloc0_1_0
   006A C6s00r0D            156 	lda	(___fsdiv_fl2_1_1 + 1)
   006D B7*01               157 	sta	*(___fsdiv_sloc0_1_0 + 1)
   006F C6s00r0E            158 	lda	(___fsdiv_fl2_1_1 + 2)
   0072 B7*02               159 	sta	*(___fsdiv_sloc0_1_0 + 2)
   0074 C6s00r0F            160 	lda	(___fsdiv_fl2_1_1 + 3)
   0077 B7*03               161 	sta	*(___fsdiv_sloc0_1_0 + 3)
   0079 B6*01               162 	lda	*(___fsdiv_sloc0_1_0 + 1)
   007B BE*00               163 	ldx	*___fsdiv_sloc0_1_0
   007D 48                  164 	lsla
   007E 9F                  165 	txa
   007F 49                  166 	rola
   0080 5F                  167 	clrx
   0081 59                  168 	rolx
   0082 B7*03               169 	sta	*(___fsdiv_sloc0_1_0 + 3)
   0084 BF*02               170 	stx	*(___fsdiv_sloc0_1_0 + 2)
   0086 3F*01               171 	clr	*(___fsdiv_sloc0_1_0 + 1)
   0088 3F*00               172 	clr	*___fsdiv_sloc0_1_0
   008A 3F*02               173 	clr	*(___fsdiv_sloc0_1_0 + 2)
   008C 3F*01               174 	clr	*(___fsdiv_sloc0_1_0 + 1)
   008E 3F*00               175 	clr	*___fsdiv_sloc0_1_0
   0090 C6s00r21            176 	lda	(___fsdiv_exp_1_1 + 1)
   0093 B7*07               177 	sta	*(___fsdiv_sloc1_1_0 + 3)
   0095 C6s00r20            178 	lda	___fsdiv_exp_1_1
   0098 B7*06               179 	sta	*(___fsdiv_sloc1_1_0 + 2)
   009A C6s00r20            180 	lda	___fsdiv_exp_1_1
   009D 49                  181 	rola	
   009E 4F                  182 	clra	
   009F A2 00               183 	sbc	#0x00
   00A1 B7*05               184 	sta	*(___fsdiv_sloc1_1_0 + 1)
   00A3 B7*04               185 	sta	*___fsdiv_sloc1_1_0
   00A5 B6*07               186 	lda	*(___fsdiv_sloc1_1_0 + 3)
   00A7 B0*03               187 	sub	*(___fsdiv_sloc0_1_0 + 3)
   00A9 B7*07               188 	sta	*(___fsdiv_sloc1_1_0 + 3)
   00AB B6*06               189 	lda	*(___fsdiv_sloc1_1_0 + 2)
   00AD B2*02               190 	sbc	*(___fsdiv_sloc0_1_0 + 2)
   00AF B7*06               191 	sta	*(___fsdiv_sloc1_1_0 + 2)
   00B1 B6*05               192 	lda	*(___fsdiv_sloc1_1_0 + 1)
   00B3 B2*01               193 	sbc	*(___fsdiv_sloc0_1_0 + 1)
   00B5 B7*05               194 	sta	*(___fsdiv_sloc1_1_0 + 1)
   00B7 B6*04               195 	lda	*___fsdiv_sloc1_1_0
   00B9 B2*00               196 	sbc	*___fsdiv_sloc0_1_0
   00BB B7*04               197 	sta	*___fsdiv_sloc1_1_0
   00BD B6*07               198 	lda	*(___fsdiv_sloc1_1_0 + 3)
   00BF C7s00r21            199 	sta	(___fsdiv_exp_1_1 + 1)
   00C2 B6*06               200 	lda	*(___fsdiv_sloc1_1_0 + 2)
   00C4 C7s00r20            201 	sta	___fsdiv_exp_1_1
                            202 ;../_fsdiv.c:289: exp += EXCESS;
   00C7 C6s00r21            203 	lda	(___fsdiv_exp_1_1 + 1)
   00CA AB 7E               204 	add	#0x7E
   00CC C7s00r21            205 	sta	(___fsdiv_exp_1_1 + 1)
   00CF 24 07               206 	bcc	00134$
   00D1 C6s00r20            207 	lda	___fsdiv_exp_1_1
   00D4 4C                  208 	inca
   00D5 C7s00r20            209 	sta	___fsdiv_exp_1_1
   00D8                     210 00134$:
                            211 ;../_fsdiv.c:292: sign = SIGN (fl1.l) ^ SIGN (fl2.l);
   00D8 C6s00r08            212 	lda	___fsdiv_fl1_1_1
   00DB B7*04               213 	sta	*___fsdiv_sloc1_1_0
   00DD C6s00r09            214 	lda	(___fsdiv_fl1_1_1 + 1)
   00E0 B7*05               215 	sta	*(___fsdiv_sloc1_1_0 + 1)
   00E2 C6s00r0A            216 	lda	(___fsdiv_fl1_1_1 + 2)
   00E5 B7*06               217 	sta	*(___fsdiv_sloc1_1_0 + 2)
   00E7 C6s00r0B            218 	lda	(___fsdiv_fl1_1_1 + 3)
   00EA B7*07               219 	sta	*(___fsdiv_sloc1_1_0 + 3)
   00EC B6*04               220 	lda	*___fsdiv_sloc1_1_0
   00EE 49                  221 	rola
   00EF 4F                  222 	clra
   00F0 49                  223 	rola
   00F1 B7*04               224 	sta	*___fsdiv_sloc1_1_0
   00F3 C6s00r0C            225 	lda	___fsdiv_fl2_1_1
   00F6 B7*00               226 	sta	*___fsdiv_sloc0_1_0
   00F8 C6s00r0D            227 	lda	(___fsdiv_fl2_1_1 + 1)
   00FB B7*01               228 	sta	*(___fsdiv_sloc0_1_0 + 1)
   00FD C6s00r0E            229 	lda	(___fsdiv_fl2_1_1 + 2)
   0100 B7*02               230 	sta	*(___fsdiv_sloc0_1_0 + 2)
   0102 C6s00r0F            231 	lda	(___fsdiv_fl2_1_1 + 3)
   0105 B7*03               232 	sta	*(___fsdiv_sloc0_1_0 + 3)
   0107 B6*00               233 	lda	*___fsdiv_sloc0_1_0
   0109 49                  234 	rola
   010A 4F                  235 	clra
   010B 49                  236 	rola
   010C B8*04               237 	eor	*___fsdiv_sloc1_1_0
   010E C7s00r22            238 	sta	___fsdiv_sign_1_1
                            239 ;../_fsdiv.c:295: if (!fl2.l)
   0111 C6s00r0C            240 	lda	___fsdiv_fl2_1_1
   0114 B7*04               241 	sta	*___fsdiv_sloc1_1_0
   0116 C6s00r0D            242 	lda	(___fsdiv_fl2_1_1 + 1)
   0119 B7*05               243 	sta	*(___fsdiv_sloc1_1_0 + 1)
   011B C6s00r0E            244 	lda	(___fsdiv_fl2_1_1 + 2)
   011E B7*06               245 	sta	*(___fsdiv_sloc1_1_0 + 2)
   0120 C6s00r0F            246 	lda	(___fsdiv_fl2_1_1 + 3)
   0123 B7*07               247 	sta	*(___fsdiv_sloc1_1_0 + 3)
   0125 B6*07               248 	lda	*(___fsdiv_sloc1_1_0 + 3)
   0127 BA*06               249 	ora	*(___fsdiv_sloc1_1_0 + 2)
   0129 BA*05               250 	ora	*(___fsdiv_sloc1_1_0 + 1)
   012B BA*04               251 	ora	*___fsdiv_sloc1_1_0
   012D 26 30               252 	bne	00102$
   012F                     253 00135$:
                            254 ;../_fsdiv.c:297: fl2.l = 0x7FC00000;
   012F A6 7F               255 	lda	#0x7F
   0131 C7s00r0C            256 	sta	___fsdiv_fl2_1_1
   0134 A6 C0               257 	lda	#0xC0
   0136 C7s00r0D            258 	sta	(___fsdiv_fl2_1_1 + 1)
   0139 4F                  259 	clra
   013A C7s00r0E            260 	sta	(___fsdiv_fl2_1_1 + 2)
   013D C7s00r0F            261 	sta	(___fsdiv_fl2_1_1 + 3)
                            262 ;../_fsdiv.c:298: return (fl2.f);
   0140 C6s00r0C            263 	lda	___fsdiv_fl2_1_1
   0143 B7*04               264 	sta	*___fsdiv_sloc1_1_0
   0145 C6s00r0D            265 	lda	(___fsdiv_fl2_1_1 + 1)
   0148 B7*05               266 	sta	*(___fsdiv_sloc1_1_0 + 1)
   014A C6s00r0E            267 	lda	(___fsdiv_fl2_1_1 + 2)
   014D B7*06               268 	sta	*(___fsdiv_sloc1_1_0 + 2)
   014F C6s00r0F            269 	lda	(___fsdiv_fl2_1_1 + 3)
   0152 B7*07               270 	sta	*(___fsdiv_sloc1_1_0 + 3)
   0154 4E*04*00            271 	mov	*___fsdiv_sloc1_1_0,*__ret3
   0157 4E*05*00            272 	mov	*(___fsdiv_sloc1_1_0 + 1),*__ret2
   015A BE*06               273 	ldx	*(___fsdiv_sloc1_1_0 + 2)
   015C B6*07               274 	lda	*(___fsdiv_sloc1_1_0 + 3)
   015E 81                  275 	rts
   015F                     276 00102$:
                            277 ;../_fsdiv.c:302: if (!fl1.l)
   015F C6s00r08            278 	lda	___fsdiv_fl1_1_1
   0162 B7*04               279 	sta	*___fsdiv_sloc1_1_0
   0164 C6s00r09            280 	lda	(___fsdiv_fl1_1_1 + 1)
   0167 B7*05               281 	sta	*(___fsdiv_sloc1_1_0 + 1)
   0169 C6s00r0A            282 	lda	(___fsdiv_fl1_1_1 + 2)
   016C B7*06               283 	sta	*(___fsdiv_sloc1_1_0 + 2)
   016E C6s00r0B            284 	lda	(___fsdiv_fl1_1_1 + 3)
   0171 B7*07               285 	sta	*(___fsdiv_sloc1_1_0 + 3)
   0173 B6*07               286 	lda	*(___fsdiv_sloc1_1_0 + 3)
   0175 BA*06               287 	ora	*(___fsdiv_sloc1_1_0 + 2)
   0177 BA*05               288 	ora	*(___fsdiv_sloc1_1_0 + 1)
   0179 BA*04               289 	ora	*___fsdiv_sloc1_1_0
   017B 26 07               290 	bne	00104$
   017D                     291 00136$:
                            292 ;../_fsdiv.c:303: return (0);
   017D 3F*00               293 	clr	*__ret3
   017F 3F*00               294 	clr	*__ret2
   0181 5F                  295 	clrx
   0182 4F                  296 	clra
   0183 81                  297 	rts
   0184                     298 00104$:
                            299 ;../_fsdiv.c:306: mant1 = MANT (fl1.l);
   0184 C6s00r08            300 	lda	___fsdiv_fl1_1_1
   0187 B7*04               301 	sta	*___fsdiv_sloc1_1_0
   0189 C6s00r09            302 	lda	(___fsdiv_fl1_1_1 + 1)
   018C B7*05               303 	sta	*(___fsdiv_sloc1_1_0 + 1)
   018E C6s00r0A            304 	lda	(___fsdiv_fl1_1_1 + 2)
   0191 B7*06               305 	sta	*(___fsdiv_sloc1_1_0 + 2)
   0193 C6s00r0B            306 	lda	(___fsdiv_fl1_1_1 + 3)
   0196 B7*07               307 	sta	*(___fsdiv_sloc1_1_0 + 3)
   0198 B6*05               308 	lda	*(___fsdiv_sloc1_1_0 + 1)
   019A A4 7F               309 	and	#0x7F
   019C B7*05               310 	sta	*(___fsdiv_sloc1_1_0 + 1)
   019E 3F*04               311 	clr	*___fsdiv_sloc1_1_0
   01A0 B6*07               312 	lda	*(___fsdiv_sloc1_1_0 + 3)
   01A2 C7s00r1B            313 	sta	(___fsdiv_mant1_1_1 + 3)
   01A5 B6*06               314 	lda	*(___fsdiv_sloc1_1_0 + 2)
   01A7 C7s00r1A            315 	sta	(___fsdiv_mant1_1_1 + 2)
   01AA B6*05               316 	lda	*(___fsdiv_sloc1_1_0 + 1)
   01AC AA 80               317 	ora	#0x80
   01AE C7s00r19            318 	sta	(___fsdiv_mant1_1_1 + 1)
   01B1 B6*04               319 	lda	*___fsdiv_sloc1_1_0
   01B3 C7s00r18            320 	sta	___fsdiv_mant1_1_1
                            321 ;../_fsdiv.c:307: mant2 = MANT (fl2.l);
   01B6 C6s00r0C            322 	lda	___fsdiv_fl2_1_1
   01B9 B7*04               323 	sta	*___fsdiv_sloc1_1_0
   01BB C6s00r0D            324 	lda	(___fsdiv_fl2_1_1 + 1)
   01BE B7*05               325 	sta	*(___fsdiv_sloc1_1_0 + 1)
   01C0 C6s00r0E            326 	lda	(___fsdiv_fl2_1_1 + 2)
   01C3 B7*06               327 	sta	*(___fsdiv_sloc1_1_0 + 2)
   01C5 C6s00r0F            328 	lda	(___fsdiv_fl2_1_1 + 3)
   01C8 B7*07               329 	sta	*(___fsdiv_sloc1_1_0 + 3)
   01CA B6*05               330 	lda	*(___fsdiv_sloc1_1_0 + 1)
   01CC A4 7F               331 	and	#0x7F
   01CE B7*05               332 	sta	*(___fsdiv_sloc1_1_0 + 1)
   01D0 3F*04               333 	clr	*___fsdiv_sloc1_1_0
   01D2 B6*07               334 	lda	*(___fsdiv_sloc1_1_0 + 3)
   01D4 C7s00r1F            335 	sta	(___fsdiv_mant2_1_1 + 3)
   01D7 B6*06               336 	lda	*(___fsdiv_sloc1_1_0 + 2)
   01D9 C7s00r1E            337 	sta	(___fsdiv_mant2_1_1 + 2)
   01DC B6*05               338 	lda	*(___fsdiv_sloc1_1_0 + 1)
   01DE AA 80               339 	ora	#0x80
   01E0 C7s00r1D            340 	sta	(___fsdiv_mant2_1_1 + 1)
   01E3 B6*04               341 	lda	*___fsdiv_sloc1_1_0
   01E5 C7s00r1C            342 	sta	___fsdiv_mant2_1_1
                            343 ;../_fsdiv.c:310: if (mant1 < mant2)
   01E8 C6s00r1B            344 	lda	(___fsdiv_mant1_1_1 + 3)
   01EB C0s00r1F            345 	sub	(___fsdiv_mant2_1_1 + 3)
   01EE C6s00r1A            346 	lda	(___fsdiv_mant1_1_1 + 2)
   01F1 C2s00r1E            347 	sbc	(___fsdiv_mant2_1_1 + 2)
   01F4 C6s00r19            348 	lda	(___fsdiv_mant1_1_1 + 1)
   01F7 C2s00r1D            349 	sbc	(___fsdiv_mant2_1_1 + 1)
   01FA C6s00r18            350 	lda	___fsdiv_mant1_1_1
   01FD C2s00r1C            351 	sbc	___fsdiv_mant2_1_1
   0200 90 2C               352 	bge	00106$
   0202                     353 00137$:
                            354 ;../_fsdiv.c:312: mant1 <<= 1;
   0202 C6s00r1B            355 	lda	(___fsdiv_mant1_1_1 + 3)
   0205 CEs00r1A            356 	ldx	(___fsdiv_mant1_1_1 + 2)
   0208 48                  357 	lsla
   0209 59                  358 	rolx
   020A C7s00r1B            359 	sta	(___fsdiv_mant1_1_1 + 3)
   020D CFs00r1A            360 	stx	(___fsdiv_mant1_1_1 + 2)
   0210 C6s00r19            361 	lda	(___fsdiv_mant1_1_1 + 1)
   0213 CEs00r18            362 	ldx	___fsdiv_mant1_1_1
   0216 49                  363 	rola
   0217 59                  364 	rolx
   0218 C7s00r19            365 	sta	(___fsdiv_mant1_1_1 + 1)
   021B CFs00r18            366 	stx	___fsdiv_mant1_1_1
                            367 ;../_fsdiv.c:313: exp--;
   021E C6s00r21            368 	lda	(___fsdiv_exp_1_1 + 1)
   0221 A0 01               369 	sub	#0x01
   0223 C7s00r21            370 	sta	(___fsdiv_exp_1_1 + 1)
   0226 C6s00r20            371 	lda	___fsdiv_exp_1_1
   0229 A2 00               372 	sbc	#0x00
   022B C7s00r20            373 	sta	___fsdiv_exp_1_1
   022E                     374 00106$:
                            375 ;../_fsdiv.c:317: mask = 0x1000000;
   022E A6 01               376 	lda	#0x01
   0230 C7s00r14            377 	sta	___fsdiv_mask_1_1
                            378 ;../_fsdiv.c:318: result = 0;
   0233 4F                  379 	clra
   0234 C7s00r15            380 	sta	(___fsdiv_mask_1_1 + 1)
   0237 C7s00r16            381 	sta	(___fsdiv_mask_1_1 + 2)
   023A C7s00r17            382 	sta	(___fsdiv_mask_1_1 + 3)
   023D C7s00r10            383 	sta	___fsdiv_result_1_1
   0240 4F                  384 	clra
   0241 C7s00r11            385 	sta	(___fsdiv_result_1_1 + 1)
   0244 C7s00r12            386 	sta	(___fsdiv_result_1_1 + 2)
   0247 C7s00r13            387 	sta	(___fsdiv_result_1_1 + 3)
                            388 ;../_fsdiv.c:319: while (mask)
   024A                     389 00109$:
   024A C6s00r17            390 	lda	(___fsdiv_mask_1_1 + 3)
   024D CAs00r16            391 	ora	(___fsdiv_mask_1_1 + 2)
   0250 CAs00r15            392 	ora	(___fsdiv_mask_1_1 + 1)
   0253 CAs00r14            393 	ora	___fsdiv_mask_1_1
   0256 26 03               394 	bne	00138$
   0258 CCs03r08            395 	jmp	00111$
   025B                     396 00138$:
                            397 ;../_fsdiv.c:321: if (mant1 >= mant2)
   025B C6s00r1B            398 	lda	(___fsdiv_mant1_1_1 + 3)
   025E C0s00r1F            399 	sub	(___fsdiv_mant2_1_1 + 3)
   0261 C6s00r1A            400 	lda	(___fsdiv_mant1_1_1 + 2)
   0264 C2s00r1E            401 	sbc	(___fsdiv_mant2_1_1 + 2)
   0267 C6s00r19            402 	lda	(___fsdiv_mant1_1_1 + 1)
   026A C2s00r1D            403 	sbc	(___fsdiv_mant2_1_1 + 1)
   026D C6s00r18            404 	lda	___fsdiv_mant1_1_1
   0270 C2s00r1C            405 	sbc	___fsdiv_mant2_1_1
   0273 91 58               406 	blt	00108$
   0275                     407 00139$:
                            408 ;../_fsdiv.c:323: result |= mask;
   0275 C6s00r10            409 	lda	___fsdiv_result_1_1
   0278 B7*04               410 	sta	*___fsdiv_sloc1_1_0
   027A C6s00r11            411 	lda	(___fsdiv_result_1_1 + 1)
   027D B7*05               412 	sta	*(___fsdiv_sloc1_1_0 + 1)
   027F C6s00r12            413 	lda	(___fsdiv_result_1_1 + 2)
   0282 B7*06               414 	sta	*(___fsdiv_sloc1_1_0 + 2)
   0284 C6s00r13            415 	lda	(___fsdiv_result_1_1 + 3)
   0287 B7*07               416 	sta	*(___fsdiv_sloc1_1_0 + 3)
   0289 B6*07               417 	lda	*(___fsdiv_sloc1_1_0 + 3)
   028B CAs00r17            418 	ora	(___fsdiv_mask_1_1 + 3)
   028E C7s00r13            419 	sta	(___fsdiv_result_1_1 + 3)
   0291 B6*06               420 	lda	*(___fsdiv_sloc1_1_0 + 2)
   0293 CAs00r16            421 	ora	(___fsdiv_mask_1_1 + 2)
   0296 C7s00r12            422 	sta	(___fsdiv_result_1_1 + 2)
   0299 B6*05               423 	lda	*(___fsdiv_sloc1_1_0 + 1)
   029B CAs00r15            424 	ora	(___fsdiv_mask_1_1 + 1)
   029E C7s00r11            425 	sta	(___fsdiv_result_1_1 + 1)
   02A1 B6*04               426 	lda	*___fsdiv_sloc1_1_0
   02A3 CAs00r14            427 	ora	___fsdiv_mask_1_1
   02A6 C7s00r10            428 	sta	___fsdiv_result_1_1
                            429 ;../_fsdiv.c:324: mant1 -= mant2;
   02A9 C6s00r1B            430 	lda	(___fsdiv_mant1_1_1 + 3)
   02AC C0s00r1F            431 	sub	(___fsdiv_mant2_1_1 + 3)
   02AF C7s00r1B            432 	sta	(___fsdiv_mant1_1_1 + 3)
   02B2 C6s00r1A            433 	lda	(___fsdiv_mant1_1_1 + 2)
   02B5 C2s00r1E            434 	sbc	(___fsdiv_mant2_1_1 + 2)
   02B8 C7s00r1A            435 	sta	(___fsdiv_mant1_1_1 + 2)
   02BB C6s00r19            436 	lda	(___fsdiv_mant1_1_1 + 1)
   02BE C2s00r1D            437 	sbc	(___fsdiv_mant2_1_1 + 1)
   02C1 C7s00r19            438 	sta	(___fsdiv_mant1_1_1 + 1)
   02C4 C6s00r18            439 	lda	___fsdiv_mant1_1_1
   02C7 C2s00r1C            440 	sbc	___fsdiv_mant2_1_1
   02CA C7s00r18            441 	sta	___fsdiv_mant1_1_1
   02CD                     442 00108$:
                            443 ;../_fsdiv.c:326: mant1 <<= 1;
   02CD C6s00r1B            444 	lda	(___fsdiv_mant1_1_1 + 3)
   02D0 CEs00r1A            445 	ldx	(___fsdiv_mant1_1_1 + 2)
   02D3 48                  446 	lsla
   02D4 59                  447 	rolx
   02D5 C7s00r1B            448 	sta	(___fsdiv_mant1_1_1 + 3)
   02D8 CFs00r1A            449 	stx	(___fsdiv_mant1_1_1 + 2)
   02DB C6s00r19            450 	lda	(___fsdiv_mant1_1_1 + 1)
   02DE CEs00r18            451 	ldx	___fsdiv_mant1_1_1
   02E1 49                  452 	rola
   02E2 59                  453 	rolx
   02E3 C7s00r19            454 	sta	(___fsdiv_mant1_1_1 + 1)
   02E6 CFs00r18            455 	stx	___fsdiv_mant1_1_1
                            456 ;../_fsdiv.c:327: mask >>= 1;
   02E9 C6s00r15            457 	lda	(___fsdiv_mask_1_1 + 1)
   02EC CEs00r14            458 	ldx	___fsdiv_mask_1_1
   02EF 54                  459 	lsrx
   02F0 46                  460 	rora
   02F1 C7s00r15            461 	sta	(___fsdiv_mask_1_1 + 1)
   02F4 CFs00r14            462 	stx	___fsdiv_mask_1_1
   02F7 C6s00r17            463 	lda	(___fsdiv_mask_1_1 + 3)
   02FA CEs00r16            464 	ldx	(___fsdiv_mask_1_1 + 2)
   02FD 56                  465 	rorx
   02FE 46                  466 	rora
   02FF C7s00r17            467 	sta	(___fsdiv_mask_1_1 + 3)
   0302 CFs00r16            468 	stx	(___fsdiv_mask_1_1 + 2)
   0305 CCs02r4A            469 	jmp	00109$
   0308                     470 00111$:
                            471 ;../_fsdiv.c:331: result += 1;
   0308 C6s00r13            472 	lda	(___fsdiv_result_1_1 + 3)
   030B 4C                  473 	inca
   030C C7s00r13            474 	sta	(___fsdiv_result_1_1 + 3)
   030F 26 19               475 	bne	00140$
   0311 C6s00r12            476 	lda	(___fsdiv_result_1_1 + 2)
   0314 4C                  477 	inca
   0315 C7s00r12            478 	sta	(___fsdiv_result_1_1 + 2)
   0318 26 10               479 	bne	00140$
   031A C6s00r11            480 	lda	(___fsdiv_result_1_1 + 1)
   031D 4C                  481 	inca
   031E C7s00r11            482 	sta	(___fsdiv_result_1_1 + 1)
   0321 26 07               483 	bne	00140$
   0323 C6s00r10            484 	lda	___fsdiv_result_1_1
   0326 4C                  485 	inca
   0327 C7s00r10            486 	sta	___fsdiv_result_1_1
   032A                     487 00140$:
                            488 ;../_fsdiv.c:334: exp++;
   032A C6s00r21            489 	lda	(___fsdiv_exp_1_1 + 1)
   032D 4C                  490 	inca
   032E C7s00r21            491 	sta	(___fsdiv_exp_1_1 + 1)
   0331 26 07               492 	bne	00141$
   0333 C6s00r20            493 	lda	___fsdiv_exp_1_1
   0336 4C                  494 	inca
   0337 C7s00r20            495 	sta	___fsdiv_exp_1_1
   033A                     496 00141$:
                            497 ;../_fsdiv.c:335: result >>= 1;
   033A C6s00r11            498 	lda	(___fsdiv_result_1_1 + 1)
   033D CEs00r10            499 	ldx	___fsdiv_result_1_1
   0340 57                  500 	asrx
   0341 46                  501 	rora
   0342 C7s00r11            502 	sta	(___fsdiv_result_1_1 + 1)
   0345 CFs00r10            503 	stx	___fsdiv_result_1_1
   0348 C6s00r13            504 	lda	(___fsdiv_result_1_1 + 3)
   034B CEs00r12            505 	ldx	(___fsdiv_result_1_1 + 2)
   034E 56                  506 	rorx
   034F 46                  507 	rora
   0350 C7s00r13            508 	sta	(___fsdiv_result_1_1 + 3)
   0353 CFs00r12            509 	stx	(___fsdiv_result_1_1 + 2)
                            510 ;../_fsdiv.c:337: result &= ~HIDDEN;
   0356 C6s00r10            511 	lda	___fsdiv_result_1_1
   0359 B7*04               512 	sta	*___fsdiv_sloc1_1_0
   035B C6s00r11            513 	lda	(___fsdiv_result_1_1 + 1)
   035E B7*05               514 	sta	*(___fsdiv_sloc1_1_0 + 1)
   0360 C6s00r12            515 	lda	(___fsdiv_result_1_1 + 2)
   0363 B7*06               516 	sta	*(___fsdiv_sloc1_1_0 + 2)
   0365 C6s00r13            517 	lda	(___fsdiv_result_1_1 + 3)
   0368 B7*07               518 	sta	*(___fsdiv_sloc1_1_0 + 3)
   036A B6*07               519 	lda	*(___fsdiv_sloc1_1_0 + 3)
   036C C7s00r13            520 	sta	(___fsdiv_result_1_1 + 3)
   036F B6*06               521 	lda	*(___fsdiv_sloc1_1_0 + 2)
   0371 C7s00r12            522 	sta	(___fsdiv_result_1_1 + 2)
   0374 B6*05               523 	lda	*(___fsdiv_sloc1_1_0 + 1)
   0376 A4 7F               524 	and	#0x7F
   0378 C7s00r11            525 	sta	(___fsdiv_result_1_1 + 1)
   037B B6*04               526 	lda	*___fsdiv_sloc1_1_0
   037D C7s00r10            527 	sta	___fsdiv_result_1_1
                            528 ;../_fsdiv.c:340: if (exp >= 0x100)
   0380 C6s00r21            529 	lda	(___fsdiv_exp_1_1 + 1)
   0383 A0 00               530 	sub	#0x00
   0385 C6s00r20            531 	lda	___fsdiv_exp_1_1
   0388 A2 01               532 	sbc	#0x01
   038A 91 3B               533 	blt	00116$
   038C                     534 00142$:
                            535 ;../_fsdiv.c:341: fl1.l = (sign ? SIGNBIT : 0) | __INFINITY;
   038C C6s00r22            536 	lda	___fsdiv_sign_1_1
   038F 27 0B               537 	beq	00120$
   0391                     538 00143$:
   0391 6E 80*04            539 	mov	#0x80,*___fsdiv_sloc1_1_0
   0394 3F*05               540 	clr	*(___fsdiv_sloc1_1_0 + 1)
   0396 3F*06               541 	clr	*(___fsdiv_sloc1_1_0 + 2)
   0398 3F*07               542 	clr	*(___fsdiv_sloc1_1_0 + 3)
   039A 20 08               543 	bra	00121$
   039C                     544 00120$:
   039C 3F*04               545 	clr	*___fsdiv_sloc1_1_0
   039E 3F*05               546 	clr	*(___fsdiv_sloc1_1_0 + 1)
   03A0 3F*06               547 	clr	*(___fsdiv_sloc1_1_0 + 2)
   03A2 3F*07               548 	clr	*(___fsdiv_sloc1_1_0 + 3)
   03A4                     549 00121$:
   03A4 B6*05               550 	lda	*(___fsdiv_sloc1_1_0 + 1)
   03A6 AA 80               551 	ora	#0x80
   03A8 B7*05               552 	sta	*(___fsdiv_sloc1_1_0 + 1)
   03AA B6*04               553 	lda	*___fsdiv_sloc1_1_0
   03AC AA 7F               554 	ora	#0x7F
   03AE B7*04               555 	sta	*___fsdiv_sloc1_1_0
   03B0 B6*04               556 	lda	*___fsdiv_sloc1_1_0
   03B2 C7s00r08            557 	sta	___fsdiv_fl1_1_1
   03B5 B6*05               558 	lda	*(___fsdiv_sloc1_1_0 + 1)
   03B7 C7s00r09            559 	sta	(___fsdiv_fl1_1_1 + 1)
   03BA B6*06               560 	lda	*(___fsdiv_sloc1_1_0 + 2)
   03BC C7s00r0A            561 	sta	(___fsdiv_fl1_1_1 + 2)
   03BF B6*07               562 	lda	*(___fsdiv_sloc1_1_0 + 3)
   03C1 C7s00r0B            563 	sta	(___fsdiv_fl1_1_1 + 3)
   03C4 CCs04r79            564 	jmp	00117$
   03C7                     565 00116$:
                            566 ;../_fsdiv.c:342: else if (exp < 0)
   03C7 C6s00r21            567 	lda	(___fsdiv_exp_1_1 + 1)
   03CA A0 00               568 	sub	#0x00
   03CC C6s00r20            569 	lda	___fsdiv_exp_1_1
   03CF A2 00               570 	sbc	#0x00
   03D1 90 10               571 	bge	00113$
   03D3                     572 00144$:
                            573 ;../_fsdiv.c:343: fl1.l = 0;
   03D3 4F                  574 	clra
   03D4 C7s00r08            575 	sta	___fsdiv_fl1_1_1
   03D7 C7s00r09            576 	sta	(___fsdiv_fl1_1_1 + 1)
   03DA C7s00r0A            577 	sta	(___fsdiv_fl1_1_1 + 2)
   03DD C7s00r0B            578 	sta	(___fsdiv_fl1_1_1 + 3)
   03E0 CCs04r79            579 	jmp	00117$
   03E3                     580 00113$:
                            581 ;../_fsdiv.c:345: fl1.l = PACK (sign ? SIGNBIT : 0 , exp, result);
   03E3 C6s00r22            582 	lda	___fsdiv_sign_1_1
   03E6 27 0B               583 	beq	00122$
   03E8                     584 00145$:
   03E8 6E 80*04            585 	mov	#0x80,*___fsdiv_sloc1_1_0
   03EB 3F*05               586 	clr	*(___fsdiv_sloc1_1_0 + 1)
   03ED 3F*06               587 	clr	*(___fsdiv_sloc1_1_0 + 2)
   03EF 3F*07               588 	clr	*(___fsdiv_sloc1_1_0 + 3)
   03F1 20 08               589 	bra	00123$
   03F3                     590 00122$:
   03F3 3F*04               591 	clr	*___fsdiv_sloc1_1_0
   03F5 3F*05               592 	clr	*(___fsdiv_sloc1_1_0 + 1)
   03F7 3F*06               593 	clr	*(___fsdiv_sloc1_1_0 + 2)
   03F9 3F*07               594 	clr	*(___fsdiv_sloc1_1_0 + 3)
   03FB                     595 00123$:
   03FB C6s00r21            596 	lda	(___fsdiv_exp_1_1 + 1)
   03FE B7*03               597 	sta	*(___fsdiv_sloc0_1_0 + 3)
   0400 C6s00r20            598 	lda	___fsdiv_exp_1_1
   0403 B7*02               599 	sta	*(___fsdiv_sloc0_1_0 + 2)
   0405 C6s00r20            600 	lda	___fsdiv_exp_1_1
   0408 49                  601 	rola	
   0409 4F                  602 	clra	
   040A A2 00               603 	sbc	#0x00
   040C B7*01               604 	sta	*(___fsdiv_sloc0_1_0 + 1)
   040E B7*00               605 	sta	*___fsdiv_sloc0_1_0
   0410 B6*03               606 	lda	*(___fsdiv_sloc0_1_0 + 3)
   0412 BE*02               607 	ldx	*(___fsdiv_sloc0_1_0 + 2)
   0414 54                  608 	lsrx
   0415 46                  609 	rora
   0416 97                  610 	tax
   0417 4F                  611 	clra
   0418 46                  612 	rora
   0419 B7*01               613 	sta	*(___fsdiv_sloc0_1_0 + 1)
   041B BF*00               614 	stx	*___fsdiv_sloc0_1_0
   041D 3F*03               615 	clr	*(___fsdiv_sloc0_1_0 + 3)
   041F 3F*02               616 	clr	*(___fsdiv_sloc0_1_0 + 2)
   0421 B6*07               617 	lda	*(___fsdiv_sloc1_1_0 + 3)
   0423 BA*03               618 	ora	*(___fsdiv_sloc0_1_0 + 3)
   0425 B7*07               619 	sta	*(___fsdiv_sloc1_1_0 + 3)
   0427 B6*06               620 	lda	*(___fsdiv_sloc1_1_0 + 2)
   0429 BA*02               621 	ora	*(___fsdiv_sloc0_1_0 + 2)
   042B B7*06               622 	sta	*(___fsdiv_sloc1_1_0 + 2)
   042D B6*05               623 	lda	*(___fsdiv_sloc1_1_0 + 1)
   042F BA*01               624 	ora	*(___fsdiv_sloc0_1_0 + 1)
   0431 B7*05               625 	sta	*(___fsdiv_sloc1_1_0 + 1)
   0433 B6*04               626 	lda	*___fsdiv_sloc1_1_0
   0435 BA*00               627 	ora	*___fsdiv_sloc0_1_0
   0437 B7*04               628 	sta	*___fsdiv_sloc1_1_0
   0439 C6s00r10            629 	lda	___fsdiv_result_1_1
   043C B7*00               630 	sta	*___fsdiv_sloc0_1_0
   043E C6s00r11            631 	lda	(___fsdiv_result_1_1 + 1)
   0441 B7*01               632 	sta	*(___fsdiv_sloc0_1_0 + 1)
   0443 C6s00r12            633 	lda	(___fsdiv_result_1_1 + 2)
   0446 B7*02               634 	sta	*(___fsdiv_sloc0_1_0 + 2)
   0448 C6s00r13            635 	lda	(___fsdiv_result_1_1 + 3)
   044B B7*03               636 	sta	*(___fsdiv_sloc0_1_0 + 3)
   044D B6*07               637 	lda	*(___fsdiv_sloc1_1_0 + 3)
   044F BA*03               638 	ora	*(___fsdiv_sloc0_1_0 + 3)
   0451 B7*07               639 	sta	*(___fsdiv_sloc1_1_0 + 3)
   0453 B6*06               640 	lda	*(___fsdiv_sloc1_1_0 + 2)
   0455 BA*02               641 	ora	*(___fsdiv_sloc0_1_0 + 2)
   0457 B7*06               642 	sta	*(___fsdiv_sloc1_1_0 + 2)
   0459 B6*05               643 	lda	*(___fsdiv_sloc1_1_0 + 1)
   045B BA*01               644 	ora	*(___fsdiv_sloc0_1_0 + 1)
   045D B7*05               645 	sta	*(___fsdiv_sloc1_1_0 + 1)
   045F B6*04               646 	lda	*___fsdiv_sloc1_1_0
   0461 BA*00               647 	ora	*___fsdiv_sloc0_1_0
   0463 B7*04               648 	sta	*___fsdiv_sloc1_1_0
   0465 B6*04               649 	lda	*___fsdiv_sloc1_1_0
   0467 C7s00r08            650 	sta	___fsdiv_fl1_1_1
   046A B6*05               651 	lda	*(___fsdiv_sloc1_1_0 + 1)
   046C C7s00r09            652 	sta	(___fsdiv_fl1_1_1 + 1)
   046F B6*06               653 	lda	*(___fsdiv_sloc1_1_0 + 2)
   0471 C7s00r0A            654 	sta	(___fsdiv_fl1_1_1 + 2)
   0474 B6*07               655 	lda	*(___fsdiv_sloc1_1_0 + 3)
   0476 C7s00r0B            656 	sta	(___fsdiv_fl1_1_1 + 3)
   0479                     657 00117$:
                            658 ;../_fsdiv.c:346: return (fl1.f);
   0479 C6s00r08            659 	lda	___fsdiv_fl1_1_1
   047C B7*04               660 	sta	*___fsdiv_sloc1_1_0
   047E C6s00r09            661 	lda	(___fsdiv_fl1_1_1 + 1)
   0481 B7*05               662 	sta	*(___fsdiv_sloc1_1_0 + 1)
   0483 C6s00r0A            663 	lda	(___fsdiv_fl1_1_1 + 2)
   0486 B7*06               664 	sta	*(___fsdiv_sloc1_1_0 + 2)
   0488 C6s00r0B            665 	lda	(___fsdiv_fl1_1_1 + 3)
   048B B7*07               666 	sta	*(___fsdiv_sloc1_1_0 + 3)
   048D 4E*04*00            667 	mov	*___fsdiv_sloc1_1_0,*__ret3
   0490 4E*05*00            668 	mov	*(___fsdiv_sloc1_1_0 + 1),*__ret2
   0493 BE*06               669 	ldx	*(___fsdiv_sloc1_1_0 + 2)
   0495 B6*07               670 	lda	*(___fsdiv_sloc1_1_0 + 3)
   0497                     671 00118$:
   0497 81                  672 	rts
                            673 	.area CSEG (CODE)
                            674 	.area CONST   (CODE)
                            675 	.area XINIT
                            676 	.area CABS    (ABS,CODE)
