                              1 ;--------------------------------------------------------
                              2 ; File Created by SDCC : free open source ANSI-C Compiler
                              3 ; Version 3.0.1 #6227 (Oct  2 2015) (Linux)
                              4 ; This file was generated Fri Oct  2 17:15:21 2015
                              5 ;--------------------------------------------------------
                              6 	.module _fsmul
                              7 	.optsdcc -mhc08
                              8 	
                              9 	.area HOME (CODE)
                             10 	.area GSINIT0 (CODE)
                             11 	.area GSINIT (CODE)
                             12 	.area GSFINAL (CODE)
                             13 	.area CSEG (CODE)
                             14 	.area XINIT
                             15 	.area CONST   (CODE)
                             16 	.area DSEG
                             17 	.area OSEG    (OVR)
                             18 	.area BSEG
                             19 	.area XSEG
                             20 	.area XISEG
                             21 ;--------------------------------------------------------
                             22 ; Public variables in this module
                             23 ;--------------------------------------------------------
                             24 	.globl ___fsmul_PARM_2
                             25 	.globl ___fsmul_PARM_1
                             26 	.globl ___fsmul
                             27 ;--------------------------------------------------------
                             28 ;  ram data
                             29 ;--------------------------------------------------------
                             30 	.area DSEG
   0000                      31 ___fsmul_sloc0_1_0:
   0000                      32 	.ds 4
   0004                      33 ___fsmul_sloc1_1_0:
   0004                      34 	.ds 4
                             35 ;--------------------------------------------------------
                             36 ; overlayable items in  ram 
                             37 ;--------------------------------------------------------
                             38 	.area OSEG    (OVR)
                             39 ;--------------------------------------------------------
                             40 ; absolute external ram data
                             41 ;--------------------------------------------------------
                             42 	.area XABS    (ABS)
                             43 ;--------------------------------------------------------
                             44 ; external initialized ram data
                             45 ;--------------------------------------------------------
                             46 	.area XISEG
                             47 ;--------------------------------------------------------
                             48 ; extended address mode data
                             49 ;--------------------------------------------------------
                             50 	.area XSEG
   0000                      51 ___fsmul_PARM_1:
   0000                      52 	.ds 4
   0004                      53 ___fsmul_PARM_2:
   0004                      54 	.ds 4
   0008                      55 ___fsmul_fl1_1_1:
   0008                      56 	.ds 4
   000C                      57 ___fsmul_fl2_1_1:
   000C                      58 	.ds 4
   0010                      59 ___fsmul_result_1_1:
   0010                      60 	.ds 4
   0014                      61 ___fsmul_exp_1_1:
   0014                      62 	.ds 2
   0016                      63 ___fsmul_sign_1_1:
   0016                      64 	.ds 1
                             65 ;--------------------------------------------------------
                             66 ; global & static initialisations
                             67 ;--------------------------------------------------------
                             68 	.area HOME (CODE)
                             69 	.area GSINIT (CODE)
                             70 	.area GSFINAL (CODE)
                             71 	.area GSINIT (CODE)
                             72 ;--------------------------------------------------------
                             73 ; Home
                             74 ;--------------------------------------------------------
                             75 	.area HOME (CODE)
                             76 	.area HOME (CODE)
                             77 ;--------------------------------------------------------
                             78 ; code
                             79 ;--------------------------------------------------------
                             80 	.area CSEG (CODE)
                             81 ;------------------------------------------------------------
                             82 ;Allocation info for local variables in function '__fsmul'
                             83 ;------------------------------------------------------------
                             84 ;sloc0                     Allocated with name '___fsmul_sloc0_1_0'
                             85 ;sloc1                     Allocated with name '___fsmul_sloc1_1_0'
                             86 ;a1                        Allocated with name '___fsmul_PARM_1'
                             87 ;a2                        Allocated with name '___fsmul_PARM_2'
                             88 ;fl1                       Allocated with name '___fsmul_fl1_1_1'
                             89 ;fl2                       Allocated with name '___fsmul_fl2_1_1'
                             90 ;result                    Allocated with name '___fsmul_result_1_1'
                             91 ;exp                       Allocated with name '___fsmul_exp_1_1'
                             92 ;sign                      Allocated with name '___fsmul_sign_1_1'
                             93 ;------------------------------------------------------------
                             94 ;../_fsmul.c:241: float __fsmul (float a1, float a2) {
                             95 ;	-----------------------------------------
                             96 ;	 function __fsmul
                             97 ;	-----------------------------------------
   0000                      98 ___fsmul:
                             99 ;../_fsmul.c:247: fl1.f = a1;
   0000 C6s00r00            100 	lda	___fsmul_PARM_1
   0003 C7s00r08            101 	sta	___fsmul_fl1_1_1
   0006 C6s00r01            102 	lda	(___fsmul_PARM_1 + 1)
   0009 C7s00r09            103 	sta	(___fsmul_fl1_1_1 + 1)
   000C C6s00r02            104 	lda	(___fsmul_PARM_1 + 2)
   000F C7s00r0A            105 	sta	(___fsmul_fl1_1_1 + 2)
   0012 C6s00r03            106 	lda	(___fsmul_PARM_1 + 3)
   0015 C7s00r0B            107 	sta	(___fsmul_fl1_1_1 + 3)
                            108 ;../_fsmul.c:248: fl2.f = a2;
   0018 C6s00r04            109 	lda	___fsmul_PARM_2
   001B C7s00r0C            110 	sta	___fsmul_fl2_1_1
   001E C6s00r05            111 	lda	(___fsmul_PARM_2 + 1)
   0021 C7s00r0D            112 	sta	(___fsmul_fl2_1_1 + 1)
   0024 C6s00r06            113 	lda	(___fsmul_PARM_2 + 2)
   0027 C7s00r0E            114 	sta	(___fsmul_fl2_1_1 + 2)
   002A C6s00r07            115 	lda	(___fsmul_PARM_2 + 3)
   002D C7s00r0F            116 	sta	(___fsmul_fl2_1_1 + 3)
                            117 ;../_fsmul.c:250: if (!fl1.l || !fl2.l)
   0030 C6s00r08            118 	lda	___fsmul_fl1_1_1
   0033 B7*00               119 	sta	*___fsmul_sloc0_1_0
   0035 C6s00r09            120 	lda	(___fsmul_fl1_1_1 + 1)
   0038 B7*01               121 	sta	*(___fsmul_sloc0_1_0 + 1)
   003A C6s00r0A            122 	lda	(___fsmul_fl1_1_1 + 2)
   003D B7*02               123 	sta	*(___fsmul_sloc0_1_0 + 2)
   003F C6s00r0B            124 	lda	(___fsmul_fl1_1_1 + 3)
   0042 B7*03               125 	sta	*(___fsmul_sloc0_1_0 + 3)
   0044 B6*03               126 	lda	*(___fsmul_sloc0_1_0 + 3)
   0046 BA*02               127 	ora	*(___fsmul_sloc0_1_0 + 2)
   0048 BA*01               128 	ora	*(___fsmul_sloc0_1_0 + 1)
   004A BA*00               129 	ora	*___fsmul_sloc0_1_0
   004C 27 1E               130 	beq	00101$
   004E                     131 00125$:
   004E C6s00r0C            132 	lda	___fsmul_fl2_1_1
   0051 B7*00               133 	sta	*___fsmul_sloc0_1_0
   0053 C6s00r0D            134 	lda	(___fsmul_fl2_1_1 + 1)
   0056 B7*01               135 	sta	*(___fsmul_sloc0_1_0 + 1)
   0058 C6s00r0E            136 	lda	(___fsmul_fl2_1_1 + 2)
   005B B7*02               137 	sta	*(___fsmul_sloc0_1_0 + 2)
   005D C6s00r0F            138 	lda	(___fsmul_fl2_1_1 + 3)
   0060 B7*03               139 	sta	*(___fsmul_sloc0_1_0 + 3)
   0062 B6*03               140 	lda	*(___fsmul_sloc0_1_0 + 3)
   0064 BA*02               141 	ora	*(___fsmul_sloc0_1_0 + 2)
   0066 BA*01               142 	ora	*(___fsmul_sloc0_1_0 + 1)
   0068 BA*00               143 	ora	*___fsmul_sloc0_1_0
   006A 26 07               144 	bne	00102$
   006C                     145 00126$:
   006C                     146 00101$:
                            147 ;../_fsmul.c:251: return (0);
   006C 3F*00               148 	clr	*__ret3
   006E 3F*00               149 	clr	*__ret2
   0070 5F                  150 	clrx
   0071 4F                  151 	clra
   0072 81                  152 	rts
   0073                     153 00102$:
                            154 ;../_fsmul.c:254: sign = SIGN (fl1.l) ^ SIGN (fl2.l);
   0073 C6s00r08            155 	lda	___fsmul_fl1_1_1
   0076 B7*00               156 	sta	*___fsmul_sloc0_1_0
   0078 C6s00r09            157 	lda	(___fsmul_fl1_1_1 + 1)
   007B B7*01               158 	sta	*(___fsmul_sloc0_1_0 + 1)
   007D C6s00r0A            159 	lda	(___fsmul_fl1_1_1 + 2)
   0080 B7*02               160 	sta	*(___fsmul_sloc0_1_0 + 2)
   0082 C6s00r0B            161 	lda	(___fsmul_fl1_1_1 + 3)
   0085 B7*03               162 	sta	*(___fsmul_sloc0_1_0 + 3)
   0087 B6*00               163 	lda	*___fsmul_sloc0_1_0
   0089 49                  164 	rola
   008A 4F                  165 	clra
   008B 49                  166 	rola
   008C B7*00               167 	sta	*___fsmul_sloc0_1_0
   008E C6s00r0C            168 	lda	___fsmul_fl2_1_1
   0091 B7*04               169 	sta	*___fsmul_sloc1_1_0
   0093 C6s00r0D            170 	lda	(___fsmul_fl2_1_1 + 1)
   0096 B7*05               171 	sta	*(___fsmul_sloc1_1_0 + 1)
   0098 C6s00r0E            172 	lda	(___fsmul_fl2_1_1 + 2)
   009B B7*06               173 	sta	*(___fsmul_sloc1_1_0 + 2)
   009D C6s00r0F            174 	lda	(___fsmul_fl2_1_1 + 3)
   00A0 B7*07               175 	sta	*(___fsmul_sloc1_1_0 + 3)
   00A2 B6*04               176 	lda	*___fsmul_sloc1_1_0
   00A4 49                  177 	rola
   00A5 4F                  178 	clra
   00A6 49                  179 	rola
   00A7 B8*00               180 	eor	*___fsmul_sloc0_1_0
   00A9 C7s00r16            181 	sta	___fsmul_sign_1_1
                            182 ;../_fsmul.c:255: exp = EXP (fl1.l) - EXCESS;
   00AC C6s00r08            183 	lda	___fsmul_fl1_1_1
   00AF B7*04               184 	sta	*___fsmul_sloc1_1_0
   00B1 C6s00r09            185 	lda	(___fsmul_fl1_1_1 + 1)
   00B4 B7*05               186 	sta	*(___fsmul_sloc1_1_0 + 1)
   00B6 C6s00r0A            187 	lda	(___fsmul_fl1_1_1 + 2)
   00B9 B7*06               188 	sta	*(___fsmul_sloc1_1_0 + 2)
   00BB C6s00r0B            189 	lda	(___fsmul_fl1_1_1 + 3)
   00BE B7*07               190 	sta	*(___fsmul_sloc1_1_0 + 3)
   00C0 B6*05               191 	lda	*(___fsmul_sloc1_1_0 + 1)
   00C2 BE*04               192 	ldx	*___fsmul_sloc1_1_0
   00C4 48                  193 	lsla
   00C5 9F                  194 	txa
   00C6 49                  195 	rola
   00C7 5F                  196 	clrx
   00C8 59                  197 	rolx
   00C9 B7*07               198 	sta	*(___fsmul_sloc1_1_0 + 3)
   00CB BF*06               199 	stx	*(___fsmul_sloc1_1_0 + 2)
   00CD 3F*05               200 	clr	*(___fsmul_sloc1_1_0 + 1)
   00CF 3F*04               201 	clr	*___fsmul_sloc1_1_0
   00D1 3F*06               202 	clr	*(___fsmul_sloc1_1_0 + 2)
   00D3 3F*05               203 	clr	*(___fsmul_sloc1_1_0 + 1)
   00D5 3F*04               204 	clr	*___fsmul_sloc1_1_0
   00D7 B6*07               205 	lda	*(___fsmul_sloc1_1_0 + 3)
   00D9 A0 7E               206 	sub	#0x7E
   00DB B7*07               207 	sta	*(___fsmul_sloc1_1_0 + 3)
   00DD B6*06               208 	lda	*(___fsmul_sloc1_1_0 + 2)
   00DF A2 00               209 	sbc	#0x00
   00E1 B7*06               210 	sta	*(___fsmul_sloc1_1_0 + 2)
   00E3 B6*05               211 	lda	*(___fsmul_sloc1_1_0 + 1)
   00E5 A2 00               212 	sbc	#0x00
   00E7 B7*05               213 	sta	*(___fsmul_sloc1_1_0 + 1)
   00E9 B6*04               214 	lda	*___fsmul_sloc1_1_0
   00EB A2 00               215 	sbc	#0x00
   00ED B7*04               216 	sta	*___fsmul_sloc1_1_0
   00EF B6*07               217 	lda	*(___fsmul_sloc1_1_0 + 3)
   00F1 C7s00r15            218 	sta	(___fsmul_exp_1_1 + 1)
   00F4 B6*06               219 	lda	*(___fsmul_sloc1_1_0 + 2)
   00F6 C7s00r14            220 	sta	___fsmul_exp_1_1
                            221 ;../_fsmul.c:256: exp += EXP (fl2.l);
   00F9 C6s00r0C            222 	lda	___fsmul_fl2_1_1
   00FC B7*04               223 	sta	*___fsmul_sloc1_1_0
   00FE C6s00r0D            224 	lda	(___fsmul_fl2_1_1 + 1)
   0101 B7*05               225 	sta	*(___fsmul_sloc1_1_0 + 1)
   0103 C6s00r0E            226 	lda	(___fsmul_fl2_1_1 + 2)
   0106 B7*06               227 	sta	*(___fsmul_sloc1_1_0 + 2)
   0108 C6s00r0F            228 	lda	(___fsmul_fl2_1_1 + 3)
   010B B7*07               229 	sta	*(___fsmul_sloc1_1_0 + 3)
   010D B6*05               230 	lda	*(___fsmul_sloc1_1_0 + 1)
   010F BE*04               231 	ldx	*___fsmul_sloc1_1_0
   0111 48                  232 	lsla
   0112 9F                  233 	txa
   0113 49                  234 	rola
   0114 5F                  235 	clrx
   0115 59                  236 	rolx
   0116 B7*07               237 	sta	*(___fsmul_sloc1_1_0 + 3)
   0118 BF*06               238 	stx	*(___fsmul_sloc1_1_0 + 2)
   011A 3F*05               239 	clr	*(___fsmul_sloc1_1_0 + 1)
   011C 3F*04               240 	clr	*___fsmul_sloc1_1_0
   011E 3F*06               241 	clr	*(___fsmul_sloc1_1_0 + 2)
   0120 3F*05               242 	clr	*(___fsmul_sloc1_1_0 + 1)
   0122 3F*04               243 	clr	*___fsmul_sloc1_1_0
   0124 C6s00r15            244 	lda	(___fsmul_exp_1_1 + 1)
   0127 B7*03               245 	sta	*(___fsmul_sloc0_1_0 + 3)
   0129 C6s00r14            246 	lda	___fsmul_exp_1_1
   012C B7*02               247 	sta	*(___fsmul_sloc0_1_0 + 2)
   012E C6s00r14            248 	lda	___fsmul_exp_1_1
   0131 49                  249 	rola	
   0132 4F                  250 	clra	
   0133 A2 00               251 	sbc	#0x00
   0135 B7*01               252 	sta	*(___fsmul_sloc0_1_0 + 1)
   0137 B7*00               253 	sta	*___fsmul_sloc0_1_0
   0139 B6*03               254 	lda	*(___fsmul_sloc0_1_0 + 3)
   013B BB*07               255 	add	*(___fsmul_sloc1_1_0 + 3)
   013D B7*07               256 	sta	*(___fsmul_sloc1_1_0 + 3)
   013F B6*02               257 	lda	*(___fsmul_sloc0_1_0 + 2)
   0141 B9*06               258 	adc	*(___fsmul_sloc1_1_0 + 2)
   0143 B7*06               259 	sta	*(___fsmul_sloc1_1_0 + 2)
   0145 B6*01               260 	lda	*(___fsmul_sloc0_1_0 + 1)
   0147 B9*05               261 	adc	*(___fsmul_sloc1_1_0 + 1)
   0149 B7*05               262 	sta	*(___fsmul_sloc1_1_0 + 1)
   014B B6*00               263 	lda	*___fsmul_sloc0_1_0
   014D B9*04               264 	adc	*___fsmul_sloc1_1_0
   014F B7*04               265 	sta	*___fsmul_sloc1_1_0
   0151 B6*07               266 	lda	*(___fsmul_sloc1_1_0 + 3)
   0153 C7s00r15            267 	sta	(___fsmul_exp_1_1 + 1)
   0156 B6*06               268 	lda	*(___fsmul_sloc1_1_0 + 2)
   0158 C7s00r14            269 	sta	___fsmul_exp_1_1
                            270 ;../_fsmul.c:258: fl1.l = MANT (fl1.l);
   015B C6s00r08            271 	lda	___fsmul_fl1_1_1
   015E B7*04               272 	sta	*___fsmul_sloc1_1_0
   0160 C6s00r09            273 	lda	(___fsmul_fl1_1_1 + 1)
   0163 B7*05               274 	sta	*(___fsmul_sloc1_1_0 + 1)
   0165 C6s00r0A            275 	lda	(___fsmul_fl1_1_1 + 2)
   0168 B7*06               276 	sta	*(___fsmul_sloc1_1_0 + 2)
   016A C6s00r0B            277 	lda	(___fsmul_fl1_1_1 + 3)
   016D B7*07               278 	sta	*(___fsmul_sloc1_1_0 + 3)
   016F B6*05               279 	lda	*(___fsmul_sloc1_1_0 + 1)
   0171 A4 7F               280 	and	#0x7F
   0173 B7*05               281 	sta	*(___fsmul_sloc1_1_0 + 1)
   0175 3F*04               282 	clr	*___fsmul_sloc1_1_0
   0177 1E*05               283 	bset	#7,*(___fsmul_sloc1_1_0 + 1)
   0179 B6*04               284 	lda	*___fsmul_sloc1_1_0
   017B C7s00r08            285 	sta	___fsmul_fl1_1_1
   017E B6*05               286 	lda	*(___fsmul_sloc1_1_0 + 1)
   0180 C7s00r09            287 	sta	(___fsmul_fl1_1_1 + 1)
   0183 B6*06               288 	lda	*(___fsmul_sloc1_1_0 + 2)
   0185 C7s00r0A            289 	sta	(___fsmul_fl1_1_1 + 2)
   0188 B6*07               290 	lda	*(___fsmul_sloc1_1_0 + 3)
   018A C7s00r0B            291 	sta	(___fsmul_fl1_1_1 + 3)
                            292 ;../_fsmul.c:259: fl2.l = MANT (fl2.l);
   018D C6s00r0C            293 	lda	___fsmul_fl2_1_1
   0190 B7*04               294 	sta	*___fsmul_sloc1_1_0
   0192 C6s00r0D            295 	lda	(___fsmul_fl2_1_1 + 1)
   0195 B7*05               296 	sta	*(___fsmul_sloc1_1_0 + 1)
   0197 C6s00r0E            297 	lda	(___fsmul_fl2_1_1 + 2)
   019A B7*06               298 	sta	*(___fsmul_sloc1_1_0 + 2)
   019C C6s00r0F            299 	lda	(___fsmul_fl2_1_1 + 3)
   019F B7*07               300 	sta	*(___fsmul_sloc1_1_0 + 3)
   01A1 B6*05               301 	lda	*(___fsmul_sloc1_1_0 + 1)
   01A3 A4 7F               302 	and	#0x7F
   01A5 B7*05               303 	sta	*(___fsmul_sloc1_1_0 + 1)
   01A7 3F*04               304 	clr	*___fsmul_sloc1_1_0
   01A9 1E*05               305 	bset	#7,*(___fsmul_sloc1_1_0 + 1)
   01AB B6*04               306 	lda	*___fsmul_sloc1_1_0
   01AD C7s00r0C            307 	sta	___fsmul_fl2_1_1
   01B0 B6*05               308 	lda	*(___fsmul_sloc1_1_0 + 1)
   01B2 C7s00r0D            309 	sta	(___fsmul_fl2_1_1 + 1)
   01B5 B6*06               310 	lda	*(___fsmul_sloc1_1_0 + 2)
   01B7 C7s00r0E            311 	sta	(___fsmul_fl2_1_1 + 2)
   01BA B6*07               312 	lda	*(___fsmul_sloc1_1_0 + 3)
   01BC C7s00r0F            313 	sta	(___fsmul_fl2_1_1 + 3)
                            314 ;../_fsmul.c:262: result = (fl1.l >> 8) * (fl2.l >> 8);
   01BF C6s00r08            315 	lda	___fsmul_fl1_1_1
   01C2 B7*04               316 	sta	*___fsmul_sloc1_1_0
   01C4 C6s00r09            317 	lda	(___fsmul_fl1_1_1 + 1)
   01C7 B7*05               318 	sta	*(___fsmul_sloc1_1_0 + 1)
   01C9 C6s00r0A            319 	lda	(___fsmul_fl1_1_1 + 2)
   01CC B7*06               320 	sta	*(___fsmul_sloc1_1_0 + 2)
   01CE C6s00r0B            321 	lda	(___fsmul_fl1_1_1 + 3)
   01D1 B7*07               322 	sta	*(___fsmul_sloc1_1_0 + 3)
   01D3 B6*06               323 	lda	*(___fsmul_sloc1_1_0 + 2)
   01D5 C7s00r03            324 	sta	(__mullong_PARM_1 + 3)
   01D8 B6*05               325 	lda	*(___fsmul_sloc1_1_0 + 1)
   01DA C7s00r02            326 	sta	(__mullong_PARM_1 + 2)
   01DD B6*04               327 	lda	*___fsmul_sloc1_1_0
   01DF C7s00r01            328 	sta	(__mullong_PARM_1 + 1)
   01E2 49                  329 	rola
   01E3 4F                  330 	clra
   01E4 A2 00               331 	sbc	#0
   01E6 C7s00r00            332 	sta	__mullong_PARM_1
   01E9 C6s00r0C            333 	lda	___fsmul_fl2_1_1
   01EC B7*04               334 	sta	*___fsmul_sloc1_1_0
   01EE C6s00r0D            335 	lda	(___fsmul_fl2_1_1 + 1)
   01F1 B7*05               336 	sta	*(___fsmul_sloc1_1_0 + 1)
   01F3 C6s00r0E            337 	lda	(___fsmul_fl2_1_1 + 2)
   01F6 B7*06               338 	sta	*(___fsmul_sloc1_1_0 + 2)
   01F8 C6s00r0F            339 	lda	(___fsmul_fl2_1_1 + 3)
   01FB B7*07               340 	sta	*(___fsmul_sloc1_1_0 + 3)
   01FD B6*06               341 	lda	*(___fsmul_sloc1_1_0 + 2)
   01FF C7s00r03            342 	sta	(__mullong_PARM_2 + 3)
   0202 B6*05               343 	lda	*(___fsmul_sloc1_1_0 + 1)
   0204 C7s00r02            344 	sta	(__mullong_PARM_2 + 2)
   0207 B6*04               345 	lda	*___fsmul_sloc1_1_0
   0209 C7s00r01            346 	sta	(__mullong_PARM_2 + 1)
   020C 49                  347 	rola
   020D 4F                  348 	clra
   020E A2 00               349 	sbc	#0
   0210 C7s00r00            350 	sta	__mullong_PARM_2
   0213 CDs00r00            351 	jsr	__mullong
   0216 C7s00r13            352 	sta	(___fsmul_result_1_1 + 3)
   0219 CFs00r12            353 	stx	(___fsmul_result_1_1 + 2)
   021C B6*00               354 	lda	*__ret2
   021E C7s00r11            355 	sta	(___fsmul_result_1_1 + 1)
   0221 B6*00               356 	lda	*__ret3
   0223 C7s00r10            357 	sta	___fsmul_result_1_1
                            358 ;../_fsmul.c:263: result += ((fl1.l & (unsigned long) 0xFF) * (fl2.l >> 8)) >> 8;
   0226 C6s00r08            359 	lda	___fsmul_fl1_1_1
   0229 B7*04               360 	sta	*___fsmul_sloc1_1_0
   022B C6s00r09            361 	lda	(___fsmul_fl1_1_1 + 1)
   022E B7*05               362 	sta	*(___fsmul_sloc1_1_0 + 1)
   0230 C6s00r0A            363 	lda	(___fsmul_fl1_1_1 + 2)
   0233 B7*06               364 	sta	*(___fsmul_sloc1_1_0 + 2)
   0235 C6s00r0B            365 	lda	(___fsmul_fl1_1_1 + 3)
   0238 B7*07               366 	sta	*(___fsmul_sloc1_1_0 + 3)
   023A B6*07               367 	lda	*(___fsmul_sloc1_1_0 + 3)
   023C C7s00r03            368 	sta	(__mullong_PARM_1 + 3)
   023F 4F                  369 	clra
   0240 C7s00r02            370 	sta	(__mullong_PARM_1 + 2)
   0243 C7s00r01            371 	sta	(__mullong_PARM_1 + 1)
   0246 C7s00r00            372 	sta	__mullong_PARM_1
   0249 C6s00r0C            373 	lda	___fsmul_fl2_1_1
   024C B7*04               374 	sta	*___fsmul_sloc1_1_0
   024E C6s00r0D            375 	lda	(___fsmul_fl2_1_1 + 1)
   0251 B7*05               376 	sta	*(___fsmul_sloc1_1_0 + 1)
   0253 C6s00r0E            377 	lda	(___fsmul_fl2_1_1 + 2)
   0256 B7*06               378 	sta	*(___fsmul_sloc1_1_0 + 2)
   0258 C6s00r0F            379 	lda	(___fsmul_fl2_1_1 + 3)
   025B B7*07               380 	sta	*(___fsmul_sloc1_1_0 + 3)
   025D B6*06               381 	lda	*(___fsmul_sloc1_1_0 + 2)
   025F C7s00r03            382 	sta	(__mullong_PARM_2 + 3)
   0262 B6*05               383 	lda	*(___fsmul_sloc1_1_0 + 1)
   0264 C7s00r02            384 	sta	(__mullong_PARM_2 + 2)
   0267 B6*04               385 	lda	*___fsmul_sloc1_1_0
   0269 C7s00r01            386 	sta	(__mullong_PARM_2 + 1)
   026C 49                  387 	rola
   026D 4F                  388 	clra
   026E A2 00               389 	sbc	#0
   0270 C7s00r00            390 	sta	__mullong_PARM_2
   0273 CDs00r00            391 	jsr	__mullong
   0276 B7*07               392 	sta	*(___fsmul_sloc1_1_0 + 3)
   0278 BF*06               393 	stx	*(___fsmul_sloc1_1_0 + 2)
   027A 4E*00*05            394 	mov	*__ret2,*(___fsmul_sloc1_1_0 + 1)
   027D 4E*00*04            395 	mov	*__ret3,*___fsmul_sloc1_1_0
   0280 4E*06*07            396 	mov	*(___fsmul_sloc1_1_0 + 2),*(___fsmul_sloc1_1_0 + 3)
   0283 4E*05*06            397 	mov	*(___fsmul_sloc1_1_0 + 1),*(___fsmul_sloc1_1_0 + 2)
   0286 B6*04               398 	lda	*___fsmul_sloc1_1_0
   0288 B7*05               399 	sta	*(___fsmul_sloc1_1_0 + 1)
   028A 3F*04               400 	clr	*___fsmul_sloc1_1_0
   028C C6s00r13            401 	lda	(___fsmul_result_1_1 + 3)
   028F BB*07               402 	add	*(___fsmul_sloc1_1_0 + 3)
   0291 C7s00r13            403 	sta	(___fsmul_result_1_1 + 3)
   0294 C6s00r12            404 	lda	(___fsmul_result_1_1 + 2)
   0297 B9*06               405 	adc	*(___fsmul_sloc1_1_0 + 2)
   0299 C7s00r12            406 	sta	(___fsmul_result_1_1 + 2)
   029C C6s00r11            407 	lda	(___fsmul_result_1_1 + 1)
   029F B9*05               408 	adc	*(___fsmul_sloc1_1_0 + 1)
   02A1 C7s00r11            409 	sta	(___fsmul_result_1_1 + 1)
   02A4 C6s00r10            410 	lda	___fsmul_result_1_1
   02A7 B9*04               411 	adc	*___fsmul_sloc1_1_0
   02A9 C7s00r10            412 	sta	___fsmul_result_1_1
                            413 ;../_fsmul.c:264: result += ((fl2.l & (unsigned long) 0xFF) * (fl1.l >> 8)) >> 8;
   02AC C6s00r0C            414 	lda	___fsmul_fl2_1_1
   02AF B7*04               415 	sta	*___fsmul_sloc1_1_0
   02B1 C6s00r0D            416 	lda	(___fsmul_fl2_1_1 + 1)
   02B4 B7*05               417 	sta	*(___fsmul_sloc1_1_0 + 1)
   02B6 C6s00r0E            418 	lda	(___fsmul_fl2_1_1 + 2)
   02B9 B7*06               419 	sta	*(___fsmul_sloc1_1_0 + 2)
   02BB C6s00r0F            420 	lda	(___fsmul_fl2_1_1 + 3)
   02BE B7*07               421 	sta	*(___fsmul_sloc1_1_0 + 3)
   02C0 B6*07               422 	lda	*(___fsmul_sloc1_1_0 + 3)
   02C2 C7s00r03            423 	sta	(__mullong_PARM_1 + 3)
   02C5 4F                  424 	clra
   02C6 C7s00r02            425 	sta	(__mullong_PARM_1 + 2)
   02C9 C7s00r01            426 	sta	(__mullong_PARM_1 + 1)
   02CC C7s00r00            427 	sta	__mullong_PARM_1
   02CF C6s00r08            428 	lda	___fsmul_fl1_1_1
   02D2 B7*04               429 	sta	*___fsmul_sloc1_1_0
   02D4 C6s00r09            430 	lda	(___fsmul_fl1_1_1 + 1)
   02D7 B7*05               431 	sta	*(___fsmul_sloc1_1_0 + 1)
   02D9 C6s00r0A            432 	lda	(___fsmul_fl1_1_1 + 2)
   02DC B7*06               433 	sta	*(___fsmul_sloc1_1_0 + 2)
   02DE C6s00r0B            434 	lda	(___fsmul_fl1_1_1 + 3)
   02E1 B7*07               435 	sta	*(___fsmul_sloc1_1_0 + 3)
   02E3 B6*06               436 	lda	*(___fsmul_sloc1_1_0 + 2)
   02E5 C7s00r03            437 	sta	(__mullong_PARM_2 + 3)
   02E8 B6*05               438 	lda	*(___fsmul_sloc1_1_0 + 1)
   02EA C7s00r02            439 	sta	(__mullong_PARM_2 + 2)
   02ED B6*04               440 	lda	*___fsmul_sloc1_1_0
   02EF C7s00r01            441 	sta	(__mullong_PARM_2 + 1)
   02F2 49                  442 	rola
   02F3 4F                  443 	clra
   02F4 A2 00               444 	sbc	#0
   02F6 C7s00r00            445 	sta	__mullong_PARM_2
   02F9 CDs00r00            446 	jsr	__mullong
   02FC B7*07               447 	sta	*(___fsmul_sloc1_1_0 + 3)
   02FE BF*06               448 	stx	*(___fsmul_sloc1_1_0 + 2)
   0300 4E*00*05            449 	mov	*__ret2,*(___fsmul_sloc1_1_0 + 1)
   0303 4E*00*04            450 	mov	*__ret3,*___fsmul_sloc1_1_0
   0306 4E*06*07            451 	mov	*(___fsmul_sloc1_1_0 + 2),*(___fsmul_sloc1_1_0 + 3)
   0309 4E*05*06            452 	mov	*(___fsmul_sloc1_1_0 + 1),*(___fsmul_sloc1_1_0 + 2)
   030C B6*04               453 	lda	*___fsmul_sloc1_1_0
   030E B7*05               454 	sta	*(___fsmul_sloc1_1_0 + 1)
   0310 3F*04               455 	clr	*___fsmul_sloc1_1_0
   0312 C6s00r13            456 	lda	(___fsmul_result_1_1 + 3)
   0315 BB*07               457 	add	*(___fsmul_sloc1_1_0 + 3)
   0317 C7s00r13            458 	sta	(___fsmul_result_1_1 + 3)
   031A C6s00r12            459 	lda	(___fsmul_result_1_1 + 2)
   031D B9*06               460 	adc	*(___fsmul_sloc1_1_0 + 2)
   031F C7s00r12            461 	sta	(___fsmul_result_1_1 + 2)
   0322 C6s00r11            462 	lda	(___fsmul_result_1_1 + 1)
   0325 B9*05               463 	adc	*(___fsmul_sloc1_1_0 + 1)
   0327 C7s00r11            464 	sta	(___fsmul_result_1_1 + 1)
   032A C6s00r10            465 	lda	___fsmul_result_1_1
   032D B9*04               466 	adc	*___fsmul_sloc1_1_0
   032F C7s00r10            467 	sta	___fsmul_result_1_1
                            468 ;../_fsmul.c:267: result += 0x40;
   0332 C6s00r13            469 	lda	(___fsmul_result_1_1 + 3)
   0335 AB 40               470 	add	#0x40
   0337 C7s00r13            471 	sta	(___fsmul_result_1_1 + 3)
   033A 24 19               472 	bcc	00127$
   033C C6s00r12            473 	lda	(___fsmul_result_1_1 + 2)
   033F 4C                  474 	inca
   0340 C7s00r12            475 	sta	(___fsmul_result_1_1 + 2)
   0343 26 10               476 	bne	00127$
   0345 C6s00r11            477 	lda	(___fsmul_result_1_1 + 1)
   0348 4C                  478 	inca
   0349 C7s00r11            479 	sta	(___fsmul_result_1_1 + 1)
   034C 26 07               480 	bne	00127$
   034E C6s00r10            481 	lda	___fsmul_result_1_1
   0351 4C                  482 	inca
   0352 C7s00r10            483 	sta	___fsmul_result_1_1
   0355                     484 00127$:
                            485 ;../_fsmul.c:269: if (result & SIGNBIT)
   0355 4F                  486 	clra
   0356 87                  487 	psha
   0357 C6s00r13            488 	lda	(___fsmul_result_1_1 + 3)
   035A A4 00               489 	and	#0x00
   035C 9E EA 01            490 	ora	1,s
   035F 9E E7 01            491 	sta	1,s
   0362 C6s00r12            492 	lda	(___fsmul_result_1_1 + 2)
   0365 A4 00               493 	and	#0x00
   0367 9E EA 01            494 	ora	1,s
   036A 9E E7 01            495 	sta	1,s
   036D C6s00r11            496 	lda	(___fsmul_result_1_1 + 1)
   0370 A4 00               497 	and	#0x00
   0372 9E EA 01            498 	ora	1,s
   0375 9E E7 01            499 	sta	1,s
   0378 C6s00r10            500 	lda	___fsmul_result_1_1
   037B A4 80               501 	and	#0x80
   037D 9E EA 01            502 	ora	1,s
   0380 9E E7 01            503 	sta	1,s
   0383 86                  504 	pula
   0384 4D                  505 	tsta
   0385 27 3B               506 	beq	00105$
   0387                     507 00128$:
                            508 ;../_fsmul.c:272: result += 0x40;
   0387 C6s00r13            509 	lda	(___fsmul_result_1_1 + 3)
   038A AB 40               510 	add	#0x40
   038C C7s00r13            511 	sta	(___fsmul_result_1_1 + 3)
   038F 24 19               512 	bcc	00129$
   0391 C6s00r12            513 	lda	(___fsmul_result_1_1 + 2)
   0394 4C                  514 	inca
   0395 C7s00r12            515 	sta	(___fsmul_result_1_1 + 2)
   0398 26 10               516 	bne	00129$
   039A C6s00r11            517 	lda	(___fsmul_result_1_1 + 1)
   039D 4C                  518 	inca
   039E C7s00r11            519 	sta	(___fsmul_result_1_1 + 1)
   03A1 26 07               520 	bne	00129$
   03A3 C6s00r10            521 	lda	___fsmul_result_1_1
   03A6 4C                  522 	inca
   03A7 C7s00r10            523 	sta	___fsmul_result_1_1
   03AA                     524 00129$:
                            525 ;../_fsmul.c:273: result >>= 8;
   03AA C6s00r12            526 	lda	(___fsmul_result_1_1 + 2)
   03AD C7s00r13            527 	sta	(___fsmul_result_1_1 + 3)
   03B0 C6s00r11            528 	lda	(___fsmul_result_1_1 + 1)
   03B3 C7s00r12            529 	sta	(___fsmul_result_1_1 + 2)
   03B6 C6s00r10            530 	lda	___fsmul_result_1_1
   03B9 C7s00r11            531 	sta	(___fsmul_result_1_1 + 1)
   03BC 4F                  532 	clra
   03BD C7s00r10            533 	sta	___fsmul_result_1_1
   03C0 20 3C               534 	bra	00106$
   03C2                     535 00105$:
                            536 ;../_fsmul.c:277: result >>= 7;
   03C2 C6s00r13            537 	lda	(___fsmul_result_1_1 + 3)
   03C5 CEs00r12            538 	ldx	(___fsmul_result_1_1 + 2)
   03C8 48                  539 	lsla
   03C9 9F                  540 	txa
   03CA 49                  541 	rola
   03CB 5F                  542 	clrx
   03CC 59                  543 	rolx
   03CD C7s00r13            544 	sta	(___fsmul_result_1_1 + 3)
   03D0 CFs00r12            545 	stx	(___fsmul_result_1_1 + 2)
   03D3 C6s00r11            546 	lda	(___fsmul_result_1_1 + 1)
   03D6 48                  547 	lsla	
   03D7 CAs00r12            548 	ora	(___fsmul_result_1_1 + 2)
   03DA C7s00r12            549 	sta	(___fsmul_result_1_1 + 2)
   03DD C6s00r11            550 	lda	(___fsmul_result_1_1 + 1)
   03E0 CEs00r10            551 	ldx	___fsmul_result_1_1
   03E3 48                  552 	lsla
   03E4 9F                  553 	txa
   03E5 49                  554 	rola
   03E6 5F                  555 	clrx
   03E7 59                  556 	rolx
   03E8 C7s00r11            557 	sta	(___fsmul_result_1_1 + 1)
   03EB CFs00r10            558 	stx	___fsmul_result_1_1
                            559 ;../_fsmul.c:278: exp--;
   03EE C6s00r15            560 	lda	(___fsmul_exp_1_1 + 1)
   03F1 A0 01               561 	sub	#0x01
   03F3 C7s00r15            562 	sta	(___fsmul_exp_1_1 + 1)
   03F6 C6s00r14            563 	lda	___fsmul_exp_1_1
   03F9 A2 00               564 	sbc	#0x00
   03FB C7s00r14            565 	sta	___fsmul_exp_1_1
   03FE                     566 00106$:
                            567 ;../_fsmul.c:281: result &= ~HIDDEN;
   03FE C6s00r13            568 	lda	(___fsmul_result_1_1 + 3)
   0401 C7s00r13            569 	sta	(___fsmul_result_1_1 + 3)
   0404 C6s00r12            570 	lda	(___fsmul_result_1_1 + 2)
   0407 C7s00r12            571 	sta	(___fsmul_result_1_1 + 2)
   040A C6s00r11            572 	lda	(___fsmul_result_1_1 + 1)
   040D A4 7F               573 	and	#0x7F
   040F C7s00r11            574 	sta	(___fsmul_result_1_1 + 1)
   0412 C6s00r10            575 	lda	___fsmul_result_1_1
   0415 C7s00r10            576 	sta	___fsmul_result_1_1
                            577 ;../_fsmul.c:284: if (exp >= 0x100)
   0418 C6s00r15            578 	lda	(___fsmul_exp_1_1 + 1)
   041B A0 00               579 	sub	#0x00
   041D C6s00r14            580 	lda	___fsmul_exp_1_1
   0420 A2 01               581 	sbc	#0x01
   0422 91 3B               582 	blt	00111$
   0424                     583 00130$:
                            584 ;../_fsmul.c:285: fl1.l = (sign ? SIGNBIT : 0) | __INFINITY;
   0424 C6s00r16            585 	lda	___fsmul_sign_1_1
   0427 27 0B               586 	beq	00115$
   0429                     587 00131$:
   0429 6E 80*04            588 	mov	#0x80,*___fsmul_sloc1_1_0
   042C 3F*05               589 	clr	*(___fsmul_sloc1_1_0 + 1)
   042E 3F*06               590 	clr	*(___fsmul_sloc1_1_0 + 2)
   0430 3F*07               591 	clr	*(___fsmul_sloc1_1_0 + 3)
   0432 20 08               592 	bra	00116$
   0434                     593 00115$:
   0434 3F*04               594 	clr	*___fsmul_sloc1_1_0
   0436 3F*05               595 	clr	*(___fsmul_sloc1_1_0 + 1)
   0438 3F*06               596 	clr	*(___fsmul_sloc1_1_0 + 2)
   043A 3F*07               597 	clr	*(___fsmul_sloc1_1_0 + 3)
   043C                     598 00116$:
   043C B6*05               599 	lda	*(___fsmul_sloc1_1_0 + 1)
   043E AA 80               600 	ora	#0x80
   0440 B7*05               601 	sta	*(___fsmul_sloc1_1_0 + 1)
   0442 B6*04               602 	lda	*___fsmul_sloc1_1_0
   0444 AA 7F               603 	ora	#0x7F
   0446 B7*04               604 	sta	*___fsmul_sloc1_1_0
   0448 B6*04               605 	lda	*___fsmul_sloc1_1_0
   044A C7s00r08            606 	sta	___fsmul_fl1_1_1
   044D B6*05               607 	lda	*(___fsmul_sloc1_1_0 + 1)
   044F C7s00r09            608 	sta	(___fsmul_fl1_1_1 + 1)
   0452 B6*06               609 	lda	*(___fsmul_sloc1_1_0 + 2)
   0454 C7s00r0A            610 	sta	(___fsmul_fl1_1_1 + 2)
   0457 B6*07               611 	lda	*(___fsmul_sloc1_1_0 + 3)
   0459 C7s00r0B            612 	sta	(___fsmul_fl1_1_1 + 3)
   045C CCs05r01            613 	jmp	00112$
   045F                     614 00111$:
                            615 ;../_fsmul.c:286: else if (exp < 0)
   045F C6s00r15            616 	lda	(___fsmul_exp_1_1 + 1)
   0462 A0 00               617 	sub	#0x00
   0464 C6s00r14            618 	lda	___fsmul_exp_1_1
   0467 A2 00               619 	sbc	#0x00
   0469 90 10               620 	bge	00108$
   046B                     621 00132$:
                            622 ;../_fsmul.c:287: fl1.l = 0;
   046B 4F                  623 	clra
   046C C7s00r08            624 	sta	___fsmul_fl1_1_1
   046F C7s00r09            625 	sta	(___fsmul_fl1_1_1 + 1)
   0472 C7s00r0A            626 	sta	(___fsmul_fl1_1_1 + 2)
   0475 C7s00r0B            627 	sta	(___fsmul_fl1_1_1 + 3)
   0478 CCs05r01            628 	jmp	00112$
   047B                     629 00108$:
                            630 ;../_fsmul.c:289: fl1.l = PACK (sign ? SIGNBIT : 0 , exp, result);
   047B C6s00r16            631 	lda	___fsmul_sign_1_1
   047E 27 0B               632 	beq	00117$
   0480                     633 00133$:
   0480 6E 80*04            634 	mov	#0x80,*___fsmul_sloc1_1_0
   0483 3F*05               635 	clr	*(___fsmul_sloc1_1_0 + 1)
   0485 3F*06               636 	clr	*(___fsmul_sloc1_1_0 + 2)
   0487 3F*07               637 	clr	*(___fsmul_sloc1_1_0 + 3)
   0489 20 08               638 	bra	00118$
   048B                     639 00117$:
   048B 3F*04               640 	clr	*___fsmul_sloc1_1_0
   048D 3F*05               641 	clr	*(___fsmul_sloc1_1_0 + 1)
   048F 3F*06               642 	clr	*(___fsmul_sloc1_1_0 + 2)
   0491 3F*07               643 	clr	*(___fsmul_sloc1_1_0 + 3)
   0493                     644 00118$:
   0493 C6s00r15            645 	lda	(___fsmul_exp_1_1 + 1)
   0496 B7*03               646 	sta	*(___fsmul_sloc0_1_0 + 3)
   0498 C6s00r14            647 	lda	___fsmul_exp_1_1
   049B B7*02               648 	sta	*(___fsmul_sloc0_1_0 + 2)
   049D C6s00r14            649 	lda	___fsmul_exp_1_1
   04A0 49                  650 	rola	
   04A1 4F                  651 	clra	
   04A2 A2 00               652 	sbc	#0x00
   04A4 B7*01               653 	sta	*(___fsmul_sloc0_1_0 + 1)
   04A6 B7*00               654 	sta	*___fsmul_sloc0_1_0
   04A8 B6*03               655 	lda	*(___fsmul_sloc0_1_0 + 3)
   04AA BE*02               656 	ldx	*(___fsmul_sloc0_1_0 + 2)
   04AC 54                  657 	lsrx
   04AD 46                  658 	rora
   04AE 97                  659 	tax
   04AF 4F                  660 	clra
   04B0 46                  661 	rora
   04B1 B7*01               662 	sta	*(___fsmul_sloc0_1_0 + 1)
   04B3 BF*00               663 	stx	*___fsmul_sloc0_1_0
   04B5 3F*03               664 	clr	*(___fsmul_sloc0_1_0 + 3)
   04B7 3F*02               665 	clr	*(___fsmul_sloc0_1_0 + 2)
   04B9 B6*07               666 	lda	*(___fsmul_sloc1_1_0 + 3)
   04BB BA*03               667 	ora	*(___fsmul_sloc0_1_0 + 3)
   04BD B7*07               668 	sta	*(___fsmul_sloc1_1_0 + 3)
   04BF B6*06               669 	lda	*(___fsmul_sloc1_1_0 + 2)
   04C1 BA*02               670 	ora	*(___fsmul_sloc0_1_0 + 2)
   04C3 B7*06               671 	sta	*(___fsmul_sloc1_1_0 + 2)
   04C5 B6*05               672 	lda	*(___fsmul_sloc1_1_0 + 1)
   04C7 BA*01               673 	ora	*(___fsmul_sloc0_1_0 + 1)
   04C9 B7*05               674 	sta	*(___fsmul_sloc1_1_0 + 1)
   04CB B6*04               675 	lda	*___fsmul_sloc1_1_0
   04CD BA*00               676 	ora	*___fsmul_sloc0_1_0
   04CF B7*04               677 	sta	*___fsmul_sloc1_1_0
   04D1 B6*07               678 	lda	*(___fsmul_sloc1_1_0 + 3)
   04D3 CAs00r13            679 	ora	(___fsmul_result_1_1 + 3)
   04D6 B7*07               680 	sta	*(___fsmul_sloc1_1_0 + 3)
   04D8 B6*06               681 	lda	*(___fsmul_sloc1_1_0 + 2)
   04DA CAs00r12            682 	ora	(___fsmul_result_1_1 + 2)
   04DD B7*06               683 	sta	*(___fsmul_sloc1_1_0 + 2)
   04DF B6*05               684 	lda	*(___fsmul_sloc1_1_0 + 1)
   04E1 CAs00r11            685 	ora	(___fsmul_result_1_1 + 1)
   04E4 B7*05               686 	sta	*(___fsmul_sloc1_1_0 + 1)
   04E6 B6*04               687 	lda	*___fsmul_sloc1_1_0
   04E8 CAs00r10            688 	ora	___fsmul_result_1_1
   04EB B7*04               689 	sta	*___fsmul_sloc1_1_0
   04ED B6*04               690 	lda	*___fsmul_sloc1_1_0
   04EF C7s00r08            691 	sta	___fsmul_fl1_1_1
   04F2 B6*05               692 	lda	*(___fsmul_sloc1_1_0 + 1)
   04F4 C7s00r09            693 	sta	(___fsmul_fl1_1_1 + 1)
   04F7 B6*06               694 	lda	*(___fsmul_sloc1_1_0 + 2)
   04F9 C7s00r0A            695 	sta	(___fsmul_fl1_1_1 + 2)
   04FC B6*07               696 	lda	*(___fsmul_sloc1_1_0 + 3)
   04FE C7s00r0B            697 	sta	(___fsmul_fl1_1_1 + 3)
   0501                     698 00112$:
                            699 ;../_fsmul.c:290: return (fl1.f);
   0501 C6s00r08            700 	lda	___fsmul_fl1_1_1
   0504 B7*04               701 	sta	*___fsmul_sloc1_1_0
   0506 C6s00r09            702 	lda	(___fsmul_fl1_1_1 + 1)
   0509 B7*05               703 	sta	*(___fsmul_sloc1_1_0 + 1)
   050B C6s00r0A            704 	lda	(___fsmul_fl1_1_1 + 2)
   050E B7*06               705 	sta	*(___fsmul_sloc1_1_0 + 2)
   0510 C6s00r0B            706 	lda	(___fsmul_fl1_1_1 + 3)
   0513 B7*07               707 	sta	*(___fsmul_sloc1_1_0 + 3)
   0515 4E*04*00            708 	mov	*___fsmul_sloc1_1_0,*__ret3
   0518 4E*05*00            709 	mov	*(___fsmul_sloc1_1_0 + 1),*__ret2
   051B BE*06               710 	ldx	*(___fsmul_sloc1_1_0 + 2)
   051D B6*07               711 	lda	*(___fsmul_sloc1_1_0 + 3)
   051F                     712 00113$:
   051F 81                  713 	rts
                            714 	.area CSEG (CODE)
                            715 	.area CONST   (CODE)
                            716 	.area XINIT
                            717 	.area CABS    (ABS,CODE)
