                              1 ;--------------------------------------------------------
                              2 ; File Created by SDCC : free open source ANSI-C Compiler
                              3 ; Version 3.0.1 #6227 (Oct  2 2015) (Linux)
                              4 ; This file was generated Fri Oct  2 17:15:22 2015
                              5 ;--------------------------------------------------------
                              6 	.module _itoa
                              7 	.optsdcc -mhc08
                              8 	
                              9 	.area HOME (CODE)
                             10 	.area GSINIT0 (CODE)
                             11 	.area GSINIT (CODE)
                             12 	.area GSFINAL (CODE)
                             13 	.area CSEG (CODE)
                             14 	.area XINIT
                             15 	.area CONST   (CODE)
                             16 	.area DSEG
                             17 	.area OSEG    (OVR)
                             18 	.area BSEG
                             19 	.area XSEG
                             20 	.area XISEG
                             21 ;--------------------------------------------------------
                             22 ; Public variables in this module
                             23 ;--------------------------------------------------------
                             24 	.globl __itoa
                             25 	.globl __uitoa
                             26 	.globl __itoa_PARM_3
                             27 	.globl __itoa_PARM_2
                             28 	.globl __uitoa_PARM_3
                             29 	.globl __uitoa_PARM_2
                             30 ;--------------------------------------------------------
                             31 ;  ram data
                             32 ;--------------------------------------------------------
                             33 	.area DSEG
   0000                      34 __uitoa_sloc0_1_0:
   0000                      35 	.ds 1
   0001                      36 __uitoa_sloc1_1_0:
   0001                      37 	.ds 2
   0003                      38 __uitoa_sloc2_1_0:
   0003                      39 	.ds 2
   0005                      40 __uitoa_sloc3_1_0:
   0005                      41 	.ds 2
   0007                      42 __uitoa_sloc4_1_0:
   0007                      43 	.ds 2
   0009                      44 __itoa_sloc0_1_0:
   0009                      45 	.ds 2
                             46 ;--------------------------------------------------------
                             47 ; overlayable items in  ram 
                             48 ;--------------------------------------------------------
                             49 	.area OSEG    (OVR)
                             50 ;--------------------------------------------------------
                             51 ; absolute external ram data
                             52 ;--------------------------------------------------------
                             53 	.area XABS    (ABS)
                             54 ;--------------------------------------------------------
                             55 ; external initialized ram data
                             56 ;--------------------------------------------------------
                             57 	.area XISEG
                             58 ;--------------------------------------------------------
                             59 ; extended address mode data
                             60 ;--------------------------------------------------------
                             61 	.area XSEG
   0000                      62 __uitoa_PARM_2:
   0000                      63 	.ds 2
   0002                      64 __uitoa_PARM_3:
   0002                      65 	.ds 1
   0003                      66 __uitoa_value_1_1:
   0003                      67 	.ds 2
   0005                      68 __uitoa_index_1_1:
   0005                      69 	.ds 1
   0006                      70 __uitoa_tmp_2_3:
   0006                      71 	.ds 1
   0007                      72 __itoa_PARM_2:
   0007                      73 	.ds 2
   0009                      74 __itoa_PARM_3:
   0009                      75 	.ds 1
   000A                      76 __itoa_value_1_1:
   000A                      77 	.ds 2
                             78 ;--------------------------------------------------------
                             79 ; global & static initialisations
                             80 ;--------------------------------------------------------
                             81 	.area HOME (CODE)
                             82 	.area GSINIT (CODE)
                             83 	.area GSFINAL (CODE)
                             84 	.area GSINIT (CODE)
                             85 ;--------------------------------------------------------
                             86 ; Home
                             87 ;--------------------------------------------------------
                             88 	.area HOME (CODE)
                             89 	.area HOME (CODE)
                             90 ;--------------------------------------------------------
                             91 ; code
                             92 ;--------------------------------------------------------
                             93 	.area CSEG (CODE)
                             94 ;------------------------------------------------------------
                             95 ;Allocation info for local variables in function '_uitoa'
                             96 ;------------------------------------------------------------
                             97 ;sloc0                     Allocated with name '__uitoa_sloc0_1_0'
                             98 ;sloc1                     Allocated with name '__uitoa_sloc1_1_0'
                             99 ;sloc2                     Allocated with name '__uitoa_sloc2_1_0'
                            100 ;sloc3                     Allocated with name '__uitoa_sloc3_1_0'
                            101 ;sloc4                     Allocated with name '__uitoa_sloc4_1_0'
                            102 ;string                    Allocated with name '__uitoa_PARM_2'
                            103 ;radix                     Allocated with name '__uitoa_PARM_3'
                            104 ;value                     Allocated with name '__uitoa_value_1_1'
                            105 ;index                     Allocated with name '__uitoa_index_1_1'
                            106 ;i                         Allocated to registers 
                            107 ;tmp                       Allocated with name '__uitoa_tmp_2_3'
                            108 ;------------------------------------------------------------
                            109 ;../_itoa.c:40: void _uitoa(unsigned int value, char* string, unsigned char radix)
                            110 ;	-----------------------------------------
                            111 ;	 function _uitoa
                            112 ;	-----------------------------------------
   0000                     113 __uitoa:
   0000 C7s00r04            114 	sta	(__uitoa_value_1_1 + 1)
   0003 CFs00r03            115 	stx	__uitoa_value_1_1
                            116 ;../_itoa.c:45: do {
   0006 3F*00               117 	clr	*__uitoa_sloc0_1_0
   0008                     118 00103$:
                            119 ;../_itoa.c:46: string[index] = '0' + (value % radix);
   0008 C6s00r01            120 	lda	(__uitoa_PARM_2 + 1)
   000B BB*00               121 	add	*__uitoa_sloc0_1_0
   000D B7*02               122 	sta	*(__uitoa_sloc1_1_0 + 1)
   000F C6s00r00            123 	lda	__uitoa_PARM_2
   0012 A9 00               124 	adc	#0x00
   0014 B7*01               125 	sta	*__uitoa_sloc1_1_0
   0016 C6s00r02            126 	lda	__uitoa_PARM_3
   0019 C7s00r01            127 	sta	(__moduint_PARM_2 + 1)
   001C 4F                  128 	clra
   001D C7s00r00            129 	sta	__moduint_PARM_2
   0020 CEs00r03            130 	ldx	__uitoa_value_1_1
   0023 C6s00r04            131 	lda	(__uitoa_value_1_1 + 1)
   0026 CDs00r00            132 	jsr	__moduint
   0029 B7*04               133 	sta	*(__uitoa_sloc2_1_0 + 1)
   002B BF*03               134 	stx	*__uitoa_sloc2_1_0
   002D B6*04               135 	lda	*(__uitoa_sloc2_1_0 + 1)
   002F AB 30               136 	add	#0x30
   0031 55*01               137 	ldhx	*__uitoa_sloc1_1_0
   0033 F7                  138 	sta	,x
                            139 ;../_itoa.c:47: if (string[index] > '9')
   0034 C6s00r01            140 	lda	(__uitoa_PARM_2 + 1)
   0037 BB*00               141 	add	*__uitoa_sloc0_1_0
   0039 B7*04               142 	sta	*(__uitoa_sloc2_1_0 + 1)
   003B C6s00r00            143 	lda	__uitoa_PARM_2
   003E A9 00               144 	adc	#0x00
   0040 B7*03               145 	sta	*__uitoa_sloc2_1_0
   0042 55*03               146 	ldhx	*__uitoa_sloc2_1_0
   0044 F6                  147 	lda	,x
   0045 A1 39               148 	cmp	#0x39
   0047 93 24               149 	ble	00102$
   0049                     150 00118$:
                            151 ;../_itoa.c:48: string[index] += 'A' - '9' - 1;
   0049 C6s00r01            152 	lda	(__uitoa_PARM_2 + 1)
   004C BB*00               153 	add	*__uitoa_sloc0_1_0
   004E B7*04               154 	sta	*(__uitoa_sloc2_1_0 + 1)
   0050 C6s00r00            155 	lda	__uitoa_PARM_2
   0053 A9 00               156 	adc	#0x00
   0055 B7*03               157 	sta	*__uitoa_sloc2_1_0
   0057 C6s00r01            158 	lda	(__uitoa_PARM_2 + 1)
   005A BB*00               159 	add	*__uitoa_sloc0_1_0
   005C B7*02               160 	sta	*(__uitoa_sloc1_1_0 + 1)
   005E C6s00r00            161 	lda	__uitoa_PARM_2
   0061 A9 00               162 	adc	#0x00
   0063 B7*01               163 	sta	*__uitoa_sloc1_1_0
   0065 55*01               164 	ldhx	*__uitoa_sloc1_1_0
   0067 F6                  165 	lda	,x
   0068 AB 07               166 	add	#0x07
   006A 55*03               167 	ldhx	*__uitoa_sloc2_1_0
   006C F7                  168 	sta	,x
   006D                     169 00102$:
                            170 ;../_itoa.c:49: value /= radix;
   006D C6s00r02            171 	lda	__uitoa_PARM_3
   0070 C7s00r01            172 	sta	(__divuint_PARM_2 + 1)
   0073 4F                  173 	clra
   0074 C7s00r00            174 	sta	__divuint_PARM_2
   0077 CEs00r03            175 	ldx	__uitoa_value_1_1
   007A C6s00r04            176 	lda	(__uitoa_value_1_1 + 1)
   007D CDs00r00            177 	jsr	__divuint
   0080 C7s00r04            178 	sta	(__uitoa_value_1_1 + 1)
   0083 CFs00r03            179 	stx	__uitoa_value_1_1
                            180 ;../_itoa.c:50: ++index;
   0086 3C*00               181 	inc	*__uitoa_sloc0_1_0
                            182 ;../_itoa.c:51: } while (value != 0);
   0088 C6s00r04            183 	lda	(__uitoa_value_1_1 + 1)
   008B CAs00r03            184 	ora	__uitoa_value_1_1
   008E 27 03               185 	beq	00119$
   0090 CCs00r08            186 	jmp	00103$
   0093                     187 00119$:
                            188 ;../_itoa.c:54: string[index--] = '\0';
   0093 B6*00               189 	lda	*__uitoa_sloc0_1_0
   0095 A0 01               190 	sub	#0x01
   0097 C7s00r05            191 	sta	__uitoa_index_1_1
   009A C6s00r01            192 	lda	(__uitoa_PARM_2 + 1)
   009D BB*00               193 	add	*__uitoa_sloc0_1_0
   009F B7*04               194 	sta	*(__uitoa_sloc2_1_0 + 1)
   00A1 C6s00r00            195 	lda	__uitoa_PARM_2
   00A4 A9 00               196 	adc	#0x00
   00A6 B7*03               197 	sta	*__uitoa_sloc2_1_0
   00A8 55*03               198 	ldhx	*__uitoa_sloc2_1_0
   00AA 4F                  199 	clra
   00AB F7                  200 	sta	,x
                            201 ;../_itoa.c:57: while (index > i) {
   00AC 3F*03               202 	clr	*__uitoa_sloc2_1_0
   00AE C6s00r05            203 	lda	__uitoa_index_1_1
   00B1 B7*01               204 	sta	*__uitoa_sloc1_1_0
   00B3                     205 00106$:
   00B3 B6*01               206 	lda	*__uitoa_sloc1_1_0
   00B5 B1*03               207 	cmp	*__uitoa_sloc2_1_0
   00B7 93 50               208 	ble	00109$
   00B9                     209 00120$:
                            210 ;../_itoa.c:58: char tmp = string[i];
   00B9 C6s00r01            211 	lda	(__uitoa_PARM_2 + 1)
   00BC BB*03               212 	add	*__uitoa_sloc2_1_0
   00BE B7*06               213 	sta	*(__uitoa_sloc3_1_0 + 1)
   00C0 C6s00r00            214 	lda	__uitoa_PARM_2
   00C3 A9 00               215 	adc	#0x00
   00C5 B7*05               216 	sta	*__uitoa_sloc3_1_0
   00C7 55*05               217 	ldhx	*__uitoa_sloc3_1_0
   00C9 F6                  218 	lda	,x
   00CA C7s00r06            219 	sta	__uitoa_tmp_2_3
                            220 ;../_itoa.c:59: string[i] = string[index];
   00CD C6s00r01            221 	lda	(__uitoa_PARM_2 + 1)
   00D0 BB*03               222 	add	*__uitoa_sloc2_1_0
   00D2 B7*06               223 	sta	*(__uitoa_sloc3_1_0 + 1)
   00D4 C6s00r00            224 	lda	__uitoa_PARM_2
   00D7 A9 00               225 	adc	#0x00
   00D9 B7*05               226 	sta	*__uitoa_sloc3_1_0
   00DB C6s00r01            227 	lda	(__uitoa_PARM_2 + 1)
   00DE BB*01               228 	add	*__uitoa_sloc1_1_0
   00E0 B7*08               229 	sta	*(__uitoa_sloc4_1_0 + 1)
   00E2 C6s00r00            230 	lda	__uitoa_PARM_2
   00E5 A9 00               231 	adc	#0x00
   00E7 B7*07               232 	sta	*__uitoa_sloc4_1_0
   00E9 55*07               233 	ldhx	*__uitoa_sloc4_1_0
   00EB F6                  234 	lda	,x
   00EC 55*05               235 	ldhx	*__uitoa_sloc3_1_0
   00EE F7                  236 	sta	,x
                            237 ;../_itoa.c:60: string[index] = tmp;
   00EF C6s00r01            238 	lda	(__uitoa_PARM_2 + 1)
   00F2 BB*01               239 	add	*__uitoa_sloc1_1_0
   00F4 B7*08               240 	sta	*(__uitoa_sloc4_1_0 + 1)
   00F6 C6s00r00            241 	lda	__uitoa_PARM_2
   00F9 A9 00               242 	adc	#0x00
   00FB B7*07               243 	sta	*__uitoa_sloc4_1_0
   00FD 55*07               244 	ldhx	*__uitoa_sloc4_1_0
   00FF C6s00r06            245 	lda	__uitoa_tmp_2_3
   0102 F7                  246 	sta	,x
                            247 ;../_itoa.c:61: ++i;
   0103 3C*03               248 	inc	*__uitoa_sloc2_1_0
                            249 ;../_itoa.c:62: --index;
   0105 3A*01               250 	dec	*__uitoa_sloc1_1_0
   0107 20 AA               251 	bra	00106$
   0109                     252 00109$:
   0109 81                  253 	rts
                            254 ;------------------------------------------------------------
                            255 ;Allocation info for local variables in function '_itoa'
                            256 ;------------------------------------------------------------
                            257 ;sloc0                     Allocated with name '__itoa_sloc0_1_0'
                            258 ;string                    Allocated with name '__itoa_PARM_2'
                            259 ;radix                     Allocated with name '__itoa_PARM_3'
                            260 ;value                     Allocated with name '__itoa_value_1_1'
                            261 ;------------------------------------------------------------
                            262 ;../_itoa.c:66: void _itoa(int value, char* string, unsigned char radix)
                            263 ;	-----------------------------------------
                            264 ;	 function _itoa
                            265 ;	-----------------------------------------
   010A                     266 __itoa:
   010A C7s00r0B            267 	sta	(__itoa_value_1_1 + 1)
   010D CFs00r0A            268 	stx	__itoa_value_1_1
                            269 ;../_itoa.c:68: if (value < 0 && radix == 10) {
   0110 C6s00r0A            270 	lda	__itoa_value_1_1
   0113 A0 00               271 	sub	#0x00
   0115 90 32               272 	bge	00102$
   0117                     273 00108$:
   0117 C6s00r09            274 	lda	__itoa_PARM_3
   011A A1 0A               275 	cmp	#0x0A
   011C 26 2B               276 	bne	00102$
   011E                     277 00109$:
                            278 ;../_itoa.c:69: *string++ = '-';
   011E C6s00r07            279 	lda	__itoa_PARM_2
   0121 B7*09               280 	sta	*__itoa_sloc0_1_0
   0123 C6s00r08            281 	lda	(__itoa_PARM_2 + 1)
   0126 B7*0A               282 	sta	*(__itoa_sloc0_1_0 + 1)
   0128 55*09               283 	ldhx	*__itoa_sloc0_1_0
   012A A6 2D               284 	lda	#0x2D
   012C F7                  285 	sta	,x
   012D B6*0A               286 	lda	*(__itoa_sloc0_1_0 + 1)
   012F AB 01               287 	add	#0x01
   0131 C7s00r08            288 	sta	(__itoa_PARM_2 + 1)
   0134 B6*09               289 	lda	*__itoa_sloc0_1_0
   0136 A9 00               290 	adc	#0x00
   0138 C7s00r07            291 	sta	__itoa_PARM_2
                            292 ;../_itoa.c:70: value = -value;
   013B 4F                  293 	clra
   013C C0s00r0B            294 	sub	(__itoa_value_1_1 + 1)
   013F C7s00r0B            295 	sta	(__itoa_value_1_1 + 1)
   0142 4F                  296 	clra
   0143 C2s00r0A            297 	sbc	__itoa_value_1_1
   0146 C7s00r0A            298 	sta	__itoa_value_1_1
   0149                     299 00102$:
                            300 ;../_itoa.c:72: _uitoa(value, string, radix);
   0149 C6s00r07            301 	lda	__itoa_PARM_2
   014C C7s00r00            302 	sta	__uitoa_PARM_2
   014F C6s00r08            303 	lda	(__itoa_PARM_2 + 1)
   0152 C7s00r01            304 	sta	(__uitoa_PARM_2 + 1)
   0155 C6s00r09            305 	lda	__itoa_PARM_3
   0158 C7s00r02            306 	sta	__uitoa_PARM_3
   015B CEs00r0A            307 	ldx	__itoa_value_1_1
   015E C6s00r0B            308 	lda	(__itoa_value_1_1 + 1)
   0161 CDs00r00            309 	jsr	__uitoa
   0164                     310 00104$:
   0164 81                  311 	rts
                            312 	.area CSEG (CODE)
                            313 	.area CONST   (CODE)
                            314 	.area XINIT
                            315 	.area CABS    (ABS,CODE)
