                              1 ;--------------------------------------------------------
                              2 ; File Created by SDCC : free open source ANSI-C Compiler
                              3 ; Version 3.0.1 #6227 (Oct  2 2015) (Linux)
                              4 ; This file was generated Fri Oct  2 17:15:21 2015
                              5 ;--------------------------------------------------------
                              6 	.module atan2f
                              7 	.optsdcc -mhc08
                              8 	
                              9 	.area HOME (CODE)
                             10 	.area GSINIT0 (CODE)
                             11 	.area GSINIT (CODE)
                             12 	.area GSFINAL (CODE)
                             13 	.area CSEG (CODE)
                             14 	.area XINIT
                             15 	.area CONST   (CODE)
                             16 	.area DSEG
                             17 	.area OSEG    (OVR)
                             18 	.area BSEG
                             19 	.area XSEG
                             20 	.area XISEG
                             21 ;--------------------------------------------------------
                             22 ; Public variables in this module
                             23 ;--------------------------------------------------------
                             24 	.globl _atan2f_PARM_2
                             25 	.globl _atan2f_PARM_1
                             26 	.globl _atan2f
                             27 ;--------------------------------------------------------
                             28 ;  ram data
                             29 ;--------------------------------------------------------
                             30 	.area DSEG
   0000                      31 _atan2f_sloc0_1_0:
   0000                      32 	.ds 1
   0001                      33 _atan2f_sloc1_1_0:
   0001                      34 	.ds 4
                             35 ;--------------------------------------------------------
                             36 ; overlayable items in  ram 
                             37 ;--------------------------------------------------------
                             38 	.area OSEG    (OVR)
                             39 ;--------------------------------------------------------
                             40 ; absolute external ram data
                             41 ;--------------------------------------------------------
                             42 	.area XABS    (ABS)
                             43 ;--------------------------------------------------------
                             44 ; external initialized ram data
                             45 ;--------------------------------------------------------
                             46 	.area XISEG
                             47 ;--------------------------------------------------------
                             48 ; extended address mode data
                             49 ;--------------------------------------------------------
                             50 	.area XSEG
   0000                      51 _atan2f_PARM_1:
   0000                      52 	.ds 4
   0004                      53 _atan2f_PARM_2:
   0004                      54 	.ds 4
   0008                      55 _atan2f_r_1_1:
   0008                      56 	.ds 4
                             57 ;--------------------------------------------------------
                             58 ; global & static initialisations
                             59 ;--------------------------------------------------------
                             60 	.area HOME (CODE)
                             61 	.area GSINIT (CODE)
                             62 	.area GSFINAL (CODE)
                             63 	.area GSINIT (CODE)
                             64 ;--------------------------------------------------------
                             65 ; Home
                             66 ;--------------------------------------------------------
                             67 	.area HOME (CODE)
                             68 	.area HOME (CODE)
                             69 ;--------------------------------------------------------
                             70 ; code
                             71 ;--------------------------------------------------------
                             72 	.area CSEG (CODE)
                             73 ;------------------------------------------------------------
                             74 ;Allocation info for local variables in function 'atan2f'
                             75 ;------------------------------------------------------------
                             76 ;sloc0                     Allocated with name '_atan2f_sloc0_1_0'
                             77 ;sloc1                     Allocated with name '_atan2f_sloc1_1_0'
                             78 ;x                         Allocated with name '_atan2f_PARM_1'
                             79 ;y                         Allocated with name '_atan2f_PARM_2'
                             80 ;r                         Allocated with name '_atan2f_r_1_1'
                             81 ;------------------------------------------------------------
                             82 ;../atan2f.c:34: float atan2f(const float x, const float y)
                             83 ;	-----------------------------------------
                             84 ;	 function atan2f
                             85 ;	-----------------------------------------
   0000                      86 _atan2f:
                             87 ;../atan2f.c:38: if ((x==0.0) && (y==0.0))
   0000 C6s00r03             88 	lda	(_atan2f_PARM_1 + 3)
   0003 CAs00r02             89 	ora	(_atan2f_PARM_1 + 2)
   0006 CAs00r01             90 	ora	(_atan2f_PARM_1 + 1)
   0009 CAs00r00             91 	ora	_atan2f_PARM_1
   000C 26 1E                92 	bne	00102$
   000E                      93 00121$:
   000E C6s00r07             94 	lda	(_atan2f_PARM_2 + 3)
   0011 CAs00r06             95 	ora	(_atan2f_PARM_2 + 2)
   0014 CAs00r05             96 	ora	(_atan2f_PARM_2 + 1)
   0017 CAs00r04             97 	ora	_atan2f_PARM_2
   001A 26 10                98 	bne	00102$
   001C                      99 00122$:
                            100 ;../atan2f.c:40: errno=EDOM;
   001C 4F                  101 	clra
   001D C7s00r00            102 	sta	_errno
   0020 A6 21               103 	lda	#0x21
   0022 C7s00r01            104 	sta	(_errno + 1)
                            105 ;../atan2f.c:41: return 0.0;
   0025 3F*00               106 	clr	*__ret3
   0027 3F*00               107 	clr	*__ret2
   0029 5F                  108 	clrx
   002A 4F                  109 	clra
   002B 81                  110 	rts
   002C                     111 00102$:
                            112 ;../atan2f.c:44: if(fabsf(y)>=fabsf(x))
   002C C6s00r07            113 	lda	(_atan2f_PARM_2 + 3)
   002F 87                  114 	psha
   0030 C6s00r06            115 	lda	(_atan2f_PARM_2 + 2)
   0033 87                  116 	psha
   0034 C6s00r05            117 	lda	(_atan2f_PARM_2 + 1)
   0037 87                  118 	psha
   0038 C6s00r04            119 	lda	_atan2f_PARM_2
   003B 87                  120 	psha
   003C CDs00r00            121 	jsr	_fabsf
   003F C7s00r03            122 	sta	(___fslt_PARM_1 + 3)
   0042 CFs00r02            123 	stx	(___fslt_PARM_1 + 2)
   0045 B6*00               124 	lda	*__ret2
   0047 C7s00r01            125 	sta	(___fslt_PARM_1 + 1)
   004A B6*00               126 	lda	*__ret3
   004C C7s00r00            127 	sta	___fslt_PARM_1
   004F A7 04               128 	ais	#4
   0051 C6s00r03            129 	lda	(_atan2f_PARM_1 + 3)
   0054 87                  130 	psha
   0055 C6s00r02            131 	lda	(_atan2f_PARM_1 + 2)
   0058 87                  132 	psha
   0059 C6s00r01            133 	lda	(_atan2f_PARM_1 + 1)
   005C 87                  134 	psha
   005D C6s00r00            135 	lda	_atan2f_PARM_1
   0060 87                  136 	psha
   0061 CDs00r00            137 	jsr	_fabsf
   0064 C7s00r03            138 	sta	(___fslt_PARM_2 + 3)
   0067 CFs00r02            139 	stx	(___fslt_PARM_2 + 2)
   006A B6*00               140 	lda	*__ret2
   006C C7s00r01            141 	sta	(___fslt_PARM_2 + 1)
   006F B6*00               142 	lda	*__ret3
   0071 C7s00r00            143 	sta	___fslt_PARM_2
   0074 A7 04               144 	ais	#4
   0076 CDs00r00            145 	jsr	___fslt
   0079 B7*00               146 	sta	*_atan2f_sloc0_1_0
   007B 3D*00               147 	tst	*_atan2f_sloc0_1_0
   007D 27 03               148 	beq	00123$
   007F CCs01r9F            149 	jmp	00107$
   0082                     150 00123$:
                            151 ;../atan2f.c:46: r=atanf(x/y);
   0082 C6s00r00            152 	lda	_atan2f_PARM_1
   0085 C7s00r00            153 	sta	___fsdiv_PARM_1
   0088 C6s00r01            154 	lda	(_atan2f_PARM_1 + 1)
   008B C7s00r01            155 	sta	(___fsdiv_PARM_1 + 1)
   008E C6s00r02            156 	lda	(_atan2f_PARM_1 + 2)
   0091 C7s00r02            157 	sta	(___fsdiv_PARM_1 + 2)
   0094 C6s00r03            158 	lda	(_atan2f_PARM_1 + 3)
   0097 C7s00r03            159 	sta	(___fsdiv_PARM_1 + 3)
   009A C6s00r04            160 	lda	_atan2f_PARM_2
   009D C7s00r00            161 	sta	___fsdiv_PARM_2
   00A0 C6s00r05            162 	lda	(_atan2f_PARM_2 + 1)
   00A3 C7s00r01            163 	sta	(___fsdiv_PARM_2 + 1)
   00A6 C6s00r06            164 	lda	(_atan2f_PARM_2 + 2)
   00A9 C7s00r02            165 	sta	(___fsdiv_PARM_2 + 2)
   00AC C6s00r07            166 	lda	(_atan2f_PARM_2 + 3)
   00AF C7s00r03            167 	sta	(___fsdiv_PARM_2 + 3)
   00B2 CDs00r00            168 	jsr	___fsdiv
   00B5 B7*04               169 	sta	*(_atan2f_sloc1_1_0 + 3)
   00B7 BF*03               170 	stx	*(_atan2f_sloc1_1_0 + 2)
   00B9 4E*00*02            171 	mov	*__ret2,*(_atan2f_sloc1_1_0 + 1)
   00BC 4E*00*01            172 	mov	*__ret3,*_atan2f_sloc1_1_0
   00BF B6*04               173 	lda	*(_atan2f_sloc1_1_0 + 3)
   00C1 87                  174 	psha
   00C2 B6*03               175 	lda	*(_atan2f_sloc1_1_0 + 2)
   00C4 87                  176 	psha
   00C5 B6*02               177 	lda	*(_atan2f_sloc1_1_0 + 1)
   00C7 87                  178 	psha
   00C8 B6*01               179 	lda	*_atan2f_sloc1_1_0
   00CA 87                  180 	psha
   00CB CDs00r00            181 	jsr	_atanf
   00CE C7s00r0B            182 	sta	(_atan2f_r_1_1 + 3)
   00D1 CFs00r0A            183 	stx	(_atan2f_r_1_1 + 2)
   00D4 B6*00               184 	lda	*__ret2
   00D6 C7s00r09            185 	sta	(_atan2f_r_1_1 + 1)
   00D9 B6*00               186 	lda	*__ret3
   00DB C7s00r08            187 	sta	_atan2f_r_1_1
   00DE A7 04               188 	ais	#4
                            189 ;../atan2f.c:47: if(y<0.0) r+=(x>=0?PI:-PI);
   00E0 C6s00r04            190 	lda	_atan2f_PARM_2
   00E3 C7s00r00            191 	sta	___fslt_PARM_1
   00E6 C6s00r05            192 	lda	(_atan2f_PARM_2 + 1)
   00E9 C7s00r01            193 	sta	(___fslt_PARM_1 + 1)
   00EC C6s00r06            194 	lda	(_atan2f_PARM_2 + 2)
   00EF C7s00r02            195 	sta	(___fslt_PARM_1 + 2)
   00F2 C6s00r07            196 	lda	(_atan2f_PARM_2 + 3)
   00F5 C7s00r03            197 	sta	(___fslt_PARM_1 + 3)
   00F8 4F                  198 	clra
   00F9 C7s00r00            199 	sta	___fslt_PARM_2
   00FC C7s00r01            200 	sta	(___fslt_PARM_2 + 1)
   00FF C7s00r02            201 	sta	(___fslt_PARM_2 + 2)
   0102 C7s00r03            202 	sta	(___fslt_PARM_2 + 3)
   0105 CDs00r00            203 	jsr	___fslt
   0108 B7*01               204 	sta	*_atan2f_sloc1_1_0
   010A 3D*01               205 	tst	*_atan2f_sloc1_1_0
   010C 26 03               206 	bne	00124$
   010E CCs02r91            207 	jmp	00108$
   0111                     208 00124$:
   0111 C6s00r00            209 	lda	_atan2f_PARM_1
   0114 C7s00r00            210 	sta	___fslt_PARM_1
   0117 C6s00r01            211 	lda	(_atan2f_PARM_1 + 1)
   011A C7s00r01            212 	sta	(___fslt_PARM_1 + 1)
   011D C6s00r02            213 	lda	(_atan2f_PARM_1 + 2)
   0120 C7s00r02            214 	sta	(___fslt_PARM_1 + 2)
   0123 C6s00r03            215 	lda	(_atan2f_PARM_1 + 3)
   0126 C7s00r03            216 	sta	(___fslt_PARM_1 + 3)
   0129 4F                  217 	clra
   012A C7s00r00            218 	sta	___fslt_PARM_2
   012D C7s00r01            219 	sta	(___fslt_PARM_2 + 1)
   0130 C7s00r02            220 	sta	(___fslt_PARM_2 + 2)
   0133 C7s00r03            221 	sta	(___fslt_PARM_2 + 3)
   0136 CDs00r00            222 	jsr	___fslt
   0139 B7*01               223 	sta	*_atan2f_sloc1_1_0
   013B B6*01               224 	lda	*_atan2f_sloc1_1_0
   013D 27 02               225 	beq	00125$
   013F A6 01               226 	lda	#0x01
   0141                     227 00125$:
   0141 A8 01               228 	eor	#0x01
   0143 4D                  229 	tsta
   0144 27 0B               230 	beq	00111$
   0146                     231 00126$:
   0146 3F*01               232 	clr	*_atan2f_sloc1_1_0
   0148 3F*02               233 	clr	*(_atan2f_sloc1_1_0 + 1)
   014A 3F*03               234 	clr	*(_atan2f_sloc1_1_0 + 2)
   014C 6E DB*04            235 	mov	#0xDB,*(_atan2f_sloc1_1_0 + 3)
   014F 20 0C               236 	bra	00112$
   0151                     237 00111$:
   0151 6E C0*01            238 	mov	#0xC0,*_atan2f_sloc1_1_0
   0154 6E 49*02            239 	mov	#0x49,*(_atan2f_sloc1_1_0 + 1)
   0157 6E 0F*03            240 	mov	#0x0F,*(_atan2f_sloc1_1_0 + 2)
   015A 6E DB*04            241 	mov	#0xDB,*(_atan2f_sloc1_1_0 + 3)
   015D                     242 00112$:
   015D C6s00r08            243 	lda	_atan2f_r_1_1
   0160 C7s00r00            244 	sta	___fsadd_PARM_1
   0163 C6s00r09            245 	lda	(_atan2f_r_1_1 + 1)
   0166 C7s00r01            246 	sta	(___fsadd_PARM_1 + 1)
   0169 C6s00r0A            247 	lda	(_atan2f_r_1_1 + 2)
   016C C7s00r02            248 	sta	(___fsadd_PARM_1 + 2)
   016F C6s00r0B            249 	lda	(_atan2f_r_1_1 + 3)
   0172 C7s00r03            250 	sta	(___fsadd_PARM_1 + 3)
   0175 B6*01               251 	lda	*_atan2f_sloc1_1_0
   0177 C7s00r00            252 	sta	___fsadd_PARM_2
   017A B6*02               253 	lda	*(_atan2f_sloc1_1_0 + 1)
   017C C7s00r01            254 	sta	(___fsadd_PARM_2 + 1)
   017F B6*03               255 	lda	*(_atan2f_sloc1_1_0 + 2)
   0181 C7s00r02            256 	sta	(___fsadd_PARM_2 + 2)
   0184 B6*04               257 	lda	*(_atan2f_sloc1_1_0 + 3)
   0186 C7s00r03            258 	sta	(___fsadd_PARM_2 + 3)
   0189 CDs00r00            259 	jsr	___fsadd
   018C C7s00r0B            260 	sta	(_atan2f_r_1_1 + 3)
   018F CFs00r0A            261 	stx	(_atan2f_r_1_1 + 2)
   0192 B6*00               262 	lda	*__ret2
   0194 C7s00r09            263 	sta	(_atan2f_r_1_1 + 1)
   0197 B6*00               264 	lda	*__ret3
   0199 C7s00r08            265 	sta	_atan2f_r_1_1
   019C CCs02r91            266 	jmp	00108$
   019F                     267 00107$:
                            268 ;../atan2f.c:51: r=-atanf(y/x);
   019F C6s00r04            269 	lda	_atan2f_PARM_2
   01A2 C7s00r00            270 	sta	___fsdiv_PARM_1
   01A5 C6s00r05            271 	lda	(_atan2f_PARM_2 + 1)
   01A8 C7s00r01            272 	sta	(___fsdiv_PARM_1 + 1)
   01AB C6s00r06            273 	lda	(_atan2f_PARM_2 + 2)
   01AE C7s00r02            274 	sta	(___fsdiv_PARM_1 + 2)
   01B1 C6s00r07            275 	lda	(_atan2f_PARM_2 + 3)
   01B4 C7s00r03            276 	sta	(___fsdiv_PARM_1 + 3)
   01B7 C6s00r00            277 	lda	_atan2f_PARM_1
   01BA C7s00r00            278 	sta	___fsdiv_PARM_2
   01BD C6s00r01            279 	lda	(_atan2f_PARM_1 + 1)
   01C0 C7s00r01            280 	sta	(___fsdiv_PARM_2 + 1)
   01C3 C6s00r02            281 	lda	(_atan2f_PARM_1 + 2)
   01C6 C7s00r02            282 	sta	(___fsdiv_PARM_2 + 2)
   01C9 C6s00r03            283 	lda	(_atan2f_PARM_1 + 3)
   01CC C7s00r03            284 	sta	(___fsdiv_PARM_2 + 3)
   01CF CDs00r00            285 	jsr	___fsdiv
   01D2 B7*04               286 	sta	*(_atan2f_sloc1_1_0 + 3)
   01D4 BF*03               287 	stx	*(_atan2f_sloc1_1_0 + 2)
   01D6 4E*00*02            288 	mov	*__ret2,*(_atan2f_sloc1_1_0 + 1)
   01D9 4E*00*01            289 	mov	*__ret3,*_atan2f_sloc1_1_0
   01DC B6*04               290 	lda	*(_atan2f_sloc1_1_0 + 3)
   01DE 87                  291 	psha
   01DF B6*03               292 	lda	*(_atan2f_sloc1_1_0 + 2)
   01E1 87                  293 	psha
   01E2 B6*02               294 	lda	*(_atan2f_sloc1_1_0 + 1)
   01E4 87                  295 	psha
   01E5 B6*01               296 	lda	*_atan2f_sloc1_1_0
   01E7 87                  297 	psha
   01E8 CDs00r00            298 	jsr	_atanf
   01EB B7*04               299 	sta	*(_atan2f_sloc1_1_0 + 3)
   01ED BF*03               300 	stx	*(_atan2f_sloc1_1_0 + 2)
   01EF 4E*00*02            301 	mov	*__ret2,*(_atan2f_sloc1_1_0 + 1)
   01F2 4E*00*01            302 	mov	*__ret3,*_atan2f_sloc1_1_0
   01F5 A7 04               303 	ais	#4
   01F7 B6*04               304 	lda	*(_atan2f_sloc1_1_0 + 3)
   01F9 C7s00r0B            305 	sta	(_atan2f_r_1_1 + 3)
   01FC B6*03               306 	lda	*(_atan2f_sloc1_1_0 + 2)
   01FE C7s00r0A            307 	sta	(_atan2f_r_1_1 + 2)
   0201 B6*02               308 	lda	*(_atan2f_sloc1_1_0 + 1)
   0203 C7s00r09            309 	sta	(_atan2f_r_1_1 + 1)
   0206 B6*01               310 	lda	*_atan2f_sloc1_1_0
   0208 A8 80               311 	eor	#0x80
   020A C7s00r08            312 	sta	_atan2f_r_1_1
                            313 ;../atan2f.c:52: r+=(x<0.0?-HALF_PI:HALF_PI);
   020D C6s00r00            314 	lda	_atan2f_PARM_1
   0210 C7s00r00            315 	sta	___fslt_PARM_1
   0213 C6s00r01            316 	lda	(_atan2f_PARM_1 + 1)
   0216 C7s00r01            317 	sta	(___fslt_PARM_1 + 1)
   0219 C6s00r02            318 	lda	(_atan2f_PARM_1 + 2)
   021C C7s00r02            319 	sta	(___fslt_PARM_1 + 2)
   021F C6s00r03            320 	lda	(_atan2f_PARM_1 + 3)
   0222 C7s00r03            321 	sta	(___fslt_PARM_1 + 3)
   0225 4F                  322 	clra
   0226 C7s00r00            323 	sta	___fslt_PARM_2
   0229 C7s00r01            324 	sta	(___fslt_PARM_2 + 1)
   022C C7s00r02            325 	sta	(___fslt_PARM_2 + 2)
   022F C7s00r03            326 	sta	(___fslt_PARM_2 + 3)
   0232 CDs00r00            327 	jsr	___fslt
   0235 B7*01               328 	sta	*_atan2f_sloc1_1_0
   0237 3D*01               329 	tst	*_atan2f_sloc1_1_0
   0239 27 0E               330 	beq	00113$
   023B                     331 00127$:
   023B 6E BF*01            332 	mov	#0xBF,*_atan2f_sloc1_1_0
   023E 6E C9*02            333 	mov	#0xC9,*(_atan2f_sloc1_1_0 + 1)
   0241 6E 0F*03            334 	mov	#0x0F,*(_atan2f_sloc1_1_0 + 2)
   0244 6E DB*04            335 	mov	#0xDB,*(_atan2f_sloc1_1_0 + 3)
   0247 20 09               336 	bra	00114$
   0249                     337 00113$:
   0249 3F*01               338 	clr	*_atan2f_sloc1_1_0
   024B 3F*02               339 	clr	*(_atan2f_sloc1_1_0 + 1)
   024D 3F*03               340 	clr	*(_atan2f_sloc1_1_0 + 2)
   024F 6E DB*04            341 	mov	#0xDB,*(_atan2f_sloc1_1_0 + 3)
   0252                     342 00114$:
   0252 C6s00r08            343 	lda	_atan2f_r_1_1
   0255 C7s00r00            344 	sta	___fsadd_PARM_1
   0258 C6s00r09            345 	lda	(_atan2f_r_1_1 + 1)
   025B C7s00r01            346 	sta	(___fsadd_PARM_1 + 1)
   025E C6s00r0A            347 	lda	(_atan2f_r_1_1 + 2)
   0261 C7s00r02            348 	sta	(___fsadd_PARM_1 + 2)
   0264 C6s00r0B            349 	lda	(_atan2f_r_1_1 + 3)
   0267 C7s00r03            350 	sta	(___fsadd_PARM_1 + 3)
   026A B6*01               351 	lda	*_atan2f_sloc1_1_0
   026C C7s00r00            352 	sta	___fsadd_PARM_2
   026F B6*02               353 	lda	*(_atan2f_sloc1_1_0 + 1)
   0271 C7s00r01            354 	sta	(___fsadd_PARM_2 + 1)
   0274 B6*03               355 	lda	*(_atan2f_sloc1_1_0 + 2)
   0276 C7s00r02            356 	sta	(___fsadd_PARM_2 + 2)
   0279 B6*04               357 	lda	*(_atan2f_sloc1_1_0 + 3)
   027B C7s00r03            358 	sta	(___fsadd_PARM_2 + 3)
   027E CDs00r00            359 	jsr	___fsadd
   0281 C7s00r0B            360 	sta	(_atan2f_r_1_1 + 3)
   0284 CFs00r0A            361 	stx	(_atan2f_r_1_1 + 2)
   0287 B6*00               362 	lda	*__ret2
   0289 C7s00r09            363 	sta	(_atan2f_r_1_1 + 1)
   028C B6*00               364 	lda	*__ret3
   028E C7s00r08            365 	sta	_atan2f_r_1_1
   0291                     366 00108$:
                            367 ;../atan2f.c:54: return r;
   0291 C6s00r08            368 	lda	_atan2f_r_1_1
   0294 B7*00               369 	sta	*__ret3
   0296 C6s00r09            370 	lda	(_atan2f_r_1_1 + 1)
   0299 B7*00               371 	sta	*__ret2
   029B CEs00r0A            372 	ldx	(_atan2f_r_1_1 + 2)
   029E C6s00r0B            373 	lda	(_atan2f_r_1_1 + 3)
   02A1                     374 00109$:
   02A1 81                  375 	rts
                            376 	.area CSEG (CODE)
                            377 	.area CONST   (CODE)
                            378 	.area XINIT
                            379 	.area CABS    (ABS,CODE)
