                              1 ;--------------------------------------------------------
                              2 ; File Created by SDCC : free open source ANSI-C Compiler
                              3 ; Version 3.0.1 #6227 (Oct  2 2015) (Linux)
                              4 ; This file was generated Fri Oct  2 17:15:21 2015
                              5 ;--------------------------------------------------------
                              6 	.module atanf
                              7 	.optsdcc -mhc08
                              8 	
                              9 	.area HOME (CODE)
                             10 	.area GSINIT0 (CODE)
                             11 	.area GSINIT (CODE)
                             12 	.area GSFINAL (CODE)
                             13 	.area CSEG (CODE)
                             14 	.area XINIT
                             15 	.area CONST   (CODE)
                             16 	.area DSEG
                             17 	.area OSEG    (OVR)
                             18 	.area BSEG
                             19 	.area XSEG
                             20 	.area XISEG
                             21 ;--------------------------------------------------------
                             22 ; Public variables in this module
                             23 ;--------------------------------------------------------
                             24 	.globl _atanf
                             25 ;--------------------------------------------------------
                             26 ;  ram data
                             27 ;--------------------------------------------------------
                             28 	.area DSEG
                             29 ;--------------------------------------------------------
                             30 ; overlayable items in  ram 
                             31 ;--------------------------------------------------------
                             32 	.area OSEG    (OVR)
                             33 ;--------------------------------------------------------
                             34 ; absolute external ram data
                             35 ;--------------------------------------------------------
                             36 	.area XABS    (ABS)
                             37 ;--------------------------------------------------------
                             38 ; external initialized ram data
                             39 ;--------------------------------------------------------
                             40 	.area XISEG
                             41 ;--------------------------------------------------------
                             42 ; extended address mode data
                             43 ;--------------------------------------------------------
                             44 	.area XSEG
   0000                      45 _atanf_a_1_1:
   0000                      46 	.ds 16
                             47 ;--------------------------------------------------------
                             48 ; global & static initialisations
                             49 ;--------------------------------------------------------
                             50 	.area HOME (CODE)
                             51 	.area GSINIT (CODE)
                             52 	.area GSFINAL (CODE)
                             53 	.area GSINIT (CODE)
                             54 ;------------------------------------------------------------
                             55 ;Allocation info for local variables in function 'atanf'
                             56 ;------------------------------------------------------------
                             57 ;x                         Allocated to stack - offset 2
                             58 ;f                         Allocated to stack - offset -4
                             59 ;r                         Allocated to stack - offset -8
                             60 ;g                         Allocated to stack - offset -12
                             61 ;n                         Allocated to stack - offset -14
                             62 ;sloc0                     Allocated to stack - offset -15
                             63 ;sloc1                     Allocated to stack - offset -19
                             64 ;a                         Allocated with name '_atanf_a_1_1'
                             65 ;------------------------------------------------------------
                             66 ;../atanf.c:59: static myconst float a[]={  0.0, 0.5235987756, 1.5707963268, 1.0471975512 };
   0000 4F                   67 	clra
   0001 C7s00r00             68 	sta	_atanf_a_1_1
   0004 C7s00r01             69 	sta	(_atanf_a_1_1 + 1)
   0007 C7s00r02             70 	sta	(_atanf_a_1_1 + 2)
   000A C7s00r03             71 	sta	(_atanf_a_1_1 + 3)
   000D A6 3F                72 	lda	#0x3F
   000F C7s00r04             73 	sta	(_atanf_a_1_1 + 0x0004)
   0012 A6 06                74 	lda	#0x06
   0014 C7s00r05             75 	sta	((_atanf_a_1_1 + 0x0004) + 1)
   0017 A6 0A                76 	lda	#0x0A
   0019 C7s00r06             77 	sta	((_atanf_a_1_1 + 0x0004) + 2)
   001C A6 92                78 	lda	#0x92
   001E C7s00r07             79 	sta	((_atanf_a_1_1 + 0x0004) + 3)
   0021 A6 3F                80 	lda	#0x3F
   0023 C7s00r08             81 	sta	(_atanf_a_1_1 + 0x0008)
   0026 A6 C9                82 	lda	#0xC9
   0028 C7s00r09             83 	sta	((_atanf_a_1_1 + 0x0008) + 1)
   002B A6 0F                84 	lda	#0x0F
   002D C7s00r0A             85 	sta	((_atanf_a_1_1 + 0x0008) + 2)
   0030 A6 DB                86 	lda	#0xDB
   0032 C7s00r0B             87 	sta	((_atanf_a_1_1 + 0x0008) + 3)
   0035 A6 3F                88 	lda	#0x3F
   0037 C7s00r0C             89 	sta	(_atanf_a_1_1 + 0x000c)
   003A A6 86                90 	lda	#0x86
   003C C7s00r0D             91 	sta	((_atanf_a_1_1 + 0x000c) + 1)
   003F A6 0A                92 	lda	#0x0A
   0041 C7s00r0E             93 	sta	((_atanf_a_1_1 + 0x000c) + 2)
   0044 A6 92                94 	lda	#0x92
   0046 C7s00r0F             95 	sta	((_atanf_a_1_1 + 0x000c) + 3)
                             96 ;--------------------------------------------------------
                             97 ; Home
                             98 ;--------------------------------------------------------
                             99 	.area HOME (CODE)
                            100 	.area HOME (CODE)
                            101 ;--------------------------------------------------------
                            102 ; code
                            103 ;--------------------------------------------------------
                            104 	.area CSEG (CODE)
                            105 ;------------------------------------------------------------
                            106 ;Allocation info for local variables in function 'atanf'
                            107 ;------------------------------------------------------------
                            108 ;x                         Allocated to stack - offset 2
                            109 ;f                         Allocated to stack - offset -4
                            110 ;r                         Allocated to stack - offset -8
                            111 ;g                         Allocated to stack - offset -12
                            112 ;n                         Allocated to stack - offset -14
                            113 ;sloc0                     Allocated to stack - offset -15
                            114 ;sloc1                     Allocated to stack - offset -19
                            115 ;a                         Allocated with name '_atanf_a_1_1'
                            116 ;------------------------------------------------------------
                            117 ;../atanf.c:55: float atanf(const float x) _FLOAT_FUNC_REENTRANT
                            118 ;	-----------------------------------------
                            119 ;	 function atanf
                            120 ;	-----------------------------------------
   0000                     121 _atanf:
   0000 A7 ED               122 	ais	#-19
                            123 ;../atanf.c:58: int n=0;
   0002 4F                  124 	clra
   0003 9E E7 06            125 	sta	6,s
   0006 4F                  126 	clra
   0007 9E E7 07            127 	sta	7,s
                            128 ;../atanf.c:61: f=fabsf(x);
   000A 9E E6 19            129 	lda	25,s
   000D 87                  130 	psha
   000E 9E E6 19            131 	lda	25,s
   0011 87                  132 	psha
   0012 9E E6 19            133 	lda	25,s
   0015 87                  134 	psha
   0016 9E E6 19            135 	lda	25,s
   0019 87                  136 	psha
   001A CDs00r00            137 	jsr	_fabsf
   001D 9E E7 17            138 	sta	23,s
   0020 9E EF 16            139 	stx	22,s
   0023 B6*00               140 	lda	*__ret2
   0025 9E E7 15            141 	sta	21,s
   0028 B6*00               142 	lda	*__ret3
   002A 9E E7 14            143 	sta	20,s
   002D A7 04               144 	ais	#4
                            145 ;../atanf.c:62: if(f>1.0)
   002F 9E E6 10            146 	lda	16,s
   0032 C7s00r00            147 	sta	___fsgt_PARM_1
   0035 9E E6 11            148 	lda	17,s
   0038 C7s00r01            149 	sta	(___fsgt_PARM_1 + 1)
   003B 9E E6 12            150 	lda	18,s
   003E C7s00r02            151 	sta	(___fsgt_PARM_1 + 2)
   0041 9E E6 13            152 	lda	19,s
   0044 C7s00r03            153 	sta	(___fsgt_PARM_1 + 3)
   0047 A6 3F               154 	lda	#0x3F
   0049 C7s00r00            155 	sta	___fsgt_PARM_2
   004C A6 80               156 	lda	#0x80
   004E C7s00r01            157 	sta	(___fsgt_PARM_2 + 1)
   0051 4F                  158 	clra
   0052 C7s00r02            159 	sta	(___fsgt_PARM_2 + 2)
   0055 C7s00r03            160 	sta	(___fsgt_PARM_2 + 3)
   0058 CDs00r00            161 	jsr	___fsgt
   005B 9E E7 05            162 	sta	5,s
   005E 9E 6D 05            163 	tst	5,s
   0061 27 5D               164 	beq	00102$
   0063                     165 00119$:
                            166 ;../atanf.c:64: f=1.0/f;
   0063 A6 3F               167 	lda	#0x3F
   0065 C7s00r00            168 	sta	___fsdiv_PARM_1
   0068 A6 80               169 	lda	#0x80
   006A C7s00r01            170 	sta	(___fsdiv_PARM_1 + 1)
   006D 4F                  171 	clra
   006E C7s00r02            172 	sta	(___fsdiv_PARM_1 + 2)
   0071 C7s00r03            173 	sta	(___fsdiv_PARM_1 + 3)
   0074 9E E6 10            174 	lda	16,s
   0077 C7s00r00            175 	sta	___fsdiv_PARM_2
   007A 9E E6 11            176 	lda	17,s
   007D C7s00r01            177 	sta	(___fsdiv_PARM_2 + 1)
   0080 9E E6 12            178 	lda	18,s
   0083 C7s00r02            179 	sta	(___fsdiv_PARM_2 + 2)
   0086 9E E6 13            180 	lda	19,s
   0089 C7s00r03            181 	sta	(___fsdiv_PARM_2 + 3)
   008C CDs00r00            182 	jsr	___fsdiv
   008F 9E E7 04            183 	sta	4,s
   0092 9E EF 03            184 	stx	3,s
   0095 B6*00               185 	lda	*__ret2
   0097 9E E7 02            186 	sta	2,s
   009A B6*00               187 	lda	*__ret3
   009C 9E E7 01            188 	sta	1,s
   009F 9E E6 01            189 	lda	1,s
   00A2 9E E7 10            190 	sta	16,s
   00A5 9E E6 02            191 	lda	2,s
   00A8 9E E7 11            192 	sta	17,s
   00AB 9E E6 03            193 	lda	3,s
   00AE 9E E7 12            194 	sta	18,s
   00B1 9E E6 04            195 	lda	4,s
   00B4 9E E7 13            196 	sta	19,s
                            197 ;../atanf.c:65: n=2;
   00B7 4F                  198 	clra
   00B8 9E E7 06            199 	sta	6,s
   00BB A6 02               200 	lda	#0x02
   00BD 9E E7 07            201 	sta	7,s
   00C0                     202 00102$:
                            203 ;../atanf.c:67: if(f>K1)
   00C0 9E E6 10            204 	lda	16,s
   00C3 C7s00r00            205 	sta	___fsgt_PARM_1
   00C6 9E E6 11            206 	lda	17,s
   00C9 C7s00r01            207 	sta	(___fsgt_PARM_1 + 1)
   00CC 9E E6 12            208 	lda	18,s
   00CF C7s00r02            209 	sta	(___fsgt_PARM_1 + 2)
   00D2 9E E6 13            210 	lda	19,s
   00D5 C7s00r03            211 	sta	(___fsgt_PARM_1 + 3)
   00D8 A6 3E               212 	lda	#0x3E
   00DA C7s00r00            213 	sta	___fsgt_PARM_2
   00DD A6 89               214 	lda	#0x89
   00DF C7s00r01            215 	sta	(___fsgt_PARM_2 + 1)
   00E2 A6 30               216 	lda	#0x30
   00E4 C7s00r02            217 	sta	(___fsgt_PARM_2 + 2)
   00E7 A6 A3               218 	lda	#0xA3
   00E9 C7s00r03            219 	sta	(___fsgt_PARM_2 + 3)
   00EC CDs00r00            220 	jsr	___fsgt
   00EF 9E E7 01            221 	sta	1,s
   00F2 9E 6D 01            222 	tst	1,s
   00F5 26 03               223 	bne	00120$
   00F7 CCs01rFA            224 	jmp	00104$
   00FA                     225 00120$:
                            226 ;../atanf.c:69: f=((K2*f-1.0)+f)/(K3+f);
   00FA A6 3F               227 	lda	#0x3F
   00FC C7s00r00            228 	sta	___fsmul_PARM_1
   00FF A6 3B               229 	lda	#0x3B
   0101 C7s00r01            230 	sta	(___fsmul_PARM_1 + 1)
   0104 A6 67               231 	lda	#0x67
   0106 C7s00r02            232 	sta	(___fsmul_PARM_1 + 2)
   0109 A6 AF               233 	lda	#0xAF
   010B C7s00r03            234 	sta	(___fsmul_PARM_1 + 3)
   010E 9E E6 10            235 	lda	16,s
   0111 C7s00r00            236 	sta	___fsmul_PARM_2
   0114 9E E6 11            237 	lda	17,s
   0117 C7s00r01            238 	sta	(___fsmul_PARM_2 + 1)
   011A 9E E6 12            239 	lda	18,s
   011D C7s00r02            240 	sta	(___fsmul_PARM_2 + 2)
   0120 9E E6 13            241 	lda	19,s
   0123 C7s00r03            242 	sta	(___fsmul_PARM_2 + 3)
   0126 CDs00r00            243 	jsr	___fsmul
   0129 C7s00r03            244 	sta	(___fssub_PARM_1 + 3)
   012C CFs00r02            245 	stx	(___fssub_PARM_1 + 2)
   012F B6*00               246 	lda	*__ret2
   0131 C7s00r01            247 	sta	(___fssub_PARM_1 + 1)
   0134 B6*00               248 	lda	*__ret3
   0136 C7s00r00            249 	sta	___fssub_PARM_1
   0139 A6 3F               250 	lda	#0x3F
   013B C7s00r00            251 	sta	___fssub_PARM_2
   013E A6 80               252 	lda	#0x80
   0140 C7s00r01            253 	sta	(___fssub_PARM_2 + 1)
   0143 4F                  254 	clra
   0144 C7s00r02            255 	sta	(___fssub_PARM_2 + 2)
   0147 C7s00r03            256 	sta	(___fssub_PARM_2 + 3)
   014A CDs00r00            257 	jsr	___fssub
   014D C7s00r03            258 	sta	(___fsadd_PARM_1 + 3)
   0150 CFs00r02            259 	stx	(___fsadd_PARM_1 + 2)
   0153 B6*00               260 	lda	*__ret2
   0155 C7s00r01            261 	sta	(___fsadd_PARM_1 + 1)
   0158 B6*00               262 	lda	*__ret3
   015A C7s00r00            263 	sta	___fsadd_PARM_1
   015D 9E E6 10            264 	lda	16,s
   0160 C7s00r00            265 	sta	___fsadd_PARM_2
   0163 9E E6 11            266 	lda	17,s
   0166 C7s00r01            267 	sta	(___fsadd_PARM_2 + 1)
   0169 9E E6 12            268 	lda	18,s
   016C C7s00r02            269 	sta	(___fsadd_PARM_2 + 2)
   016F 9E E6 13            270 	lda	19,s
   0172 C7s00r03            271 	sta	(___fsadd_PARM_2 + 3)
   0175 CDs00r00            272 	jsr	___fsadd
   0178 C7s00r03            273 	sta	(___fsdiv_PARM_1 + 3)
   017B CFs00r02            274 	stx	(___fsdiv_PARM_1 + 2)
   017E B6*00               275 	lda	*__ret2
   0180 C7s00r01            276 	sta	(___fsdiv_PARM_1 + 1)
   0183 B6*00               277 	lda	*__ret3
   0185 C7s00r00            278 	sta	___fsdiv_PARM_1
   0188 9E E6 10            279 	lda	16,s
   018B C7s00r00            280 	sta	___fsadd_PARM_1
   018E 9E E6 11            281 	lda	17,s
   0191 C7s00r01            282 	sta	(___fsadd_PARM_1 + 1)
   0194 9E E6 12            283 	lda	18,s
   0197 C7s00r02            284 	sta	(___fsadd_PARM_1 + 2)
   019A 9E E6 13            285 	lda	19,s
   019D C7s00r03            286 	sta	(___fsadd_PARM_1 + 3)
   01A0 A6 3F               287 	lda	#0x3F
   01A2 C7s00r00            288 	sta	___fsadd_PARM_2
   01A5 A6 DD               289 	lda	#0xDD
   01A7 C7s00r01            290 	sta	(___fsadd_PARM_2 + 1)
   01AA A6 B3               291 	lda	#0xB3
   01AC C7s00r02            292 	sta	(___fsadd_PARM_2 + 2)
   01AF A6 D7               293 	lda	#0xD7
   01B1 C7s00r03            294 	sta	(___fsadd_PARM_2 + 3)
   01B4 CDs00r00            295 	jsr	___fsadd
   01B7 C7s00r03            296 	sta	(___fsdiv_PARM_2 + 3)
   01BA CFs00r02            297 	stx	(___fsdiv_PARM_2 + 2)
   01BD B6*00               298 	lda	*__ret2
   01BF C7s00r01            299 	sta	(___fsdiv_PARM_2 + 1)
   01C2 B6*00               300 	lda	*__ret3
   01C4 C7s00r00            301 	sta	___fsdiv_PARM_2
   01C7 CDs00r00            302 	jsr	___fsdiv
   01CA 9E E7 04            303 	sta	4,s
   01CD 9E EF 03            304 	stx	3,s
   01D0 B6*00               305 	lda	*__ret2
   01D2 9E E7 02            306 	sta	2,s
   01D5 B6*00               307 	lda	*__ret3
   01D7 9E E7 01            308 	sta	1,s
   01DA 9E E6 01            309 	lda	1,s
   01DD 9E E7 10            310 	sta	16,s
   01E0 9E E6 02            311 	lda	2,s
   01E3 9E E7 11            312 	sta	17,s
   01E6 9E E6 03            313 	lda	3,s
   01E9 9E E7 12            314 	sta	18,s
   01EC 9E E6 04            315 	lda	4,s
   01EF 9E E7 13            316 	sta	19,s
                            317 ;../atanf.c:73: n++;
   01F2 9E 6C 07            318 	inc	7,s
   01F5 26 03               319 	bne	00121$
   01F7 9E 6C 06            320 	inc	6,s
   01FA                     321 00121$:
   01FA                     322 00104$:
                            323 ;../atanf.c:75: if(fabsf(f)<EPS) r=f;
   01FA 9E E6 13            324 	lda	19,s
   01FD 87                  325 	psha
   01FE 9E E6 13            326 	lda	19,s
   0201 87                  327 	psha
   0202 9E E6 13            328 	lda	19,s
   0205 87                  329 	psha
   0206 9E E6 13            330 	lda	19,s
   0209 87                  331 	psha
   020A CDs00r00            332 	jsr	_fabsf
   020D C7s00r03            333 	sta	(___fslt_PARM_1 + 3)
   0210 CFs00r02            334 	stx	(___fslt_PARM_1 + 2)
   0213 B6*00               335 	lda	*__ret2
   0215 C7s00r01            336 	sta	(___fslt_PARM_1 + 1)
   0218 B6*00               337 	lda	*__ret3
   021A C7s00r00            338 	sta	___fslt_PARM_1
   021D A7 04               339 	ais	#4
   021F A6 39               340 	lda	#0x39
   0221 C7s00r00            341 	sta	___fslt_PARM_2
   0224 A6 80               342 	lda	#0x80
   0226 C7s00r01            343 	sta	(___fslt_PARM_2 + 1)
   0229 4F                  344 	clra
   022A C7s00r02            345 	sta	(___fslt_PARM_2 + 2)
   022D C7s00r03            346 	sta	(___fslt_PARM_2 + 3)
   0230 CDs00r00            347 	jsr	___fslt
   0233 9E E7 01            348 	sta	1,s
   0236 9E 6D 01            349 	tst	1,s
   0239 27 1B               350 	beq	00106$
   023B                     351 00122$:
   023B 9E E6 10            352 	lda	16,s
   023E 9E E7 0C            353 	sta	12,s
   0241 9E E6 11            354 	lda	17,s
   0244 9E E7 0D            355 	sta	13,s
   0247 9E E6 12            356 	lda	18,s
   024A 9E E7 0E            357 	sta	14,s
   024D 9E E6 13            358 	lda	19,s
   0250 9E E7 0F            359 	sta	15,s
   0253 CCs03rEA            360 	jmp	00107$
   0256                     361 00106$:
                            362 ;../atanf.c:78: g=f*f;
   0256 9E E6 10            363 	lda	16,s
   0259 C7s00r00            364 	sta	___fsmul_PARM_1
   025C 9E E6 11            365 	lda	17,s
   025F C7s00r01            366 	sta	(___fsmul_PARM_1 + 1)
   0262 9E E6 12            367 	lda	18,s
   0265 C7s00r02            368 	sta	(___fsmul_PARM_1 + 2)
   0268 9E E6 13            369 	lda	19,s
   026B C7s00r03            370 	sta	(___fsmul_PARM_1 + 3)
   026E 9E E6 10            371 	lda	16,s
   0271 C7s00r00            372 	sta	___fsmul_PARM_2
   0274 9E E6 11            373 	lda	17,s
   0277 C7s00r01            374 	sta	(___fsmul_PARM_2 + 1)
   027A 9E E6 12            375 	lda	18,s
   027D C7s00r02            376 	sta	(___fsmul_PARM_2 + 2)
   0280 9E E6 13            377 	lda	19,s
   0283 C7s00r03            378 	sta	(___fsmul_PARM_2 + 3)
   0286 CDs00r00            379 	jsr	___fsmul
   0289 9E E7 0B            380 	sta	11,s
   028C 9E EF 0A            381 	stx	10,s
   028F B6*00               382 	lda	*__ret2
   0291 9E E7 09            383 	sta	9,s
   0294 B6*00               384 	lda	*__ret3
   0296 9E E7 08            385 	sta	8,s
                            386 ;../atanf.c:79: r=f+P(g,f)/Q(g);
   0299 A6 BD               387 	lda	#0xBD
   029B C7s00r00            388 	sta	___fsmul_PARM_1
   029E A6 50               389 	lda	#0x50
   02A0 C7s00r01            390 	sta	(___fsmul_PARM_1 + 1)
   02A3 A6 86               391 	lda	#0x86
   02A5 C7s00r02            392 	sta	(___fsmul_PARM_1 + 2)
   02A8 A6 91               393 	lda	#0x91
   02AA C7s00r03            394 	sta	(___fsmul_PARM_1 + 3)
   02AD 9E E6 08            395 	lda	8,s
   02B0 C7s00r00            396 	sta	___fsmul_PARM_2
   02B3 9E E6 09            397 	lda	9,s
   02B6 C7s00r01            398 	sta	(___fsmul_PARM_2 + 1)
   02B9 9E E6 0A            399 	lda	10,s
   02BC C7s00r02            400 	sta	(___fsmul_PARM_2 + 2)
   02BF 9E E6 0B            401 	lda	11,s
   02C2 C7s00r03            402 	sta	(___fsmul_PARM_2 + 3)
   02C5 CDs00r00            403 	jsr	___fsmul
   02C8 C7s00r03            404 	sta	(___fsadd_PARM_1 + 3)
   02CB CFs00r02            405 	stx	(___fsadd_PARM_1 + 2)
   02CE B6*00               406 	lda	*__ret2
   02D0 C7s00r01            407 	sta	(___fsadd_PARM_1 + 1)
   02D3 B6*00               408 	lda	*__ret3
   02D5 C7s00r00            409 	sta	___fsadd_PARM_1
   02D8 A6 BE               410 	lda	#0xBE
   02DA C7s00r00            411 	sta	___fsadd_PARM_2
   02DD A6 F1               412 	lda	#0xF1
   02DF C7s00r01            413 	sta	(___fsadd_PARM_2 + 1)
   02E2 A6 10               414 	lda	#0x10
   02E4 C7s00r02            415 	sta	(___fsadd_PARM_2 + 2)
   02E7 A6 F6               416 	lda	#0xF6
   02E9 C7s00r03            417 	sta	(___fsadd_PARM_2 + 3)
   02EC CDs00r00            418 	jsr	___fsadd
   02EF C7s00r03            419 	sta	(___fsmul_PARM_1 + 3)
   02F2 CFs00r02            420 	stx	(___fsmul_PARM_1 + 2)
   02F5 B6*00               421 	lda	*__ret2
   02F7 C7s00r01            422 	sta	(___fsmul_PARM_1 + 1)
   02FA B6*00               423 	lda	*__ret3
   02FC C7s00r00            424 	sta	___fsmul_PARM_1
   02FF 9E E6 08            425 	lda	8,s
   0302 C7s00r00            426 	sta	___fsmul_PARM_2
   0305 9E E6 09            427 	lda	9,s
   0308 C7s00r01            428 	sta	(___fsmul_PARM_2 + 1)
   030B 9E E6 0A            429 	lda	10,s
   030E C7s00r02            430 	sta	(___fsmul_PARM_2 + 2)
   0311 9E E6 0B            431 	lda	11,s
   0314 C7s00r03            432 	sta	(___fsmul_PARM_2 + 3)
   0317 CDs00r00            433 	jsr	___fsmul
   031A C7s00r03            434 	sta	(___fsmul_PARM_1 + 3)
   031D CFs00r02            435 	stx	(___fsmul_PARM_1 + 2)
   0320 B6*00               436 	lda	*__ret2
   0322 C7s00r01            437 	sta	(___fsmul_PARM_1 + 1)
   0325 B6*00               438 	lda	*__ret3
   0327 C7s00r00            439 	sta	___fsmul_PARM_1
   032A 9E E6 10            440 	lda	16,s
   032D C7s00r00            441 	sta	___fsmul_PARM_2
   0330 9E E6 11            442 	lda	17,s
   0333 C7s00r01            443 	sta	(___fsmul_PARM_2 + 1)
   0336 9E E6 12            444 	lda	18,s
   0339 C7s00r02            445 	sta	(___fsmul_PARM_2 + 2)
   033C 9E E6 13            446 	lda	19,s
   033F C7s00r03            447 	sta	(___fsmul_PARM_2 + 3)
   0342 CDs00r00            448 	jsr	___fsmul
   0345 C7s00r03            449 	sta	(___fsdiv_PARM_1 + 3)
   0348 CFs00r02            450 	stx	(___fsdiv_PARM_1 + 2)
   034B B6*00               451 	lda	*__ret2
   034D C7s00r01            452 	sta	(___fsdiv_PARM_1 + 1)
   0350 B6*00               453 	lda	*__ret3
   0352 C7s00r00            454 	sta	___fsdiv_PARM_1
   0355 9E E6 08            455 	lda	8,s
   0358 C7s00r00            456 	sta	___fsadd_PARM_1
   035B 9E E6 09            457 	lda	9,s
   035E C7s00r01            458 	sta	(___fsadd_PARM_1 + 1)
   0361 9E E6 0A            459 	lda	10,s
   0364 C7s00r02            460 	sta	(___fsadd_PARM_1 + 2)
   0367 9E E6 0B            461 	lda	11,s
   036A C7s00r03            462 	sta	(___fsadd_PARM_1 + 3)
   036D A6 3F               463 	lda	#0x3F
   036F C7s00r00            464 	sta	___fsadd_PARM_2
   0372 A6 B4               465 	lda	#0xB4
   0374 C7s00r01            466 	sta	(___fsadd_PARM_2 + 1)
   0377 A6 CC               467 	lda	#0xCC
   0379 C7s00r02            468 	sta	(___fsadd_PARM_2 + 2)
   037C A6 D3               469 	lda	#0xD3
   037E C7s00r03            470 	sta	(___fsadd_PARM_2 + 3)
   0381 CDs00r00            471 	jsr	___fsadd
   0384 C7s00r03            472 	sta	(___fsdiv_PARM_2 + 3)
   0387 CFs00r02            473 	stx	(___fsdiv_PARM_2 + 2)
   038A B6*00               474 	lda	*__ret2
   038C C7s00r01            475 	sta	(___fsdiv_PARM_2 + 1)
   038F B6*00               476 	lda	*__ret3
   0391 C7s00r00            477 	sta	___fsdiv_PARM_2
   0394 CDs00r00            478 	jsr	___fsdiv
   0397 C7s00r03            479 	sta	(___fsadd_PARM_2 + 3)
   039A CFs00r02            480 	stx	(___fsadd_PARM_2 + 2)
   039D B6*00               481 	lda	*__ret2
   039F C7s00r01            482 	sta	(___fsadd_PARM_2 + 1)
   03A2 B6*00               483 	lda	*__ret3
   03A4 C7s00r00            484 	sta	___fsadd_PARM_2
   03A7 9E E6 10            485 	lda	16,s
   03AA C7s00r00            486 	sta	___fsadd_PARM_1
   03AD 9E E6 11            487 	lda	17,s
   03B0 C7s00r01            488 	sta	(___fsadd_PARM_1 + 1)
   03B3 9E E6 12            489 	lda	18,s
   03B6 C7s00r02            490 	sta	(___fsadd_PARM_1 + 2)
   03B9 9E E6 13            491 	lda	19,s
   03BC C7s00r03            492 	sta	(___fsadd_PARM_1 + 3)
   03BF CDs00r00            493 	jsr	___fsadd
   03C2 9E E7 04            494 	sta	4,s
   03C5 9E EF 03            495 	stx	3,s
   03C8 B6*00               496 	lda	*__ret2
   03CA 9E E7 02            497 	sta	2,s
   03CD B6*00               498 	lda	*__ret3
   03CF 9E E7 01            499 	sta	1,s
   03D2 9E E6 01            500 	lda	1,s
   03D5 9E E7 0C            501 	sta	12,s
   03D8 9E E6 02            502 	lda	2,s
   03DB 9E E7 0D            503 	sta	13,s
   03DE 9E E6 03            504 	lda	3,s
   03E1 9E E7 0E            505 	sta	14,s
   03E4 9E E6 04            506 	lda	4,s
   03E7 9E E7 0F            507 	sta	15,s
   03EA                     508 00107$:
                            509 ;../atanf.c:81: if(n>1) r=-r;
   03EA A6 01               510 	lda	#0x01
   03EC 9E E0 07            511 	sub	7,s
   03EF 4F                  512 	clra
   03F0 9E E2 06            513 	sbc	6,s
   03F3 90 08               514 	bge	00109$
   03F5                     515 00123$:
   03F5 9E E6 0C            516 	lda	12,s
   03F8 A8 80               517 	eor	#0x80
   03FA 9E E7 0C            518 	sta	12,s
   03FD                     519 00109$:
                            520 ;../atanf.c:82: r+=a[n];
   03FD 9E E6 07            521 	lda	7,s
   0400 9E EE 06            522 	ldx	6,s
   0403 48                  523 	lsla
   0404 59                  524 	rolx
   0405 48                  525 	lsla
   0406 59                  526 	rolx
   0407 9E E7 02            527 	sta	2,s
   040A 9E EF 01            528 	stx	1,s
   040D 9E E6 01            529 	lda	1,s
   0410 9E EE 02            530 	ldx	2,s
   0413 87                  531 	psha
   0414 8A                  532 	pulh
   0415 D6s00r00            533 	lda	_atanf_a_1_1,x
   0418 C7s00r00            534 	sta	___fsadd_PARM_2
   041B D6s00r01            535 	lda	(_atanf_a_1_1 + 1),x
   041E C7s00r01            536 	sta	(___fsadd_PARM_2 + 1)
   0421 D6s00r02            537 	lda	(_atanf_a_1_1 + 2),x
   0424 C7s00r02            538 	sta	(___fsadd_PARM_2 + 2)
   0427 D6s00r03            539 	lda	(_atanf_a_1_1 + 3),x
   042A C7s00r03            540 	sta	(___fsadd_PARM_2 + 3)
   042D 9E E6 0C            541 	lda	12,s
   0430 C7s00r00            542 	sta	___fsadd_PARM_1
   0433 9E E6 0D            543 	lda	13,s
   0436 C7s00r01            544 	sta	(___fsadd_PARM_1 + 1)
   0439 9E E6 0E            545 	lda	14,s
   043C C7s00r02            546 	sta	(___fsadd_PARM_1 + 2)
   043F 9E E6 0F            547 	lda	15,s
   0442 C7s00r03            548 	sta	(___fsadd_PARM_1 + 3)
   0445 CDs00r00            549 	jsr	___fsadd
   0448 9E E7 04            550 	sta	4,s
   044B 9E EF 03            551 	stx	3,s
   044E B6*00               552 	lda	*__ret2
   0450 9E E7 02            553 	sta	2,s
   0453 B6*00               554 	lda	*__ret3
   0455 9E E7 01            555 	sta	1,s
   0458 9E E6 01            556 	lda	1,s
   045B 9E E7 0C            557 	sta	12,s
   045E 9E E6 02            558 	lda	2,s
   0461 9E E7 0D            559 	sta	13,s
   0464 9E E6 03            560 	lda	3,s
   0467 9E E7 0E            561 	sta	14,s
   046A 9E E6 04            562 	lda	4,s
   046D 9E E7 0F            563 	sta	15,s
                            564 ;../atanf.c:83: if(x<0.0) r=-r;
   0470 9E E6 16            565 	lda	22,s
   0473 C7s00r00            566 	sta	___fslt_PARM_1
   0476 9E E6 17            567 	lda	23,s
   0479 C7s00r01            568 	sta	(___fslt_PARM_1 + 1)
   047C 9E E6 18            569 	lda	24,s
   047F C7s00r02            570 	sta	(___fslt_PARM_1 + 2)
   0482 9E E6 19            571 	lda	25,s
   0485 C7s00r03            572 	sta	(___fslt_PARM_1 + 3)
   0488 4F                  573 	clra
   0489 C7s00r00            574 	sta	___fslt_PARM_2
   048C C7s00r01            575 	sta	(___fslt_PARM_2 + 1)
   048F C7s00r02            576 	sta	(___fslt_PARM_2 + 2)
   0492 C7s00r03            577 	sta	(___fslt_PARM_2 + 3)
   0495 CDs00r00            578 	jsr	___fslt
   0498 9E E7 01            579 	sta	1,s
   049B 9E 6D 01            580 	tst	1,s
   049E 27 08               581 	beq	00111$
   04A0                     582 00124$:
   04A0 9E E6 0C            583 	lda	12,s
   04A3 A8 80               584 	eor	#0x80
   04A5 9E E7 0C            585 	sta	12,s
   04A8                     586 00111$:
                            587 ;../atanf.c:84: return r;
   04A8 9E E6 0C            588 	lda	12,s
   04AB B7*00               589 	sta	*__ret3
   04AD 9E E6 0D            590 	lda	13,s
   04B0 B7*00               591 	sta	*__ret2
   04B2 9E EE 0E            592 	ldx	14,s
   04B5 9E E6 0F            593 	lda	15,s
   04B8                     594 00112$:
   04B8 A7 13               595 	ais	#19
   04BA 81                  596 	rts
                            597 	.area CSEG (CODE)
                            598 	.area CONST   (CODE)
                            599 	.area XINIT
                            600 	.area CABS    (ABS,CODE)
