                              1 ;--------------------------------------------------------
                              2 ; File Created by SDCC : free open source ANSI-C Compiler
                              3 ; Version 3.0.1 #6227 (Oct  2 2015) (Linux)
                              4 ; This file was generated Fri Oct  2 17:15:21 2015
                              5 ;--------------------------------------------------------
                              6 	.module logf
                              7 	.optsdcc -mhc08
                              8 	
                              9 	.area HOME (CODE)
                             10 	.area GSINIT0 (CODE)
                             11 	.area GSINIT (CODE)
                             12 	.area GSFINAL (CODE)
                             13 	.area CSEG (CODE)
                             14 	.area XINIT
                             15 	.area CONST   (CODE)
                             16 	.area DSEG
                             17 	.area OSEG    (OVR)
                             18 	.area BSEG
                             19 	.area XSEG
                             20 	.area XISEG
                             21 ;--------------------------------------------------------
                             22 ; Public variables in this module
                             23 ;--------------------------------------------------------
                             24 	.globl _logf
                             25 ;--------------------------------------------------------
                             26 ;  ram data
                             27 ;--------------------------------------------------------
                             28 	.area DSEG
                             29 ;--------------------------------------------------------
                             30 ; overlayable items in  ram 
                             31 ;--------------------------------------------------------
                             32 	.area OSEG    (OVR)
                             33 ;--------------------------------------------------------
                             34 ; absolute external ram data
                             35 ;--------------------------------------------------------
                             36 	.area XABS    (ABS)
                             37 ;--------------------------------------------------------
                             38 ; external initialized ram data
                             39 ;--------------------------------------------------------
                             40 	.area XISEG
                             41 ;--------------------------------------------------------
                             42 ; extended address mode data
                             43 ;--------------------------------------------------------
                             44 	.area XSEG
                             45 ;--------------------------------------------------------
                             46 ; global & static initialisations
                             47 ;--------------------------------------------------------
                             48 	.area HOME (CODE)
                             49 	.area GSINIT (CODE)
                             50 	.area GSFINAL (CODE)
                             51 	.area GSINIT (CODE)
                             52 ;--------------------------------------------------------
                             53 ; Home
                             54 ;--------------------------------------------------------
                             55 	.area HOME (CODE)
                             56 	.area HOME (CODE)
                             57 ;--------------------------------------------------------
                             58 ; code
                             59 ;--------------------------------------------------------
                             60 	.area CSEG (CODE)
                             61 ;------------------------------------------------------------
                             62 ;Allocation info for local variables in function 'logf'
                             63 ;------------------------------------------------------------
                             64 ;x                         Allocated to stack - offset 2
                             65 ;Rz                        Allocated to registers 
                             66 ;f                         Allocated to stack - offset -4
                             67 ;z                         Allocated to stack - offset -8
                             68 ;w                         Allocated to stack - offset -12
                             69 ;znum                      Allocated to stack - offset -16
                             70 ;zden                      Allocated to stack - offset -20
                             71 ;xn                        Allocated to stack - offset -24
                             72 ;n                         Allocated to stack - offset -26
                             73 ;sloc0                     Allocated to stack - offset -27
                             74 ;sloc1                     Allocated to stack - offset -31
                             75 ;------------------------------------------------------------
                             76 ;../logf.c:216: float logf(const float x) _FLOAT_FUNC_REENTRANT
                             77 ;	-----------------------------------------
                             78 ;	 function logf
                             79 ;	-----------------------------------------
   0000                      80 _logf:
   0000 A7 E1                81 	ais	#-31
                             82 ;../logf.c:226: if (x<=0.0)
   0002 9E E6 22             83 	lda	34,s
   0005 C7s00r00             84 	sta	___fsgt_PARM_1
   0008 9E E6 23             85 	lda	35,s
   000B C7s00r01             86 	sta	(___fsgt_PARM_1 + 1)
   000E 9E E6 24             87 	lda	36,s
   0011 C7s00r02             88 	sta	(___fsgt_PARM_1 + 2)
   0014 9E E6 25             89 	lda	37,s
   0017 C7s00r03             90 	sta	(___fsgt_PARM_1 + 3)
   001A 4F                   91 	clra
   001B C7s00r00             92 	sta	___fsgt_PARM_2
   001E C7s00r01             93 	sta	(___fsgt_PARM_2 + 1)
   0021 C7s00r02             94 	sta	(___fsgt_PARM_2 + 2)
   0024 C7s00r03             95 	sta	(___fsgt_PARM_2 + 3)
   0027 CDs00r00             96 	jsr	___fsgt
   002A 9E E7 05             97 	sta	5,s
   002D 9E 6D 05             98 	tst	5,s
   0030 26 12                99 	bne	00102$
   0032                     100 00110$:
                            101 ;../logf.c:228: errno=EDOM;
   0032 4F                  102 	clra
   0033 C7s00r00            103 	sta	_errno
   0036 A6 21               104 	lda	#0x21
   0038 C7s00r01            105 	sta	(_errno + 1)
                            106 ;../logf.c:229: return 0.0;
   003B 3F*00               107 	clr	*__ret3
   003D 3F*00               108 	clr	*__ret2
   003F 5F                  109 	clrx
   0040 4F                  110 	clra
   0041 CCs04r74            111 	jmp	00106$
   0044                     112 00102$:
                            113 ;../logf.c:231: f=frexpf(x, &n);
   0044 95                  114 	tsx
   0045 AF 05               115 	aix	#5
   0047 8B                  116 	pshh
   0048 86                  117 	pula
   0049 C7s00r00            118 	sta	_frexpf_PARM_2
   004C CFs00r01            119 	stx	(_frexpf_PARM_2 + 1)
   004F 9E E6 22            120 	lda	34,s
   0052 C7s00r00            121 	sta	_frexpf_PARM_1
   0055 9E E6 23            122 	lda	35,s
   0058 C7s00r01            123 	sta	(_frexpf_PARM_1 + 1)
   005B 9E E6 24            124 	lda	36,s
   005E C7s00r02            125 	sta	(_frexpf_PARM_1 + 2)
   0061 9E E6 25            126 	lda	37,s
   0064 C7s00r03            127 	sta	(_frexpf_PARM_1 + 3)
   0067 CDs00r00            128 	jsr	_frexpf
   006A 9E E7 1F            129 	sta	31,s
   006D 9E EF 1E            130 	stx	30,s
   0070 B6*00               131 	lda	*__ret2
   0072 9E E7 1D            132 	sta	29,s
   0075 B6*00               133 	lda	*__ret3
   0077 9E E7 1C            134 	sta	28,s
                            135 ;../logf.c:232: znum=f-0.5;
   007A 9E E6 1C            136 	lda	28,s
   007D C7s00r00            137 	sta	___fssub_PARM_1
   0080 9E E6 1D            138 	lda	29,s
   0083 C7s00r01            139 	sta	(___fssub_PARM_1 + 1)
   0086 9E E6 1E            140 	lda	30,s
   0089 C7s00r02            141 	sta	(___fssub_PARM_1 + 2)
   008C 9E E6 1F            142 	lda	31,s
   008F C7s00r03            143 	sta	(___fssub_PARM_1 + 3)
   0092 A6 3F               144 	lda	#0x3F
   0094 C7s00r00            145 	sta	___fssub_PARM_2
   0097 4F                  146 	clra
   0098 C7s00r01            147 	sta	(___fssub_PARM_2 + 1)
   009B C7s00r02            148 	sta	(___fssub_PARM_2 + 2)
   009E C7s00r03            149 	sta	(___fssub_PARM_2 + 3)
   00A1 CDs00r00            150 	jsr	___fssub
   00A4 9E E7 13            151 	sta	19,s
   00A7 9E EF 12            152 	stx	18,s
   00AA B6*00               153 	lda	*__ret2
   00AC 9E E7 11            154 	sta	17,s
   00AF B6*00               155 	lda	*__ret3
   00B1 9E E7 10            156 	sta	16,s
                            157 ;../logf.c:233: if (f>C0)
   00B4 9E E6 1C            158 	lda	28,s
   00B7 C7s00r00            159 	sta	___fsgt_PARM_1
   00BA 9E E6 1D            160 	lda	29,s
   00BD C7s00r01            161 	sta	(___fsgt_PARM_1 + 1)
   00C0 9E E6 1E            162 	lda	30,s
   00C3 C7s00r02            163 	sta	(___fsgt_PARM_1 + 2)
   00C6 9E E6 1F            164 	lda	31,s
   00C9 C7s00r03            165 	sta	(___fsgt_PARM_1 + 3)
   00CC A6 3F               166 	lda	#0x3F
   00CE C7s00r00            167 	sta	___fsgt_PARM_2
   00D1 A6 35               168 	lda	#0x35
   00D3 C7s00r01            169 	sta	(___fsgt_PARM_2 + 1)
   00D6 A6 04               170 	lda	#0x04
   00D8 C7s00r02            171 	sta	(___fsgt_PARM_2 + 2)
   00DB A6 F3               172 	lda	#0xF3
   00DD C7s00r03            173 	sta	(___fsgt_PARM_2 + 3)
   00E0 CDs00r00            174 	jsr	___fsgt
   00E3 9E E7 05            175 	sta	5,s
   00E6 9E 6D 05            176 	tst	5,s
   00E9 26 03               177 	bne	00111$
   00EB CCs01rB7            178 	jmp	00104$
   00EE                     179 00111$:
                            180 ;../logf.c:235: znum-=0.5;
   00EE 9E E6 10            181 	lda	16,s
   00F1 C7s00r00            182 	sta	___fssub_PARM_1
   00F4 9E E6 11            183 	lda	17,s
   00F7 C7s00r01            184 	sta	(___fssub_PARM_1 + 1)
   00FA 9E E6 12            185 	lda	18,s
   00FD C7s00r02            186 	sta	(___fssub_PARM_1 + 2)
   0100 9E E6 13            187 	lda	19,s
   0103 C7s00r03            188 	sta	(___fssub_PARM_1 + 3)
   0106 A6 3F               189 	lda	#0x3F
   0108 C7s00r00            190 	sta	___fssub_PARM_2
   010B 4F                  191 	clra
   010C C7s00r01            192 	sta	(___fssub_PARM_2 + 1)
   010F C7s00r02            193 	sta	(___fssub_PARM_2 + 2)
   0112 C7s00r03            194 	sta	(___fssub_PARM_2 + 3)
   0115 CDs00r00            195 	jsr	___fssub
   0118 9E E7 04            196 	sta	4,s
   011B 9E EF 03            197 	stx	3,s
   011E B6*00               198 	lda	*__ret2
   0120 9E E7 02            199 	sta	2,s
   0123 B6*00               200 	lda	*__ret3
   0125 9E E7 01            201 	sta	1,s
   0128 9E E6 01            202 	lda	1,s
   012B 9E E7 10            203 	sta	16,s
   012E 9E E6 02            204 	lda	2,s
   0131 9E E7 11            205 	sta	17,s
   0134 9E E6 03            206 	lda	3,s
   0137 9E E7 12            207 	sta	18,s
   013A 9E E6 04            208 	lda	4,s
   013D 9E E7 13            209 	sta	19,s
                            210 ;../logf.c:236: zden=(f*0.5)+0.5;
   0140 A6 3F               211 	lda	#0x3F
   0142 C7s00r00            212 	sta	___fsmul_PARM_1
   0145 4F                  213 	clra
   0146 C7s00r01            214 	sta	(___fsmul_PARM_1 + 1)
   0149 C7s00r02            215 	sta	(___fsmul_PARM_1 + 2)
   014C C7s00r03            216 	sta	(___fsmul_PARM_1 + 3)
   014F 9E E6 1C            217 	lda	28,s
   0152 C7s00r00            218 	sta	___fsmul_PARM_2
   0155 9E E6 1D            219 	lda	29,s
   0158 C7s00r01            220 	sta	(___fsmul_PARM_2 + 1)
   015B 9E E6 1E            221 	lda	30,s
   015E C7s00r02            222 	sta	(___fsmul_PARM_2 + 2)
   0161 9E E6 1F            223 	lda	31,s
   0164 C7s00r03            224 	sta	(___fsmul_PARM_2 + 3)
   0167 CDs00r00            225 	jsr	___fsmul
   016A C7s00r03            226 	sta	(___fsadd_PARM_1 + 3)
   016D CFs00r02            227 	stx	(___fsadd_PARM_1 + 2)
   0170 B6*00               228 	lda	*__ret2
   0172 C7s00r01            229 	sta	(___fsadd_PARM_1 + 1)
   0175 B6*00               230 	lda	*__ret3
   0177 C7s00r00            231 	sta	___fsadd_PARM_1
   017A A6 3F               232 	lda	#0x3F
   017C C7s00r00            233 	sta	___fsadd_PARM_2
   017F 4F                  234 	clra
   0180 C7s00r01            235 	sta	(___fsadd_PARM_2 + 1)
   0183 C7s00r02            236 	sta	(___fsadd_PARM_2 + 2)
   0186 C7s00r03            237 	sta	(___fsadd_PARM_2 + 3)
   0189 CDs00r00            238 	jsr	___fsadd
   018C 9E E7 0F            239 	sta	15,s
   018F 9E EF 0E            240 	stx	14,s
   0192 B6*00               241 	lda	*__ret2
   0194 9E E7 0D            242 	sta	13,s
   0197 B6*00               243 	lda	*__ret3
   0199 9E E7 0C            244 	sta	12,s
   019C 9E E6 0C            245 	lda	12,s
   019F 9E E7 01            246 	sta	1,s
   01A2 9E E6 0D            247 	lda	13,s
   01A5 9E E7 02            248 	sta	2,s
   01A8 9E E6 0E            249 	lda	14,s
   01AB 9E E7 03            250 	sta	3,s
   01AE 9E E6 0F            251 	lda	15,s
   01B1 9E E7 04            252 	sta	4,s
   01B4 CCs02r3B            253 	jmp	00105$
   01B7                     254 00104$:
                            255 ;../logf.c:240: n--;
   01B7 9E E6 07            256 	lda	7,s
   01BA A0 01               257 	sub	#0x01
   01BC 9E E7 07            258 	sta	7,s
   01BF 9E E6 06            259 	lda	6,s
   01C2 A2 00               260 	sbc	#0x00
   01C4 9E E7 06            261 	sta	6,s
                            262 ;../logf.c:241: zden=znum*0.5+0.5;
   01C7 A6 3F               263 	lda	#0x3F
   01C9 C7s00r00            264 	sta	___fsmul_PARM_1
   01CC 4F                  265 	clra
   01CD C7s00r01            266 	sta	(___fsmul_PARM_1 + 1)
   01D0 C7s00r02            267 	sta	(___fsmul_PARM_1 + 2)
   01D3 C7s00r03            268 	sta	(___fsmul_PARM_1 + 3)
   01D6 9E E6 10            269 	lda	16,s
   01D9 C7s00r00            270 	sta	___fsmul_PARM_2
   01DC 9E E6 11            271 	lda	17,s
   01DF C7s00r01            272 	sta	(___fsmul_PARM_2 + 1)
   01E2 9E E6 12            273 	lda	18,s
   01E5 C7s00r02            274 	sta	(___fsmul_PARM_2 + 2)
   01E8 9E E6 13            275 	lda	19,s
   01EB C7s00r03            276 	sta	(___fsmul_PARM_2 + 3)
   01EE CDs00r00            277 	jsr	___fsmul
   01F1 C7s00r03            278 	sta	(___fsadd_PARM_1 + 3)
   01F4 CFs00r02            279 	stx	(___fsadd_PARM_1 + 2)
   01F7 B6*00               280 	lda	*__ret2
   01F9 C7s00r01            281 	sta	(___fsadd_PARM_1 + 1)
   01FC B6*00               282 	lda	*__ret3
   01FE C7s00r00            283 	sta	___fsadd_PARM_1
   0201 A6 3F               284 	lda	#0x3F
   0203 C7s00r00            285 	sta	___fsadd_PARM_2
   0206 4F                  286 	clra
   0207 C7s00r01            287 	sta	(___fsadd_PARM_2 + 1)
   020A C7s00r02            288 	sta	(___fsadd_PARM_2 + 2)
   020D C7s00r03            289 	sta	(___fsadd_PARM_2 + 3)
   0210 CDs00r00            290 	jsr	___fsadd
   0213 9E E7 0F            291 	sta	15,s
   0216 9E EF 0E            292 	stx	14,s
   0219 B6*00               293 	lda	*__ret2
   021B 9E E7 0D            294 	sta	13,s
   021E B6*00               295 	lda	*__ret3
   0220 9E E7 0C            296 	sta	12,s
   0223 9E E6 0C            297 	lda	12,s
   0226 9E E7 01            298 	sta	1,s
   0229 9E E6 0D            299 	lda	13,s
   022C 9E E7 02            300 	sta	2,s
   022F 9E E6 0E            301 	lda	14,s
   0232 9E E7 03            302 	sta	3,s
   0235 9E E6 0F            303 	lda	15,s
   0238 9E E7 04            304 	sta	4,s
   023B                     305 00105$:
                            306 ;../logf.c:243: z=znum/zden;
   023B 9E E6 10            307 	lda	16,s
   023E C7s00r00            308 	sta	___fsdiv_PARM_1
   0241 9E E6 11            309 	lda	17,s
   0244 C7s00r01            310 	sta	(___fsdiv_PARM_1 + 1)
   0247 9E E6 12            311 	lda	18,s
   024A C7s00r02            312 	sta	(___fsdiv_PARM_1 + 2)
   024D 9E E6 13            313 	lda	19,s
   0250 C7s00r03            314 	sta	(___fsdiv_PARM_1 + 3)
   0253 9E E6 01            315 	lda	1,s
   0256 C7s00r00            316 	sta	___fsdiv_PARM_2
   0259 9E E6 02            317 	lda	2,s
   025C C7s00r01            318 	sta	(___fsdiv_PARM_2 + 1)
   025F 9E E6 03            319 	lda	3,s
   0262 C7s00r02            320 	sta	(___fsdiv_PARM_2 + 2)
   0265 9E E6 04            321 	lda	4,s
   0268 C7s00r03            322 	sta	(___fsdiv_PARM_2 + 3)
   026B CDs00r00            323 	jsr	___fsdiv
   026E 9E E7 1B            324 	sta	27,s
   0271 9E EF 1A            325 	stx	26,s
   0274 B6*00               326 	lda	*__ret2
   0276 9E E7 19            327 	sta	25,s
   0279 B6*00               328 	lda	*__ret3
   027B 9E E7 18            329 	sta	24,s
                            330 ;../logf.c:244: w=z*z;
   027E 9E E6 18            331 	lda	24,s
   0281 C7s00r00            332 	sta	___fsmul_PARM_1
   0284 9E E6 19            333 	lda	25,s
   0287 C7s00r01            334 	sta	(___fsmul_PARM_1 + 1)
   028A 9E E6 1A            335 	lda	26,s
   028D C7s00r02            336 	sta	(___fsmul_PARM_1 + 2)
   0290 9E E6 1B            337 	lda	27,s
   0293 C7s00r03            338 	sta	(___fsmul_PARM_1 + 3)
   0296 9E E6 18            339 	lda	24,s
   0299 C7s00r00            340 	sta	___fsmul_PARM_2
   029C 9E E6 19            341 	lda	25,s
   029F C7s00r01            342 	sta	(___fsmul_PARM_2 + 1)
   02A2 9E E6 1A            343 	lda	26,s
   02A5 C7s00r02            344 	sta	(___fsmul_PARM_2 + 2)
   02A8 9E E6 1B            345 	lda	27,s
   02AB C7s00r03            346 	sta	(___fsmul_PARM_2 + 3)
   02AE CDs00r00            347 	jsr	___fsmul
   02B1 9E E7 17            348 	sta	23,s
   02B4 9E EF 16            349 	stx	22,s
   02B7 B6*00               350 	lda	*__ret2
   02B9 9E E7 15            351 	sta	21,s
   02BC B6*00               352 	lda	*__ret3
   02BE 9E E7 14            353 	sta	20,s
                            354 ;../logf.c:246: Rz=z+z*(w*A(w)/B(w));
   02C1 A6 BF               355 	lda	#0xBF
   02C3 C7s00r00            356 	sta	___fsmul_PARM_1
   02C6 A6 0D               357 	lda	#0x0D
   02C8 C7s00r01            358 	sta	(___fsmul_PARM_1 + 1)
   02CB A6 7E               359 	lda	#0x7E
   02CD C7s00r02            360 	sta	(___fsmul_PARM_1 + 2)
   02D0 A6 3D               361 	lda	#0x3D
   02D2 C7s00r03            362 	sta	(___fsmul_PARM_1 + 3)
   02D5 9E E6 14            363 	lda	20,s
   02D8 C7s00r00            364 	sta	___fsmul_PARM_2
   02DB 9E E6 15            365 	lda	21,s
   02DE C7s00r01            366 	sta	(___fsmul_PARM_2 + 1)
   02E1 9E E6 16            367 	lda	22,s
   02E4 C7s00r02            368 	sta	(___fsmul_PARM_2 + 2)
   02E7 9E E6 17            369 	lda	23,s
   02EA C7s00r03            370 	sta	(___fsmul_PARM_2 + 3)
   02ED CDs00r00            371 	jsr	___fsmul
   02F0 C7s00r03            372 	sta	(___fsdiv_PARM_1 + 3)
   02F3 CFs00r02            373 	stx	(___fsdiv_PARM_1 + 2)
   02F6 B6*00               374 	lda	*__ret2
   02F8 C7s00r01            375 	sta	(___fsdiv_PARM_1 + 1)
   02FB B6*00               376 	lda	*__ret3
   02FD C7s00r00            377 	sta	___fsdiv_PARM_1
   0300 9E E6 14            378 	lda	20,s
   0303 C7s00r00            379 	sta	___fsadd_PARM_1
   0306 9E E6 15            380 	lda	21,s
   0309 C7s00r01            381 	sta	(___fsadd_PARM_1 + 1)
   030C 9E E6 16            382 	lda	22,s
   030F C7s00r02            383 	sta	(___fsadd_PARM_1 + 2)
   0312 9E E6 17            384 	lda	23,s
   0315 C7s00r03            385 	sta	(___fsadd_PARM_1 + 3)
   0318 A6 C0               386 	lda	#0xC0
   031A C7s00r00            387 	sta	___fsadd_PARM_2
   031D A6 D4               388 	lda	#0xD4
   031F C7s00r01            389 	sta	(___fsadd_PARM_2 + 1)
   0322 A6 3F               390 	lda	#0x3F
   0324 C7s00r02            391 	sta	(___fsadd_PARM_2 + 2)
   0327 A6 3A               392 	lda	#0x3A
   0329 C7s00r03            393 	sta	(___fsadd_PARM_2 + 3)
   032C CDs00r00            394 	jsr	___fsadd
   032F C7s00r03            395 	sta	(___fsdiv_PARM_2 + 3)
   0332 CFs00r02            396 	stx	(___fsdiv_PARM_2 + 2)
   0335 B6*00               397 	lda	*__ret2
   0337 C7s00r01            398 	sta	(___fsdiv_PARM_2 + 1)
   033A B6*00               399 	lda	*__ret3
   033C C7s00r00            400 	sta	___fsdiv_PARM_2
   033F CDs00r00            401 	jsr	___fsdiv
   0342 C7s00r03            402 	sta	(___fsmul_PARM_2 + 3)
   0345 CFs00r02            403 	stx	(___fsmul_PARM_2 + 2)
   0348 B6*00               404 	lda	*__ret2
   034A C7s00r01            405 	sta	(___fsmul_PARM_2 + 1)
   034D B6*00               406 	lda	*__ret3
   034F C7s00r00            407 	sta	___fsmul_PARM_2
   0352 9E E6 18            408 	lda	24,s
   0355 C7s00r00            409 	sta	___fsmul_PARM_1
   0358 9E E6 19            410 	lda	25,s
   035B C7s00r01            411 	sta	(___fsmul_PARM_1 + 1)
   035E 9E E6 1A            412 	lda	26,s
   0361 C7s00r02            413 	sta	(___fsmul_PARM_1 + 2)
   0364 9E E6 1B            414 	lda	27,s
   0367 C7s00r03            415 	sta	(___fsmul_PARM_1 + 3)
   036A CDs00r00            416 	jsr	___fsmul
   036D C7s00r03            417 	sta	(___fsadd_PARM_2 + 3)
   0370 CFs00r02            418 	stx	(___fsadd_PARM_2 + 2)
   0373 B6*00               419 	lda	*__ret2
   0375 C7s00r01            420 	sta	(___fsadd_PARM_2 + 1)
   0378 B6*00               421 	lda	*__ret3
   037A C7s00r00            422 	sta	___fsadd_PARM_2
   037D 9E E6 18            423 	lda	24,s
   0380 C7s00r00            424 	sta	___fsadd_PARM_1
   0383 9E E6 19            425 	lda	25,s
   0386 C7s00r01            426 	sta	(___fsadd_PARM_1 + 1)
   0389 9E E6 1A            427 	lda	26,s
   038C C7s00r02            428 	sta	(___fsadd_PARM_1 + 2)
   038F 9E E6 1B            429 	lda	27,s
   0392 C7s00r03            430 	sta	(___fsadd_PARM_1 + 3)
   0395 CDs00r00            431 	jsr	___fsadd
   0398 C7s00r03            432 	sta	(___fsadd_PARM_2 + 3)
   039B CFs00r02            433 	stx	(___fsadd_PARM_2 + 2)
   039E B6*00               434 	lda	*__ret2
   03A0 C7s00r01            435 	sta	(___fsadd_PARM_2 + 1)
   03A3 B6*00               436 	lda	*__ret3
   03A5 C7s00r00            437 	sta	___fsadd_PARM_2
                            438 ;../logf.c:247: xn=n;
   03A8 9E EE 06            439 	ldx	6,s
   03AB 9E E6 07            440 	lda	7,s
   03AE CDs00r00            441 	jsr	___sint2fs
   03B1 9E E7 0B            442 	sta	11,s
   03B4 9E EF 0A            443 	stx	10,s
   03B7 B6*00               444 	lda	*__ret2
   03B9 9E E7 09            445 	sta	9,s
   03BC B6*00               446 	lda	*__ret3
   03BE 9E E7 08            447 	sta	8,s
                            448 ;../logf.c:248: return ((xn*C2+Rz)+xn*C1);
   03C1 A6 B9               449 	lda	#0xB9
   03C3 C7s00r00            450 	sta	___fsmul_PARM_1
   03C6 A6 5E               451 	lda	#0x5E
   03C8 C7s00r01            452 	sta	(___fsmul_PARM_1 + 1)
   03CB A6 80               453 	lda	#0x80
   03CD C7s00r02            454 	sta	(___fsmul_PARM_1 + 2)
   03D0 A6 83               455 	lda	#0x83
   03D2 C7s00r03            456 	sta	(___fsmul_PARM_1 + 3)
   03D5 9E E6 08            457 	lda	8,s
   03D8 C7s00r00            458 	sta	___fsmul_PARM_2
   03DB 9E E6 09            459 	lda	9,s
   03DE C7s00r01            460 	sta	(___fsmul_PARM_2 + 1)
   03E1 9E E6 0A            461 	lda	10,s
   03E4 C7s00r02            462 	sta	(___fsmul_PARM_2 + 2)
   03E7 9E E6 0B            463 	lda	11,s
   03EA C7s00r03            464 	sta	(___fsmul_PARM_2 + 3)
   03ED CDs00r00            465 	jsr	___fsmul
   03F0 C7s00r03            466 	sta	(___fsadd_PARM_1 + 3)
   03F3 CFs00r02            467 	stx	(___fsadd_PARM_1 + 2)
   03F6 B6*00               468 	lda	*__ret2
   03F8 C7s00r01            469 	sta	(___fsadd_PARM_1 + 1)
   03FB B6*00               470 	lda	*__ret3
   03FD C7s00r00            471 	sta	___fsadd_PARM_1
   0400 CDs00r00            472 	jsr	___fsadd
   0403 C7s00r03            473 	sta	(___fsadd_PARM_1 + 3)
   0406 CFs00r02            474 	stx	(___fsadd_PARM_1 + 2)
   0409 B6*00               475 	lda	*__ret2
   040B C7s00r01            476 	sta	(___fsadd_PARM_1 + 1)
   040E B6*00               477 	lda	*__ret3
   0410 C7s00r00            478 	sta	___fsadd_PARM_1
   0413 A6 3F               479 	lda	#0x3F
   0415 C7s00r00            480 	sta	___fsmul_PARM_1
   0418 A6 31               481 	lda	#0x31
   041A C7s00r01            482 	sta	(___fsmul_PARM_1 + 1)
   041D A6 80               483 	lda	#0x80
   041F C7s00r02            484 	sta	(___fsmul_PARM_1 + 2)
   0422 4F                  485 	clra
   0423 C7s00r03            486 	sta	(___fsmul_PARM_1 + 3)
   0426 9E E6 08            487 	lda	8,s
   0429 C7s00r00            488 	sta	___fsmul_PARM_2
   042C 9E E6 09            489 	lda	9,s
   042F C7s00r01            490 	sta	(___fsmul_PARM_2 + 1)
   0432 9E E6 0A            491 	lda	10,s
   0435 C7s00r02            492 	sta	(___fsmul_PARM_2 + 2)
   0438 9E E6 0B            493 	lda	11,s
   043B C7s00r03            494 	sta	(___fsmul_PARM_2 + 3)
   043E CDs00r00            495 	jsr	___fsmul
   0441 C7s00r03            496 	sta	(___fsadd_PARM_2 + 3)
   0444 CFs00r02            497 	stx	(___fsadd_PARM_2 + 2)
   0447 B6*00               498 	lda	*__ret2
   0449 C7s00r01            499 	sta	(___fsadd_PARM_2 + 1)
   044C B6*00               500 	lda	*__ret3
   044E C7s00r00            501 	sta	___fsadd_PARM_2
   0451 CDs00r00            502 	jsr	___fsadd
   0454 9E E7 04            503 	sta	4,s
   0457 9E EF 03            504 	stx	3,s
   045A B6*00               505 	lda	*__ret2
   045C 9E E7 02            506 	sta	2,s
   045F B6*00               507 	lda	*__ret3
   0461 9E E7 01            508 	sta	1,s
   0464 9E E6 01            509 	lda	1,s
   0467 B7*00               510 	sta	*__ret3
   0469 9E E6 02            511 	lda	2,s
   046C B7*00               512 	sta	*__ret2
   046E 9E EE 03            513 	ldx	3,s
   0471 9E E6 04            514 	lda	4,s
   0474                     515 00106$:
   0474 A7 1F               516 	ais	#31
   0476 81                  517 	rts
                            518 	.area CSEG (CODE)
                            519 	.area CONST   (CODE)
                            520 	.area XINIT
                            521 	.area CABS    (ABS,CODE)
