                              1 ;--------------------------------------------------------
                              2 ; File Created by SDCC : free open source ANSI-C Compiler
                              3 ; Version 3.0.1 #6227 (Oct  2 2015) (Linux)
                              4 ; This file was generated Fri Oct  2 17:15:21 2015
                              5 ;--------------------------------------------------------
                              6 	.module tancotf
                              7 	.optsdcc -mhc08
                              8 	
                              9 	.area HOME (CODE)
                             10 	.area GSINIT0 (CODE)
                             11 	.area GSINIT (CODE)
                             12 	.area GSFINAL (CODE)
                             13 	.area CSEG (CODE)
                             14 	.area XINIT
                             15 	.area CONST   (CODE)
                             16 	.area DSEG
                             17 	.area OSEG    (OVR)
                             18 	.area BSEG
                             19 	.area XSEG
                             20 	.area XISEG
                             21 ;--------------------------------------------------------
                             22 ; Public variables in this module
                             23 ;--------------------------------------------------------
                             24 	.globl _tancotf
                             25 	.globl _tancotf_PARM_2
                             26 	.globl _tancotf_PARM_1
                             27 ;--------------------------------------------------------
                             28 ;  ram data
                             29 ;--------------------------------------------------------
                             30 	.area DSEG
   0000                      31 _tancotf_sloc0_1_0:
   0000                      32 	.ds 1
   0001                      33 _tancotf_sloc1_1_0:
   0001                      34 	.ds 4
   0005                      35 _tancotf_sloc2_1_0:
   0005                      36 	.ds 4
                             37 ;--------------------------------------------------------
                             38 ; overlayable items in  ram 
                             39 ;--------------------------------------------------------
                             40 	.area OSEG    (OVR)
                             41 ;--------------------------------------------------------
                             42 ; absolute external ram data
                             43 ;--------------------------------------------------------
                             44 	.area XABS    (ABS)
                             45 ;--------------------------------------------------------
                             46 ; external initialized ram data
                             47 ;--------------------------------------------------------
                             48 	.area XISEG
                             49 ;--------------------------------------------------------
                             50 ; extended address mode data
                             51 ;--------------------------------------------------------
                             52 	.area XSEG
   0000                      53 _tancotf_PARM_1:
   0000                      54 	.ds 4
   0004                      55 _tancotf_PARM_2:
   0004                      56 	.ds 1
   0005                      57 _tancotf_f_1_1:
   0005                      58 	.ds 4
   0009                      59 _tancotf_g_1_1:
   0009                      60 	.ds 4
   000D                      61 _tancotf_xn_1_1:
   000D                      62 	.ds 4
   0011                      63 _tancotf_xnum_1_1:
   0011                      64 	.ds 4
   0015                      65 _tancotf_xden_1_1:
   0015                      66 	.ds 4
   0019                      67 _tancotf_n_1_1:
   0019                      68 	.ds 2
                             69 ;--------------------------------------------------------
                             70 ; global & static initialisations
                             71 ;--------------------------------------------------------
                             72 	.area HOME (CODE)
                             73 	.area GSINIT (CODE)
                             74 	.area GSFINAL (CODE)
                             75 	.area GSINIT (CODE)
                             76 ;--------------------------------------------------------
                             77 ; Home
                             78 ;--------------------------------------------------------
                             79 	.area HOME (CODE)
                             80 	.area HOME (CODE)
                             81 ;--------------------------------------------------------
                             82 ; code
                             83 ;--------------------------------------------------------
                             84 	.area CSEG (CODE)
                             85 ;------------------------------------------------------------
                             86 ;Allocation info for local variables in function 'tancotf'
                             87 ;------------------------------------------------------------
                             88 ;sloc0                     Allocated with name '_tancotf_sloc0_1_0'
                             89 ;sloc1                     Allocated with name '_tancotf_sloc1_1_0'
                             90 ;sloc2                     Allocated with name '_tancotf_sloc2_1_0'
                             91 ;x                         Allocated with name '_tancotf_PARM_1'
                             92 ;iscotan                   Allocated with name '_tancotf_PARM_2'
                             93 ;f                         Allocated with name '_tancotf_f_1_1'
                             94 ;g                         Allocated with name '_tancotf_g_1_1'
                             95 ;xn                        Allocated with name '_tancotf_xn_1_1'
                             96 ;xnum                      Allocated with name '_tancotf_xnum_1_1'
                             97 ;xden                      Allocated with name '_tancotf_xden_1_1'
                             98 ;n                         Allocated with name '_tancotf_n_1_1'
                             99 ;------------------------------------------------------------
                            100 ;../tancotf.c:53: float tancotf(const float x, const BOOL iscotan)
                            101 ;	-----------------------------------------
                            102 ;	 function tancotf
                            103 ;	-----------------------------------------
   0000                     104 _tancotf:
                            105 ;../tancotf.c:58: if (fabsf(x) > YMAX)
   0000 C6s00r03            106 	lda	(_tancotf_PARM_1 + 3)
   0003 87                  107 	psha
   0004 C6s00r02            108 	lda	(_tancotf_PARM_1 + 2)
   0007 87                  109 	psha
   0008 C6s00r01            110 	lda	(_tancotf_PARM_1 + 1)
   000B 87                  111 	psha
   000C C6s00r00            112 	lda	_tancotf_PARM_1
   000F 87                  113 	psha
   0010 CDs00r00            114 	jsr	_fabsf
   0013 C7s00r03            115 	sta	(___fsgt_PARM_1 + 3)
   0016 CFs00r02            116 	stx	(___fsgt_PARM_1 + 2)
   0019 B6*00               117 	lda	*__ret2
   001B C7s00r01            118 	sta	(___fsgt_PARM_1 + 1)
   001E B6*00               119 	lda	*__ret3
   0020 C7s00r00            120 	sta	___fsgt_PARM_1
   0023 A7 04               121 	ais	#4
   0025 A6 45               122 	lda	#0x45
   0027 C7s00r00            123 	sta	___fsgt_PARM_2
   002A A6 C9               124 	lda	#0xC9
   002C C7s00r01            125 	sta	(___fsgt_PARM_2 + 1)
   002F A6 08               126 	lda	#0x08
   0031 C7s00r02            127 	sta	(___fsgt_PARM_2 + 2)
   0034 4F                  128 	clra
   0035 C7s00r03            129 	sta	(___fsgt_PARM_2 + 3)
   0038 CDs00r00            130 	jsr	___fsgt
   003B B7*00               131 	sta	*_tancotf_sloc0_1_0
   003D 3D*00               132 	tst	*_tancotf_sloc0_1_0
   003F 27 10               133 	beq	00102$
   0041                     134 00125$:
                            135 ;../tancotf.c:60: errno = ERANGE;
   0041 4F                  136 	clra
   0042 C7s00r00            137 	sta	_errno
   0045 A6 22               138 	lda	#0x22
   0047 C7s00r01            139 	sta	(_errno + 1)
                            140 ;../tancotf.c:61: return 0.0;
   004A 3F*00               141 	clr	*__ret3
   004C 3F*00               142 	clr	*__ret2
   004E 5F                  143 	clrx
   004F 4F                  144 	clra
   0050 81                  145 	rts
   0051                     146 00102$:
                            147 ;../tancotf.c:65: n=(x*TWO_O_PI+(x>0.0?0.5:-0.5)); /*works for +-x*/
   0051 A6 3F               148 	lda	#0x3F
   0053 C7s00r00            149 	sta	___fsmul_PARM_1
   0056 A6 22               150 	lda	#0x22
   0058 C7s00r01            151 	sta	(___fsmul_PARM_1 + 1)
   005B A6 F9               152 	lda	#0xF9
   005D C7s00r02            153 	sta	(___fsmul_PARM_1 + 2)
   0060 A6 83               154 	lda	#0x83
   0062 C7s00r03            155 	sta	(___fsmul_PARM_1 + 3)
   0065 C6s00r00            156 	lda	_tancotf_PARM_1
   0068 C7s00r00            157 	sta	___fsmul_PARM_2
   006B C6s00r01            158 	lda	(_tancotf_PARM_1 + 1)
   006E C7s00r01            159 	sta	(___fsmul_PARM_2 + 1)
   0071 C6s00r02            160 	lda	(_tancotf_PARM_1 + 2)
   0074 C7s00r02            161 	sta	(___fsmul_PARM_2 + 2)
   0077 C6s00r03            162 	lda	(_tancotf_PARM_1 + 3)
   007A C7s00r03            163 	sta	(___fsmul_PARM_2 + 3)
   007D CDs00r00            164 	jsr	___fsmul
   0080 B7*04               165 	sta	*(_tancotf_sloc1_1_0 + 3)
   0082 BF*03               166 	stx	*(_tancotf_sloc1_1_0 + 2)
   0084 4E*00*02            167 	mov	*__ret2,*(_tancotf_sloc1_1_0 + 1)
   0087 4E*00*01            168 	mov	*__ret3,*_tancotf_sloc1_1_0
   008A C6s00r00            169 	lda	_tancotf_PARM_1
   008D C7s00r00            170 	sta	___fsgt_PARM_1
   0090 C6s00r01            171 	lda	(_tancotf_PARM_1 + 1)
   0093 C7s00r01            172 	sta	(___fsgt_PARM_1 + 1)
   0096 C6s00r02            173 	lda	(_tancotf_PARM_1 + 2)
   0099 C7s00r02            174 	sta	(___fsgt_PARM_1 + 2)
   009C C6s00r03            175 	lda	(_tancotf_PARM_1 + 3)
   009F C7s00r03            176 	sta	(___fsgt_PARM_1 + 3)
   00A2 4F                  177 	clra
   00A3 C7s00r00            178 	sta	___fsgt_PARM_2
   00A6 C7s00r01            179 	sta	(___fsgt_PARM_2 + 1)
   00A9 C7s00r02            180 	sta	(___fsgt_PARM_2 + 2)
   00AC C7s00r03            181 	sta	(___fsgt_PARM_2 + 3)
   00AF CDs00r00            182 	jsr	___fsgt
   00B2 B7*00               183 	sta	*_tancotf_sloc0_1_0
   00B4 3D*00               184 	tst	*_tancotf_sloc0_1_0
   00B6 27 0A               185 	beq	00117$
   00B8                     186 00126$:
   00B8 3F*05               187 	clr	*_tancotf_sloc2_1_0
   00BA 3F*06               188 	clr	*(_tancotf_sloc2_1_0 + 1)
   00BC 3F*07               189 	clr	*(_tancotf_sloc2_1_0 + 2)
   00BE 3F*08               190 	clr	*(_tancotf_sloc2_1_0 + 3)
   00C0 20 08               191 	bra	00118$
   00C2                     192 00117$:
   00C2 3F*05               193 	clr	*_tancotf_sloc2_1_0
   00C4 3F*06               194 	clr	*(_tancotf_sloc2_1_0 + 1)
   00C6 3F*07               195 	clr	*(_tancotf_sloc2_1_0 + 2)
   00C8 3F*08               196 	clr	*(_tancotf_sloc2_1_0 + 3)
   00CA                     197 00118$:
   00CA B6*01               198 	lda	*_tancotf_sloc1_1_0
   00CC C7s00r00            199 	sta	___fsadd_PARM_1
   00CF B6*02               200 	lda	*(_tancotf_sloc1_1_0 + 1)
   00D1 C7s00r01            201 	sta	(___fsadd_PARM_1 + 1)
   00D4 B6*03               202 	lda	*(_tancotf_sloc1_1_0 + 2)
   00D6 C7s00r02            203 	sta	(___fsadd_PARM_1 + 2)
   00D9 B6*04               204 	lda	*(_tancotf_sloc1_1_0 + 3)
   00DB C7s00r03            205 	sta	(___fsadd_PARM_1 + 3)
   00DE B6*05               206 	lda	*_tancotf_sloc2_1_0
   00E0 C7s00r00            207 	sta	___fsadd_PARM_2
   00E3 B6*06               208 	lda	*(_tancotf_sloc2_1_0 + 1)
   00E5 C7s00r01            209 	sta	(___fsadd_PARM_2 + 1)
   00E8 B6*07               210 	lda	*(_tancotf_sloc2_1_0 + 2)
   00EA C7s00r02            211 	sta	(___fsadd_PARM_2 + 2)
   00ED B6*08               212 	lda	*(_tancotf_sloc2_1_0 + 3)
   00EF C7s00r03            213 	sta	(___fsadd_PARM_2 + 3)
   00F2 CDs00r00            214 	jsr	___fsadd
   00F5 C7s00r03            215 	sta	(___fs2sint_PARM_1 + 3)
   00F8 CFs00r02            216 	stx	(___fs2sint_PARM_1 + 2)
   00FB B6*00               217 	lda	*__ret2
   00FD C7s00r01            218 	sta	(___fs2sint_PARM_1 + 1)
   0100 B6*00               219 	lda	*__ret3
   0102 C7s00r00            220 	sta	___fs2sint_PARM_1
   0105 CDs00r00            221 	jsr	___fs2sint
   0108 C7s00r1A            222 	sta	(_tancotf_n_1_1 + 1)
   010B CFs00r19            223 	stx	_tancotf_n_1_1
                            224 ;../tancotf.c:66: xn=n;
   010E CEs00r19            225 	ldx	_tancotf_n_1_1
   0111 C6s00r1A            226 	lda	(_tancotf_n_1_1 + 1)
   0114 CDs00r00            227 	jsr	___sint2fs
   0117 C7s00r10            228 	sta	(_tancotf_xn_1_1 + 3)
   011A CFs00r0F            229 	stx	(_tancotf_xn_1_1 + 2)
   011D B6*00               230 	lda	*__ret2
   011F C7s00r0E            231 	sta	(_tancotf_xn_1_1 + 1)
   0122 B6*00               232 	lda	*__ret3
   0124 C7s00r0D            233 	sta	_tancotf_xn_1_1
                            234 ;../tancotf.c:68: xnum=(int)x;
   0127 C6s00r00            235 	lda	_tancotf_PARM_1
   012A C7s00r00            236 	sta	___fs2sint_PARM_1
   012D C6s00r01            237 	lda	(_tancotf_PARM_1 + 1)
   0130 C7s00r01            238 	sta	(___fs2sint_PARM_1 + 1)
   0133 C6s00r02            239 	lda	(_tancotf_PARM_1 + 2)
   0136 C7s00r02            240 	sta	(___fs2sint_PARM_1 + 2)
   0139 C6s00r03            241 	lda	(_tancotf_PARM_1 + 3)
   013C C7s00r03            242 	sta	(___fs2sint_PARM_1 + 3)
   013F CDs00r00            243 	jsr	___fs2sint
   0142 CDs00r00            244 	jsr	___sint2fs
   0145 C7s00r14            245 	sta	(_tancotf_xnum_1_1 + 3)
   0148 CFs00r13            246 	stx	(_tancotf_xnum_1_1 + 2)
   014B B6*00               247 	lda	*__ret2
   014D C7s00r12            248 	sta	(_tancotf_xnum_1_1 + 1)
   0150 B6*00               249 	lda	*__ret3
   0152 C7s00r11            250 	sta	_tancotf_xnum_1_1
                            251 ;../tancotf.c:69: xden=x-xnum;
   0155 C6s00r00            252 	lda	_tancotf_PARM_1
   0158 C7s00r00            253 	sta	___fssub_PARM_1
   015B C6s00r01            254 	lda	(_tancotf_PARM_1 + 1)
   015E C7s00r01            255 	sta	(___fssub_PARM_1 + 1)
   0161 C6s00r02            256 	lda	(_tancotf_PARM_1 + 2)
   0164 C7s00r02            257 	sta	(___fssub_PARM_1 + 2)
   0167 C6s00r03            258 	lda	(_tancotf_PARM_1 + 3)
   016A C7s00r03            259 	sta	(___fssub_PARM_1 + 3)
   016D C6s00r11            260 	lda	_tancotf_xnum_1_1
   0170 C7s00r00            261 	sta	___fssub_PARM_2
   0173 C6s00r12            262 	lda	(_tancotf_xnum_1_1 + 1)
   0176 C7s00r01            263 	sta	(___fssub_PARM_2 + 1)
   0179 C6s00r13            264 	lda	(_tancotf_xnum_1_1 + 2)
   017C C7s00r02            265 	sta	(___fssub_PARM_2 + 2)
   017F C6s00r14            266 	lda	(_tancotf_xnum_1_1 + 3)
   0182 C7s00r03            267 	sta	(___fssub_PARM_2 + 3)
   0185 CDs00r00            268 	jsr	___fssub
   0188 C7s00r18            269 	sta	(_tancotf_xden_1_1 + 3)
   018B CFs00r17            270 	stx	(_tancotf_xden_1_1 + 2)
   018E B6*00               271 	lda	*__ret2
   0190 C7s00r16            272 	sta	(_tancotf_xden_1_1 + 1)
   0193 B6*00               273 	lda	*__ret3
   0195 C7s00r15            274 	sta	_tancotf_xden_1_1
                            275 ;../tancotf.c:70: f=((xnum-xn*C1)+xden)-xn*C2;
   0198 A6 3F               276 	lda	#0x3F
   019A C7s00r00            277 	sta	___fsmul_PARM_1
   019D A6 C9               278 	lda	#0xC9
   019F C7s00r01            279 	sta	(___fsmul_PARM_1 + 1)
   01A2 4F                  280 	clra
   01A3 C7s00r02            281 	sta	(___fsmul_PARM_1 + 2)
   01A6 C7s00r03            282 	sta	(___fsmul_PARM_1 + 3)
   01A9 C6s00r0D            283 	lda	_tancotf_xn_1_1
   01AC C7s00r00            284 	sta	___fsmul_PARM_2
   01AF C6s00r0E            285 	lda	(_tancotf_xn_1_1 + 1)
   01B2 C7s00r01            286 	sta	(___fsmul_PARM_2 + 1)
   01B5 C6s00r0F            287 	lda	(_tancotf_xn_1_1 + 2)
   01B8 C7s00r02            288 	sta	(___fsmul_PARM_2 + 2)
   01BB C6s00r10            289 	lda	(_tancotf_xn_1_1 + 3)
   01BE C7s00r03            290 	sta	(___fsmul_PARM_2 + 3)
   01C1 CDs00r00            291 	jsr	___fsmul
   01C4 C7s00r03            292 	sta	(___fssub_PARM_2 + 3)
   01C7 CFs00r02            293 	stx	(___fssub_PARM_2 + 2)
   01CA B6*00               294 	lda	*__ret2
   01CC C7s00r01            295 	sta	(___fssub_PARM_2 + 1)
   01CF B6*00               296 	lda	*__ret3
   01D1 C7s00r00            297 	sta	___fssub_PARM_2
   01D4 C6s00r11            298 	lda	_tancotf_xnum_1_1
   01D7 C7s00r00            299 	sta	___fssub_PARM_1
   01DA C6s00r12            300 	lda	(_tancotf_xnum_1_1 + 1)
   01DD C7s00r01            301 	sta	(___fssub_PARM_1 + 1)
   01E0 C6s00r13            302 	lda	(_tancotf_xnum_1_1 + 2)
   01E3 C7s00r02            303 	sta	(___fssub_PARM_1 + 2)
   01E6 C6s00r14            304 	lda	(_tancotf_xnum_1_1 + 3)
   01E9 C7s00r03            305 	sta	(___fssub_PARM_1 + 3)
   01EC CDs00r00            306 	jsr	___fssub
   01EF C7s00r03            307 	sta	(___fsadd_PARM_1 + 3)
   01F2 CFs00r02            308 	stx	(___fsadd_PARM_1 + 2)
   01F5 B6*00               309 	lda	*__ret2
   01F7 C7s00r01            310 	sta	(___fsadd_PARM_1 + 1)
   01FA B6*00               311 	lda	*__ret3
   01FC C7s00r00            312 	sta	___fsadd_PARM_1
   01FF C6s00r15            313 	lda	_tancotf_xden_1_1
   0202 C7s00r00            314 	sta	___fsadd_PARM_2
   0205 C6s00r16            315 	lda	(_tancotf_xden_1_1 + 1)
   0208 C7s00r01            316 	sta	(___fsadd_PARM_2 + 1)
   020B C6s00r17            317 	lda	(_tancotf_xden_1_1 + 2)
   020E C7s00r02            318 	sta	(___fsadd_PARM_2 + 2)
   0211 C6s00r18            319 	lda	(_tancotf_xden_1_1 + 3)
   0214 C7s00r03            320 	sta	(___fsadd_PARM_2 + 3)
   0217 CDs00r00            321 	jsr	___fsadd
   021A C7s00r03            322 	sta	(___fssub_PARM_1 + 3)
   021D CFs00r02            323 	stx	(___fssub_PARM_1 + 2)
   0220 B6*00               324 	lda	*__ret2
   0222 C7s00r01            325 	sta	(___fssub_PARM_1 + 1)
   0225 B6*00               326 	lda	*__ret3
   0227 C7s00r00            327 	sta	___fssub_PARM_1
   022A A6 39               328 	lda	#0x39
   022C C7s00r00            329 	sta	___fsmul_PARM_1
   022F A6 FD               330 	lda	#0xFD
   0231 C7s00r01            331 	sta	(___fsmul_PARM_1 + 1)
   0234 A6 AA               332 	lda	#0xAA
   0236 C7s00r02            333 	sta	(___fsmul_PARM_1 + 2)
   0239 A6 22               334 	lda	#0x22
   023B C7s00r03            335 	sta	(___fsmul_PARM_1 + 3)
   023E C6s00r0D            336 	lda	_tancotf_xn_1_1
   0241 C7s00r00            337 	sta	___fsmul_PARM_2
   0244 C6s00r0E            338 	lda	(_tancotf_xn_1_1 + 1)
   0247 C7s00r01            339 	sta	(___fsmul_PARM_2 + 1)
   024A C6s00r0F            340 	lda	(_tancotf_xn_1_1 + 2)
   024D C7s00r02            341 	sta	(___fsmul_PARM_2 + 2)
   0250 C6s00r10            342 	lda	(_tancotf_xn_1_1 + 3)
   0253 C7s00r03            343 	sta	(___fsmul_PARM_2 + 3)
   0256 CDs00r00            344 	jsr	___fsmul
   0259 C7s00r03            345 	sta	(___fssub_PARM_2 + 3)
   025C CFs00r02            346 	stx	(___fssub_PARM_2 + 2)
   025F B6*00               347 	lda	*__ret2
   0261 C7s00r01            348 	sta	(___fssub_PARM_2 + 1)
   0264 B6*00               349 	lda	*__ret3
   0266 C7s00r00            350 	sta	___fssub_PARM_2
   0269 CDs00r00            351 	jsr	___fssub
   026C C7s00r08            352 	sta	(_tancotf_f_1_1 + 3)
   026F CFs00r07            353 	stx	(_tancotf_f_1_1 + 2)
   0272 B6*00               354 	lda	*__ret2
   0274 C7s00r06            355 	sta	(_tancotf_f_1_1 + 1)
   0277 B6*00               356 	lda	*__ret3
   0279 C7s00r05            357 	sta	_tancotf_f_1_1
                            358 ;../tancotf.c:72: if (fabsf(f) < EPS)
   027C C6s00r08            359 	lda	(_tancotf_f_1_1 + 3)
   027F 87                  360 	psha
   0280 C6s00r07            361 	lda	(_tancotf_f_1_1 + 2)
   0283 87                  362 	psha
   0284 C6s00r06            363 	lda	(_tancotf_f_1_1 + 1)
   0287 87                  364 	psha
   0288 C6s00r05            365 	lda	_tancotf_f_1_1
   028B 87                  366 	psha
   028C CDs00r00            367 	jsr	_fabsf
   028F C7s00r03            368 	sta	(___fslt_PARM_1 + 3)
   0292 CFs00r02            369 	stx	(___fslt_PARM_1 + 2)
   0295 B6*00               370 	lda	*__ret2
   0297 C7s00r01            371 	sta	(___fslt_PARM_1 + 1)
   029A B6*00               372 	lda	*__ret3
   029C C7s00r00            373 	sta	___fslt_PARM_1
   029F A7 04               374 	ais	#4
   02A1 A6 39               375 	lda	#0x39
   02A3 C7s00r00            376 	sta	___fslt_PARM_2
   02A6 A6 80               377 	lda	#0x80
   02A8 C7s00r01            378 	sta	(___fslt_PARM_2 + 1)
   02AB 4F                  379 	clra
   02AC C7s00r02            380 	sta	(___fslt_PARM_2 + 2)
   02AF C7s00r03            381 	sta	(___fslt_PARM_2 + 3)
   02B2 CDs00r00            382 	jsr	___fslt
   02B5 B7*05               383 	sta	*_tancotf_sloc2_1_0
   02B7 3D*05               384 	tst	*_tancotf_sloc2_1_0
   02B9 27 2C               385 	beq	00104$
   02BB                     386 00127$:
                            387 ;../tancotf.c:74: xnum = f;
   02BB C6s00r05            388 	lda	_tancotf_f_1_1
   02BE C7s00r11            389 	sta	_tancotf_xnum_1_1
   02C1 C6s00r06            390 	lda	(_tancotf_f_1_1 + 1)
   02C4 C7s00r12            391 	sta	(_tancotf_xnum_1_1 + 1)
   02C7 C6s00r07            392 	lda	(_tancotf_f_1_1 + 2)
   02CA C7s00r13            393 	sta	(_tancotf_xnum_1_1 + 2)
   02CD C6s00r08            394 	lda	(_tancotf_f_1_1 + 3)
   02D0 C7s00r14            395 	sta	(_tancotf_xnum_1_1 + 3)
                            396 ;../tancotf.c:75: xden = 1.0;
   02D3 A6 3F               397 	lda	#0x3F
   02D5 C7s00r15            398 	sta	_tancotf_xden_1_1
   02D8 A6 80               399 	lda	#0x80
   02DA C7s00r16            400 	sta	(_tancotf_xden_1_1 + 1)
   02DD 4F                  401 	clra
   02DE C7s00r17            402 	sta	(_tancotf_xden_1_1 + 2)
   02E1 C7s00r18            403 	sta	(_tancotf_xden_1_1 + 3)
   02E4 CCs04r74            404 	jmp	00105$
   02E7                     405 00104$:
                            406 ;../tancotf.c:79: g = f*f;
   02E7 C6s00r05            407 	lda	_tancotf_f_1_1
   02EA C7s00r00            408 	sta	___fsmul_PARM_1
   02ED C6s00r06            409 	lda	(_tancotf_f_1_1 + 1)
   02F0 C7s00r01            410 	sta	(___fsmul_PARM_1 + 1)
   02F3 C6s00r07            411 	lda	(_tancotf_f_1_1 + 2)
   02F6 C7s00r02            412 	sta	(___fsmul_PARM_1 + 2)
   02F9 C6s00r08            413 	lda	(_tancotf_f_1_1 + 3)
   02FC C7s00r03            414 	sta	(___fsmul_PARM_1 + 3)
   02FF C6s00r05            415 	lda	_tancotf_f_1_1
   0302 C7s00r00            416 	sta	___fsmul_PARM_2
   0305 C6s00r06            417 	lda	(_tancotf_f_1_1 + 1)
   0308 C7s00r01            418 	sta	(___fsmul_PARM_2 + 1)
   030B C6s00r07            419 	lda	(_tancotf_f_1_1 + 2)
   030E C7s00r02            420 	sta	(___fsmul_PARM_2 + 2)
   0311 C6s00r08            421 	lda	(_tancotf_f_1_1 + 3)
   0314 C7s00r03            422 	sta	(___fsmul_PARM_2 + 3)
   0317 CDs00r00            423 	jsr	___fsmul
   031A C7s00r0C            424 	sta	(_tancotf_g_1_1 + 3)
   031D CFs00r0B            425 	stx	(_tancotf_g_1_1 + 2)
   0320 B6*00               426 	lda	*__ret2
   0322 C7s00r0A            427 	sta	(_tancotf_g_1_1 + 1)
   0325 B6*00               428 	lda	*__ret3
   0327 C7s00r09            429 	sta	_tancotf_g_1_1
                            430 ;../tancotf.c:80: xnum = P(f,g);
   032A A6 BD               431 	lda	#0xBD
   032C C7s00r00            432 	sta	___fsmul_PARM_1
   032F A6 C4               433 	lda	#0xC4
   0331 C7s00r01            434 	sta	(___fsmul_PARM_1 + 1)
   0334 A6 33               435 	lda	#0x33
   0336 C7s00r02            436 	sta	(___fsmul_PARM_1 + 2)
   0339 A6 B8               437 	lda	#0xB8
   033B C7s00r03            438 	sta	(___fsmul_PARM_1 + 3)
   033E C6s00r09            439 	lda	_tancotf_g_1_1
   0341 C7s00r00            440 	sta	___fsmul_PARM_2
   0344 C6s00r0A            441 	lda	(_tancotf_g_1_1 + 1)
   0347 C7s00r01            442 	sta	(___fsmul_PARM_2 + 1)
   034A C6s00r0B            443 	lda	(_tancotf_g_1_1 + 2)
   034D C7s00r02            444 	sta	(___fsmul_PARM_2 + 2)
   0350 C6s00r0C            445 	lda	(_tancotf_g_1_1 + 3)
   0353 C7s00r03            446 	sta	(___fsmul_PARM_2 + 3)
   0356 CDs00r00            447 	jsr	___fsmul
   0359 C7s00r03            448 	sta	(___fsmul_PARM_1 + 3)
   035C CFs00r02            449 	stx	(___fsmul_PARM_1 + 2)
   035F B6*00               450 	lda	*__ret2
   0361 C7s00r01            451 	sta	(___fsmul_PARM_1 + 1)
   0364 B6*00               452 	lda	*__ret3
   0366 C7s00r00            453 	sta	___fsmul_PARM_1
   0369 C6s00r05            454 	lda	_tancotf_f_1_1
   036C C7s00r00            455 	sta	___fsmul_PARM_2
   036F C6s00r06            456 	lda	(_tancotf_f_1_1 + 1)
   0372 C7s00r01            457 	sta	(___fsmul_PARM_2 + 1)
   0375 C6s00r07            458 	lda	(_tancotf_f_1_1 + 2)
   0378 C7s00r02            459 	sta	(___fsmul_PARM_2 + 2)
   037B C6s00r08            460 	lda	(_tancotf_f_1_1 + 3)
   037E C7s00r03            461 	sta	(___fsmul_PARM_2 + 3)
   0381 CDs00r00            462 	jsr	___fsmul
   0384 C7s00r03            463 	sta	(___fsadd_PARM_1 + 3)
   0387 CFs00r02            464 	stx	(___fsadd_PARM_1 + 2)
   038A B6*00               465 	lda	*__ret2
   038C C7s00r01            466 	sta	(___fsadd_PARM_1 + 1)
   038F B6*00               467 	lda	*__ret3
   0391 C7s00r00            468 	sta	___fsadd_PARM_1
   0394 C6s00r05            469 	lda	_tancotf_f_1_1
   0397 C7s00r00            470 	sta	___fsadd_PARM_2
   039A C6s00r06            471 	lda	(_tancotf_f_1_1 + 1)
   039D C7s00r01            472 	sta	(___fsadd_PARM_2 + 1)
   03A0 C6s00r07            473 	lda	(_tancotf_f_1_1 + 2)
   03A3 C7s00r02            474 	sta	(___fsadd_PARM_2 + 2)
   03A6 C6s00r08            475 	lda	(_tancotf_f_1_1 + 3)
   03A9 C7s00r03            476 	sta	(___fsadd_PARM_2 + 3)
   03AC CDs00r00            477 	jsr	___fsadd
   03AF C7s00r14            478 	sta	(_tancotf_xnum_1_1 + 3)
   03B2 CFs00r13            479 	stx	(_tancotf_xnum_1_1 + 2)
   03B5 B6*00               480 	lda	*__ret2
   03B7 C7s00r12            481 	sta	(_tancotf_xnum_1_1 + 1)
   03BA B6*00               482 	lda	*__ret3
   03BC C7s00r11            483 	sta	_tancotf_xnum_1_1
                            484 ;../tancotf.c:81: xden = Q(g);
   03BF A6 3C               485 	lda	#0x3C
   03C1 C7s00r00            486 	sta	___fsmul_PARM_1
   03C4 A6 1F               487 	lda	#0x1F
   03C6 C7s00r01            488 	sta	(___fsmul_PARM_1 + 1)
   03C9 A6 33               489 	lda	#0x33
   03CB C7s00r02            490 	sta	(___fsmul_PARM_1 + 2)
   03CE A6 75               491 	lda	#0x75
   03D0 C7s00r03            492 	sta	(___fsmul_PARM_1 + 3)
   03D3 C6s00r09            493 	lda	_tancotf_g_1_1
   03D6 C7s00r00            494 	sta	___fsmul_PARM_2
   03D9 C6s00r0A            495 	lda	(_tancotf_g_1_1 + 1)
   03DC C7s00r01            496 	sta	(___fsmul_PARM_2 + 1)
   03DF C6s00r0B            497 	lda	(_tancotf_g_1_1 + 2)
   03E2 C7s00r02            498 	sta	(___fsmul_PARM_2 + 2)
   03E5 C6s00r0C            499 	lda	(_tancotf_g_1_1 + 3)
   03E8 C7s00r03            500 	sta	(___fsmul_PARM_2 + 3)
   03EB CDs00r00            501 	jsr	___fsmul
   03EE C7s00r03            502 	sta	(___fsadd_PARM_1 + 3)
   03F1 CFs00r02            503 	stx	(___fsadd_PARM_1 + 2)
   03F4 B6*00               504 	lda	*__ret2
   03F6 C7s00r01            505 	sta	(___fsadd_PARM_1 + 1)
   03F9 B6*00               506 	lda	*__ret3
   03FB C7s00r00            507 	sta	___fsadd_PARM_1
   03FE A6 BE               508 	lda	#0xBE
   0400 C7s00r00            509 	sta	___fsadd_PARM_2
   0403 A6 DB               510 	lda	#0xDB
   0405 C7s00r01            511 	sta	(___fsadd_PARM_2 + 1)
   0408 A6 B7               512 	lda	#0xB7
   040A C7s00r02            513 	sta	(___fsadd_PARM_2 + 2)
   040D A6 AF               514 	lda	#0xAF
   040F C7s00r03            515 	sta	(___fsadd_PARM_2 + 3)
   0412 CDs00r00            516 	jsr	___fsadd
   0415 C7s00r03            517 	sta	(___fsmul_PARM_1 + 3)
   0418 CFs00r02            518 	stx	(___fsmul_PARM_1 + 2)
   041B B6*00               519 	lda	*__ret2
   041D C7s00r01            520 	sta	(___fsmul_PARM_1 + 1)
   0420 B6*00               521 	lda	*__ret3
   0422 C7s00r00            522 	sta	___fsmul_PARM_1
   0425 C6s00r09            523 	lda	_tancotf_g_1_1
   0428 C7s00r00            524 	sta	___fsmul_PARM_2
   042B C6s00r0A            525 	lda	(_tancotf_g_1_1 + 1)
   042E C7s00r01            526 	sta	(___fsmul_PARM_2 + 1)
   0431 C6s00r0B            527 	lda	(_tancotf_g_1_1 + 2)
   0434 C7s00r02            528 	sta	(___fsmul_PARM_2 + 2)
   0437 C6s00r0C            529 	lda	(_tancotf_g_1_1 + 3)
   043A C7s00r03            530 	sta	(___fsmul_PARM_2 + 3)
   043D CDs00r00            531 	jsr	___fsmul
   0440 C7s00r03            532 	sta	(___fsadd_PARM_1 + 3)
   0443 CFs00r02            533 	stx	(___fsadd_PARM_1 + 2)
   0446 B6*00               534 	lda	*__ret2
   0448 C7s00r01            535 	sta	(___fsadd_PARM_1 + 1)
   044B B6*00               536 	lda	*__ret3
   044D C7s00r00            537 	sta	___fsadd_PARM_1
   0450 A6 3F               538 	lda	#0x3F
   0452 C7s00r00            539 	sta	___fsadd_PARM_2
   0455 A6 80               540 	lda	#0x80
   0457 C7s00r01            541 	sta	(___fsadd_PARM_2 + 1)
   045A 4F                  542 	clra
   045B C7s00r02            543 	sta	(___fsadd_PARM_2 + 2)
   045E C7s00r03            544 	sta	(___fsadd_PARM_2 + 3)
   0461 CDs00r00            545 	jsr	___fsadd
   0464 C7s00r18            546 	sta	(_tancotf_xden_1_1 + 3)
   0467 CFs00r17            547 	stx	(_tancotf_xden_1_1 + 2)
   046A B6*00               548 	lda	*__ret2
   046C C7s00r16            549 	sta	(_tancotf_xden_1_1 + 1)
   046F B6*00               550 	lda	*__ret3
   0471 C7s00r15            551 	sta	_tancotf_xden_1_1
   0474                     552 00105$:
                            553 ;../tancotf.c:84: if(n&1)
   0474 C6s00r1A            554 	lda	(_tancotf_n_1_1 + 1)
   0477 A4 01               555 	and	#0x01
   0479 26 00               556 	bne	00128$
   047B                     557 00128$:
   047B 26 03               558 	bne	00129$
   047D CCs05r19            559 	jmp	00113$
   0480                     560 00129$:
                            561 ;../tancotf.c:87: if(iscotan) return (-xnum/xden);
   0480 C6s00r04            562 	lda	_tancotf_PARM_2
   0483 27 4A               563 	beq	00107$
   0485                     564 00130$:
   0485 C6s00r14            565 	lda	(_tancotf_xnum_1_1 + 3)
   0488 C7s00r03            566 	sta	(___fsdiv_PARM_1 + 3)
   048B C6s00r13            567 	lda	(_tancotf_xnum_1_1 + 2)
   048E C7s00r02            568 	sta	(___fsdiv_PARM_1 + 2)
   0491 C6s00r12            569 	lda	(_tancotf_xnum_1_1 + 1)
   0494 C7s00r01            570 	sta	(___fsdiv_PARM_1 + 1)
   0497 C6s00r11            571 	lda	_tancotf_xnum_1_1
   049A A8 80               572 	eor	#0x80
   049C C7s00r00            573 	sta	___fsdiv_PARM_1
   049F C6s00r15            574 	lda	_tancotf_xden_1_1
   04A2 C7s00r00            575 	sta	___fsdiv_PARM_2
   04A5 C6s00r16            576 	lda	(_tancotf_xden_1_1 + 1)
   04A8 C7s00r01            577 	sta	(___fsdiv_PARM_2 + 1)
   04AB C6s00r17            578 	lda	(_tancotf_xden_1_1 + 2)
   04AE C7s00r02            579 	sta	(___fsdiv_PARM_2 + 2)
   04B1 C6s00r18            580 	lda	(_tancotf_xden_1_1 + 3)
   04B4 C7s00r03            581 	sta	(___fsdiv_PARM_2 + 3)
   04B7 CDs00r00            582 	jsr	___fsdiv
   04BA B7*08               583 	sta	*(_tancotf_sloc2_1_0 + 3)
   04BC BF*07               584 	stx	*(_tancotf_sloc2_1_0 + 2)
   04BE 4E*00*06            585 	mov	*__ret2,*(_tancotf_sloc2_1_0 + 1)
   04C1 4E*00*05            586 	mov	*__ret3,*_tancotf_sloc2_1_0
   04C4 4E*05*00            587 	mov	*_tancotf_sloc2_1_0,*__ret3
   04C7 4E*06*00            588 	mov	*(_tancotf_sloc2_1_0 + 1),*__ret2
   04CA BE*07               589 	ldx	*(_tancotf_sloc2_1_0 + 2)
   04CC B6*08               590 	lda	*(_tancotf_sloc2_1_0 + 3)
   04CE 81                  591 	rts
   04CF                     592 00107$:
                            593 ;../tancotf.c:88: else return (-xden/xnum);
   04CF C6s00r18            594 	lda	(_tancotf_xden_1_1 + 3)
   04D2 C7s00r03            595 	sta	(___fsdiv_PARM_1 + 3)
   04D5 C6s00r17            596 	lda	(_tancotf_xden_1_1 + 2)
   04D8 C7s00r02            597 	sta	(___fsdiv_PARM_1 + 2)
   04DB C6s00r16            598 	lda	(_tancotf_xden_1_1 + 1)
   04DE C7s00r01            599 	sta	(___fsdiv_PARM_1 + 1)
   04E1 C6s00r15            600 	lda	_tancotf_xden_1_1
   04E4 A8 80               601 	eor	#0x80
   04E6 C7s00r00            602 	sta	___fsdiv_PARM_1
   04E9 C6s00r11            603 	lda	_tancotf_xnum_1_1
   04EC C7s00r00            604 	sta	___fsdiv_PARM_2
   04EF C6s00r12            605 	lda	(_tancotf_xnum_1_1 + 1)
   04F2 C7s00r01            606 	sta	(___fsdiv_PARM_2 + 1)
   04F5 C6s00r13            607 	lda	(_tancotf_xnum_1_1 + 2)
   04F8 C7s00r02            608 	sta	(___fsdiv_PARM_2 + 2)
   04FB C6s00r14            609 	lda	(_tancotf_xnum_1_1 + 3)
   04FE C7s00r03            610 	sta	(___fsdiv_PARM_2 + 3)
   0501 CDs00r00            611 	jsr	___fsdiv
   0504 B7*08               612 	sta	*(_tancotf_sloc2_1_0 + 3)
   0506 BF*07               613 	stx	*(_tancotf_sloc2_1_0 + 2)
   0508 4E*00*06            614 	mov	*__ret2,*(_tancotf_sloc2_1_0 + 1)
   050B 4E*00*05            615 	mov	*__ret3,*_tancotf_sloc2_1_0
   050E 4E*05*00            616 	mov	*_tancotf_sloc2_1_0,*__ret3
   0511 4E*06*00            617 	mov	*(_tancotf_sloc2_1_0 + 1),*__ret2
   0514 BE*07               618 	ldx	*(_tancotf_sloc2_1_0 + 2)
   0516 B6*08               619 	lda	*(_tancotf_sloc2_1_0 + 3)
   0518 81                  620 	rts
   0519                     621 00113$:
                            622 ;../tancotf.c:92: if(iscotan) return (xden/xnum);
   0519 C6s00r04            623 	lda	_tancotf_PARM_2
   051C 27 48               624 	beq	00110$
   051E                     625 00131$:
   051E C6s00r15            626 	lda	_tancotf_xden_1_1
   0521 C7s00r00            627 	sta	___fsdiv_PARM_1
   0524 C6s00r16            628 	lda	(_tancotf_xden_1_1 + 1)
   0527 C7s00r01            629 	sta	(___fsdiv_PARM_1 + 1)
   052A C6s00r17            630 	lda	(_tancotf_xden_1_1 + 2)
   052D C7s00r02            631 	sta	(___fsdiv_PARM_1 + 2)
   0530 C6s00r18            632 	lda	(_tancotf_xden_1_1 + 3)
   0533 C7s00r03            633 	sta	(___fsdiv_PARM_1 + 3)
   0536 C6s00r11            634 	lda	_tancotf_xnum_1_1
   0539 C7s00r00            635 	sta	___fsdiv_PARM_2
   053C C6s00r12            636 	lda	(_tancotf_xnum_1_1 + 1)
   053F C7s00r01            637 	sta	(___fsdiv_PARM_2 + 1)
   0542 C6s00r13            638 	lda	(_tancotf_xnum_1_1 + 2)
   0545 C7s00r02            639 	sta	(___fsdiv_PARM_2 + 2)
   0548 C6s00r14            640 	lda	(_tancotf_xnum_1_1 + 3)
   054B C7s00r03            641 	sta	(___fsdiv_PARM_2 + 3)
   054E CDs00r00            642 	jsr	___fsdiv
   0551 B7*08               643 	sta	*(_tancotf_sloc2_1_0 + 3)
   0553 BF*07               644 	stx	*(_tancotf_sloc2_1_0 + 2)
   0555 4E*00*06            645 	mov	*__ret2,*(_tancotf_sloc2_1_0 + 1)
   0558 4E*00*05            646 	mov	*__ret3,*_tancotf_sloc2_1_0
   055B 4E*05*00            647 	mov	*_tancotf_sloc2_1_0,*__ret3
   055E 4E*06*00            648 	mov	*(_tancotf_sloc2_1_0 + 1),*__ret2
   0561 BE*07               649 	ldx	*(_tancotf_sloc2_1_0 + 2)
   0563 B6*08               650 	lda	*(_tancotf_sloc2_1_0 + 3)
   0565 81                  651 	rts
   0566                     652 00110$:
                            653 ;../tancotf.c:93: else return (xnum/xden);
   0566 C6s00r11            654 	lda	_tancotf_xnum_1_1
   0569 C7s00r00            655 	sta	___fsdiv_PARM_1
   056C C6s00r12            656 	lda	(_tancotf_xnum_1_1 + 1)
   056F C7s00r01            657 	sta	(___fsdiv_PARM_1 + 1)
   0572 C6s00r13            658 	lda	(_tancotf_xnum_1_1 + 2)
   0575 C7s00r02            659 	sta	(___fsdiv_PARM_1 + 2)
   0578 C6s00r14            660 	lda	(_tancotf_xnum_1_1 + 3)
   057B C7s00r03            661 	sta	(___fsdiv_PARM_1 + 3)
   057E C6s00r15            662 	lda	_tancotf_xden_1_1
   0581 C7s00r00            663 	sta	___fsdiv_PARM_2
   0584 C6s00r16            664 	lda	(_tancotf_xden_1_1 + 1)
   0587 C7s00r01            665 	sta	(___fsdiv_PARM_2 + 1)
   058A C6s00r17            666 	lda	(_tancotf_xden_1_1 + 2)
   058D C7s00r02            667 	sta	(___fsdiv_PARM_2 + 2)
   0590 C6s00r18            668 	lda	(_tancotf_xden_1_1 + 3)
   0593 C7s00r03            669 	sta	(___fsdiv_PARM_2 + 3)
   0596 CDs00r00            670 	jsr	___fsdiv
   0599 B7*08               671 	sta	*(_tancotf_sloc2_1_0 + 3)
   059B BF*07               672 	stx	*(_tancotf_sloc2_1_0 + 2)
   059D 4E*00*06            673 	mov	*__ret2,*(_tancotf_sloc2_1_0 + 1)
   05A0 4E*00*05            674 	mov	*__ret3,*_tancotf_sloc2_1_0
   05A3 4E*05*00            675 	mov	*_tancotf_sloc2_1_0,*__ret3
   05A6 4E*06*00            676 	mov	*(_tancotf_sloc2_1_0 + 1),*__ret2
   05A9 BE*07               677 	ldx	*(_tancotf_sloc2_1_0 + 2)
   05AB B6*08               678 	lda	*(_tancotf_sloc2_1_0 + 3)
   05AD                     679 00115$:
   05AD 81                  680 	rts
                            681 	.area CSEG (CODE)
                            682 	.area CONST   (CODE)
                            683 	.area XINIT
                            684 	.area CABS    (ABS,CODE)
