                              1 ;--------------------------------------------------------
                              2 ; File Created by SDCC : free open source ANSI-C Compiler
                              3 ; Version 3.0.1 #6227 (Oct  2 2015) (Linux)
                              4 ; This file was generated Fri Oct  2 17:18:16 2015
                              5 ;--------------------------------------------------------
                              6 	.module _fseq
                              7 	.optsdcc -mz80
                              8 	
                              9 ;--------------------------------------------------------
                             10 ; Public variables in this module
                             11 ;--------------------------------------------------------
                             12 	.globl ___fseq
                             13 ;--------------------------------------------------------
                             14 ; special function registers
                             15 ;--------------------------------------------------------
                             16 ;--------------------------------------------------------
                             17 ;  ram data
                             18 ;--------------------------------------------------------
                             19 	.area _DATA
                             20 ;--------------------------------------------------------
                             21 ; overlayable items in  ram 
                             22 ;--------------------------------------------------------
                             23 	.area _OVERLAY
                             24 ;--------------------------------------------------------
                             25 ; external initialized ram data
                             26 ;--------------------------------------------------------
                             27 ;--------------------------------------------------------
                             28 ; global & static initialisations
                             29 ;--------------------------------------------------------
                             30 	.area _HOME
                             31 	.area _GSINIT
                             32 	.area _GSFINAL
                             33 	.area _GSINIT
                             34 ;--------------------------------------------------------
                             35 ; Home
                             36 ;--------------------------------------------------------
                             37 	.area _HOME
                             38 ;../_fseq.c:83: __fseq (float a1, float a2)
                             39 ;	---------------------------------
                             40 ; Function __fseq
                             41 ; ---------------------------------
   0000                      42 ___fseq_start::
   0000                      43 ___fseq:
   0000 DD E5                44 	push	ix
   0002 DD 21 00 00          45 	ld	ix,#0
   0006 DD 39                46 	add	ix,sp
   0008 21 F4 FF             47 	ld	hl,#-12
   000B 39                   48 	add	hl,sp
   000C F9                   49 	ld	sp,hl
                             50 ;../_fseq.c:87: fl1.f = a1;
   000D 21 08 00             51 	ld	hl,#0x0008
   0010 39                   52 	add	hl,sp
   0011 DD 7E 04             53 	ld	a,4 (ix)
   0014 77                   54 	ld	(hl),a
   0015 23                   55 	inc	hl
   0016 DD 7E 05             56 	ld	a,5 (ix)
   0019 77                   57 	ld	(hl),a
   001A 23                   58 	inc	hl
   001B DD 7E 06             59 	ld	a,6 (ix)
   001E 77                   60 	ld	(hl),a
   001F 23                   61 	inc	hl
   0020 DD 7E 07             62 	ld	a,7 (ix)
   0023 77                   63 	ld	(hl),a
                             64 ;../_fseq.c:88: fl2.f = a2;
   0024 21 04 00             65 	ld	hl,#0x0004
   0027 39                   66 	add	hl,sp
   0028 DD 7E 08             67 	ld	a,8 (ix)
   002B 77                   68 	ld	(hl),a
   002C 23                   69 	inc	hl
   002D DD 7E 09             70 	ld	a,9 (ix)
   0030 77                   71 	ld	(hl),a
   0031 23                   72 	inc	hl
   0032 DD 7E 0A             73 	ld	a,10 (ix)
   0035 77                   74 	ld	(hl),a
   0036 23                   75 	inc	hl
   0037 DD 7E 0B             76 	ld	a,11 (ix)
   003A 77                   77 	ld	(hl),a
                             78 ;../_fseq.c:90: if (fl1.l == fl2.l)
   003B 21 08 00             79 	ld	hl,#0x0008
   003E 39                   80 	add	hl,sp
   003F 7E                   81 	ld	a,(hl)
   0040 DD 77 F4             82 	ld	-12 (ix),a
   0043 23                   83 	inc	hl
   0044 7E                   84 	ld	a,(hl)
   0045 DD 77 F5             85 	ld	-11 (ix),a
   0048 23                   86 	inc	hl
   0049 7E                   87 	ld	a,(hl)
   004A DD 77 F6             88 	ld	-10 (ix),a
   004D 23                   89 	inc	hl
   004E 7E                   90 	ld	a,(hl)
   004F DD 77 F7             91 	ld	-9 (ix),a
   0052 21 04 00             92 	ld	hl,#0x0004
   0055 39                   93 	add	hl,sp
   0056 4E                   94 	ld	c,(hl)
   0057 23                   95 	inc	hl
   0058 46                   96 	ld	b,(hl)
   0059 23                   97 	inc	hl
   005A 5E                   98 	ld	e,(hl)
   005B 23                   99 	inc	hl
   005C 56                  100 	ld	d,(hl)
   005D DD 7E F4            101 	ld	a,-12 (ix)
   0060 91                  102 	sub	a,c
   0061 20 16               103 	jr	NZ,00102$
   0063 DD 7E F5            104 	ld	a,-11 (ix)
   0066 90                  105 	sub	a,b
   0067 20 10               106 	jr	NZ,00102$
   0069 DD 7E F6            107 	ld	a,-10 (ix)
   006C 93                  108 	sub	a,e
   006D 20 0A               109 	jr	NZ,00102$
   006F DD 7E F7            110 	ld	a,-9 (ix)
   0072 92                  111 	sub	a,d
   0073 20 04               112 	jr	NZ,00102$
                            113 ;../_fseq.c:91: return (1);
   0075 2E 01               114 	ld	l,#0x01
   0077 18 4D               115 	jr	00105$
   0079                     116 00102$:
                            117 ;../_fseq.c:92: if (((fl1.l | fl2.l) & 0x7FFFFFFF) == 0)
   0079 21 08 00            118 	ld	hl,#0x0008
   007C 39                  119 	add	hl,sp
   007D 7E                  120 	ld	a,(hl)
   007E DD 77 F4            121 	ld	-12 (ix),a
   0081 23                  122 	inc	hl
   0082 7E                  123 	ld	a,(hl)
   0083 DD 77 F5            124 	ld	-11 (ix),a
   0086 23                  125 	inc	hl
   0087 7E                  126 	ld	a,(hl)
   0088 DD 77 F6            127 	ld	-10 (ix),a
   008B 23                  128 	inc	hl
   008C 7E                  129 	ld	a,(hl)
   008D DD 77 F7            130 	ld	-9 (ix),a
   0090 21 04 00            131 	ld	hl,#0x0004
   0093 39                  132 	add	hl,sp
   0094 4E                  133 	ld	c,(hl)
   0095 23                  134 	inc	hl
   0096 46                  135 	ld	b,(hl)
   0097 23                  136 	inc	hl
   0098 5E                  137 	ld	e,(hl)
   0099 23                  138 	inc	hl
   009A 56                  139 	ld	d,(hl)
   009B 79                  140 	ld	a,c
   009C DD B6 F4            141 	or	a, -12 (ix)
   009F 4F                  142 	ld	c,a
   00A0 78                  143 	ld	a,b
   00A1 DD B6 F5            144 	or	a, -11 (ix)
   00A4 47                  145 	ld	b,a
   00A5 7B                  146 	ld	a,e
   00A6 DD B6 F6            147 	or	a, -10 (ix)
   00A9 5F                  148 	ld	e,a
   00AA 7A                  149 	ld	a,d
   00AB DD B6 F7            150 	or	a, -9 (ix)
   00AE 57                  151 	ld	d,a
   00AF 79                  152 	ld	a,c
   00B0 B7                  153 	or	a,a
   00B1 20 11               154 	jr	NZ,00104$
   00B3 78                  155 	ld	a,b
   00B4 B7                  156 	or	a,a
   00B5 20 0D               157 	jr	NZ,00104$
   00B7 7B                  158 	ld	a,e
   00B8 B7                  159 	or	a,a
   00B9 20 09               160 	jr	NZ,00104$
   00BB 7A                  161 	ld	a,d
   00BC E6 7F               162 	and	a,#0x7F
   00BE 20 04               163 	jr	NZ,00104$
                            164 ;../_fseq.c:93: return (1);
   00C0 2E 01               165 	ld	l,#0x01
   00C2 18 02               166 	jr	00105$
   00C4                     167 00104$:
                            168 ;../_fseq.c:94: return (0);
   00C4 2E 00               169 	ld	l,#0x00
   00C6                     170 00105$:
   00C6 DD F9               171 	ld	sp,ix
   00C8 DD E1               172 	pop	ix
   00CA C9                  173 	ret
   00CB                     174 ___fseq_end::
                            175 	.area _HOME
                            176 ;--------------------------------------------------------
                            177 ; code
                            178 ;--------------------------------------------------------
                            179 	.area _CODE
                            180 	.area _CODE
                            181 	.area _CABS
