                              1 ;--------------------------------------------------------
                              2 ; File Created by SDCC : free open source ANSI-C Compiler
                              3 ; Version 3.0.1 #6227 (Oct  2 2015) (Linux)
                              4 ; This file was generated Fri Oct  2 17:18:17 2015
                              5 ;--------------------------------------------------------
                              6 	.module asincosf
                              7 	.optsdcc -mz80
                              8 	
                              9 ;--------------------------------------------------------
                             10 ; Public variables in this module
                             11 ;--------------------------------------------------------
                             12 	.globl _asincosf
                             13 ;--------------------------------------------------------
                             14 ; special function registers
                             15 ;--------------------------------------------------------
                             16 ;--------------------------------------------------------
                             17 ;  ram data
                             18 ;--------------------------------------------------------
                             19 	.area _DATA
   0000                      20 _asincosf_a_1_1:
   0000                      21 	.ds 8
   0008                      22 _asincosf_b_1_1:
   0008                      23 	.ds 8
                             24 ;--------------------------------------------------------
                             25 ; overlayable items in  ram 
                             26 ;--------------------------------------------------------
                             27 	.area _OVERLAY
                             28 ;--------------------------------------------------------
                             29 ; external initialized ram data
                             30 ;--------------------------------------------------------
                             31 ;--------------------------------------------------------
                             32 ; global & static initialisations
                             33 ;--------------------------------------------------------
                             34 	.area _HOME
                             35 	.area _GSINIT
                             36 	.area _GSFINAL
                             37 	.area _GSINIT
                             38 ;../asincosf.c:53: static const float a[2] = { 0.0, QUART_PI };
   0000 21r00s00             39 	ld	hl,#_asincosf_a_1_1
   0003 36 00                40 	ld	(hl),#0x00
   0005 23                   41 	inc	hl
   0006 36 00                42 	ld	(hl),#0x00
   0008 23                   43 	inc	hl
   0009 36 00                44 	ld	(hl),#0x00
   000B 23                   45 	inc	hl
   000C 36 00                46 	ld	(hl),#0x00
   000E 21r04s00             47 	ld	hl,#0x0004 + _asincosf_a_1_1
   0011 36 DB                48 	ld	(hl),#0xDB
   0013 23                   49 	inc	hl
   0014 36 0F                50 	ld	(hl),#0x0F
   0016 23                   51 	inc	hl
   0017 36 49                52 	ld	(hl),#0x49
   0019 23                   53 	inc	hl
   001A 36 3F                54 	ld	(hl),#0x3F
                             55 ;../asincosf.c:54: static const float b[2] = { HALF_PI, QUART_PI };
   001C 21r08s00             56 	ld	hl,#_asincosf_b_1_1
   001F 36 DB                57 	ld	(hl),#0xDB
   0021 23                   58 	inc	hl
   0022 36 0F                59 	ld	(hl),#0x0F
   0024 23                   60 	inc	hl
   0025 36 C9                61 	ld	(hl),#0xC9
   0027 23                   62 	inc	hl
   0028 36 3F                63 	ld	(hl),#0x3F
   002A 21r0Cs00             64 	ld	hl,#0x0004 + _asincosf_b_1_1
   002D 36 DB                65 	ld	(hl),#0xDB
   002F 23                   66 	inc	hl
   0030 36 0F                67 	ld	(hl),#0x0F
   0032 23                   68 	inc	hl
   0033 36 49                69 	ld	(hl),#0x49
   0035 23                   70 	inc	hl
   0036 36 3F                71 	ld	(hl),#0x3F
                             72 ;--------------------------------------------------------
                             73 ; Home
                             74 ;--------------------------------------------------------
                             75 	.area _HOME
                             76 	.area _HOME
                             77 ;--------------------------------------------------------
                             78 ; code
                             79 ;--------------------------------------------------------
                             80 	.area _CODE
                             81 ;../asincosf.c:47: float asincosf(const float x, const BOOL isacos)
                             82 ;	---------------------------------
                             83 ; Function asincosf
                             84 ; ---------------------------------
   0000                      85 _asincosf_start::
   0000                      86 _asincosf:
   0000 DD E5                87 	push	ix
   0002 DD 21 00 00          88 	ld	ix,#0
   0006 DD 39                89 	add	ix,sp
   0008 21 EC FF             90 	ld	hl,#-20
   000B 39                   91 	add	hl,sp
   000C F9                   92 	ld	sp,hl
                             93 ;../asincosf.c:51: BOOL quartPI = isacos;
   000D DD 46 08             94 	ld	b,8 (ix)
                             95 ;../asincosf.c:56: y = fabsf(x);
   0010 C5                   96 	push	bc
   0011 DD 6E 06             97 	ld	l,6 (ix)
   0014 DD 66 07             98 	ld	h,7 (ix)
   0017 E5                   99 	push	hl
   0018 DD 6E 04            100 	ld	l,4 (ix)
   001B DD 66 05            101 	ld	h,5 (ix)
   001E E5                  102 	push	hl
   001F CDr00s00            103 	call	_fabsf
   0022 F1                  104 	pop	af
   0023 F1                  105 	pop	af
   0024 DD 72 FF            106 	ld	-1 (ix),d
   0027 DD 73 FE            107 	ld	-2 (ix),e
   002A DD 74 FD            108 	ld	-3 (ix),h
   002D DD 75 FC            109 	ld	-4 (ix),l
   0030 21 80 39            110 	ld	hl,#0x3980
   0033 E5                  111 	push	hl
   0034 21 00 00            112 	ld	hl,#0x0000
   0037 E5                  113 	push	hl
   0038 DD 6E FE            114 	ld	l,-2 (ix)
   003B DD 66 FF            115 	ld	h,-1 (ix)
   003E E5                  116 	push	hl
   003F DD 6E FC            117 	ld	l,-4 (ix)
   0042 DD 66 FD            118 	ld	h,-3 (ix)
   0045 E5                  119 	push	hl
   0046 CDr00s00            120 	call	___fslt
   0049 F1                  121 	pop	af
   004A F1                  122 	pop	af
   004B F1                  123 	pop	af
   004C F1                  124 	pop	af
   004D 4D                  125 	ld	c,l
   004E F1                  126 	pop	af
   004F 47                  127 	ld	b,a
   0050 AF                  128 	xor	a,a
   0051 B1                  129 	or	a,c
   0052 28 1B               130 	jr	Z,00107$
                            131 ;../asincosf.c:59: r = y;
   0054 DD 7E FC            132 	ld	a,-4 (ix)
   0057 DD 77 F4            133 	ld	-12 (ix),a
   005A DD 7E FD            134 	ld	a,-3 (ix)
   005D DD 77 F5            135 	ld	-11 (ix),a
   0060 DD 7E FE            136 	ld	a,-2 (ix)
   0063 DD 77 F6            137 	ld	-10 (ix),a
   0066 DD 7E FF            138 	ld	a,-1 (ix)
   0069 DD 77 F7            139 	ld	-9 (ix),a
   006C C3rC9s03            140 	jp	00108$
   006F                     141 00107$:
                            142 ;../asincosf.c:63: if (y > 0.5)
   006F C5                  143 	push	bc
   0070 21 00 3F            144 	ld	hl,#0x3F00
   0073 E5                  145 	push	hl
   0074 21 00 00            146 	ld	hl,#0x0000
   0077 E5                  147 	push	hl
   0078 DD 6E FE            148 	ld	l,-2 (ix)
   007B DD 66 FF            149 	ld	h,-1 (ix)
   007E E5                  150 	push	hl
   007F DD 6E FC            151 	ld	l,-4 (ix)
   0082 DD 66 FD            152 	ld	h,-3 (ix)
   0085 E5                  153 	push	hl
   0086 CDr00s00            154 	call	___fsgt
   0089 F1                  155 	pop	af
   008A F1                  156 	pop	af
   008B F1                  157 	pop	af
   008C F1                  158 	pop	af
   008D 4D                  159 	ld	c,l
   008E F1                  160 	pop	af
   008F 47                  161 	ld	b,a
   0090 AF                  162 	xor	a,a
   0091 B1                  163 	or	a,c
   0092 CArD7s01            164 	jp	Z,00104$
                            165 ;../asincosf.c:65: quartPI = !isacos;
   0095 78                  166 	ld	a,b
   0096 EE 01               167 	xor	a,#0x01
   0098 47                  168 	ld	b,a
                            169 ;../asincosf.c:66: if (y > 1.0)
   0099 C5                  170 	push	bc
   009A 21 80 3F            171 	ld	hl,#0x3F80
   009D E5                  172 	push	hl
   009E 21 00 00            173 	ld	hl,#0x0000
   00A1 E5                  174 	push	hl
   00A2 DD 6E FE            175 	ld	l,-2 (ix)
   00A5 DD 66 FF            176 	ld	h,-1 (ix)
   00A8 E5                  177 	push	hl
   00A9 DD 6E FC            178 	ld	l,-4 (ix)
   00AC DD 66 FD            179 	ld	h,-3 (ix)
   00AF E5                  180 	push	hl
   00B0 CDr00s00            181 	call	___fsgt
   00B3 F1                  182 	pop	af
   00B4 F1                  183 	pop	af
   00B5 F1                  184 	pop	af
   00B6 F1                  185 	pop	af
   00B7 4D                  186 	ld	c,l
   00B8 F1                  187 	pop	af
   00B9 47                  188 	ld	b,a
   00BA AF                  189 	xor	a,a
   00BB B1                  190 	or	a,c
   00BC 28 14               191 	jr	Z,00102$
                            192 ;../asincosf.c:68: errno = EDOM;
   00BE FD 21r00s00         193 	ld	iy,#_errno
   00C2 FD 36 00 21         194 	ld	0 (iy),#0x21
   00C6 FD 36 01 00         195 	ld	1 (iy),#0x00
                            196 ;../asincosf.c:69: return 0.0;
   00CA 21 00 00            197 	ld	hl,#0x0000
   00CD 5D                  198 	ld	e,l
   00CE 54                  199 	ld	d,h
   00CF C3r62s05            200 	jp	00117$
   00D2                     201 00102$:
                            202 ;../asincosf.c:71: g = (0.5 - y) + 0.5;
   00D2 C5                  203 	push	bc
   00D3 DD 6E FE            204 	ld	l,-2 (ix)
   00D6 DD 66 FF            205 	ld	h,-1 (ix)
   00D9 E5                  206 	push	hl
   00DA DD 6E FC            207 	ld	l,-4 (ix)
   00DD DD 66 FD            208 	ld	h,-3 (ix)
   00E0 E5                  209 	push	hl
   00E1 21 80 3F            210 	ld	hl,#0x3F80
   00E4 E5                  211 	push	hl
   00E5 21 00 00            212 	ld	hl,#0x0000
   00E8 E5                  213 	push	hl
   00E9 CDr00s00            214 	call	___fssub
   00EC F1                  215 	pop	af
   00ED F1                  216 	pop	af
   00EE F1                  217 	pop	af
   00EF F1                  218 	pop	af
   00F0 DD 72 FB            219 	ld	-5 (ix),d
   00F3 DD 73 FA            220 	ld	-6 (ix),e
   00F6 DD 74 F9            221 	ld	-7 (ix),h
   00F9 DD 75 F8            222 	ld	-8 (ix),l
   00FC 21 FF FF            223 	ld	hl,#0xFFFFFFFF
   00FF E5                  224 	push	hl
   0100 DD 6E FA            225 	ld	l,-6 (ix)
   0103 DD 66 FB            226 	ld	h,-5 (ix)
   0106 E5                  227 	push	hl
   0107 DD 6E F8            228 	ld	l,-8 (ix)
   010A DD 66 F9            229 	ld	h,-7 (ix)
   010D E5                  230 	push	hl
   010E CDr00s00            231 	call	_ldexpf
   0111 F1                  232 	pop	af
   0112 F1                  233 	pop	af
   0113 F1                  234 	pop	af
   0114 DD 72 F3            235 	ld	-13 (ix),d
   0117 DD 73 F2            236 	ld	-14 (ix),e
   011A DD 74 F1            237 	ld	-15 (ix),h
   011D DD 75 F0            238 	ld	-16 (ix),l
   0120 C1                  239 	pop	bc
   0121 DD 7E F0            240 	ld	a,-16 (ix)
   0124 DD 77 F8            241 	ld	-8 (ix),a
   0127 DD 7E F1            242 	ld	a,-15 (ix)
   012A DD 77 F9            243 	ld	-7 (ix),a
   012D DD 7E F2            244 	ld	a,-14 (ix)
   0130 DD 77 FA            245 	ld	-6 (ix),a
   0133 DD 7E F3            246 	ld	a,-13 (ix)
   0136 DD 77 FB            247 	ld	-5 (ix),a
                            248 ;../asincosf.c:73: y = sqrtf(g);
   0139 C5                  249 	push	bc
   013A DD 6E FA            250 	ld	l,-6 (ix)
   013D DD 66 FB            251 	ld	h,-5 (ix)
   0140 E5                  252 	push	hl
   0141 DD 6E F8            253 	ld	l,-8 (ix)
   0144 DD 66 F9            254 	ld	h,-7 (ix)
   0147 E5                  255 	push	hl
   0148 CDr00s00            256 	call	_sqrtf
   014B F1                  257 	pop	af
   014C F1                  258 	pop	af
   014D DD 72 F3            259 	ld	-13 (ix),d
   0150 DD 73 F2            260 	ld	-14 (ix),e
   0153 DD 74 F1            261 	ld	-15 (ix),h
   0156 DD 75 F0            262 	ld	-16 (ix),l
   0159 C1                  263 	pop	bc
   015A DD 7E F0            264 	ld	a,-16 (ix)
   015D DD 77 FC            265 	ld	-4 (ix),a
   0160 DD 7E F1            266 	ld	a,-15 (ix)
   0163 DD 77 FD            267 	ld	-3 (ix),a
   0166 DD 7E F2            268 	ld	a,-14 (ix)
   0169 DD 77 FE            269 	ld	-2 (ix),a
   016C DD 7E F3            270 	ld	a,-13 (ix)
   016F DD 77 FF            271 	ld	-1 (ix),a
                            272 ;../asincosf.c:74: y = -(y + y);
   0172 C5                  273 	push	bc
   0173 DD 6E FE            274 	ld	l,-2 (ix)
   0176 DD 66 FF            275 	ld	h,-1 (ix)
   0179 E5                  276 	push	hl
   017A DD 6E FC            277 	ld	l,-4 (ix)
   017D DD 66 FD            278 	ld	h,-3 (ix)
   0180 E5                  279 	push	hl
   0181 DD 6E FE            280 	ld	l,-2 (ix)
   0184 DD 66 FF            281 	ld	h,-1 (ix)
   0187 E5                  282 	push	hl
   0188 DD 6E FC            283 	ld	l,-4 (ix)
   018B DD 66 FD            284 	ld	h,-3 (ix)
   018E E5                  285 	push	hl
   018F CDr00s00            286 	call	___fsadd
   0192 F1                  287 	pop	af
   0193 F1                  288 	pop	af
   0194 F1                  289 	pop	af
   0195 F1                  290 	pop	af
   0196 DD 72 F3            291 	ld	-13 (ix),d
   0199 DD 73 F2            292 	ld	-14 (ix),e
   019C DD 74 F1            293 	ld	-15 (ix),h
   019F DD 75 F0            294 	ld	-16 (ix),l
   01A2 C1                  295 	pop	bc
   01A3 DD 7E F3            296 	ld	a,-13 (ix)
   01A6 EE 80               297 	xor	a,#0x80
   01A8 DD 77 F3            298 	ld	-13 (ix),a
   01AB DD 7E F0            299 	ld	a,-16 (ix)
   01AE DD 77 F0            300 	ld	-16 (ix),a
   01B1 DD 7E F1            301 	ld	a,-15 (ix)
   01B4 DD 77 F1            302 	ld	-15 (ix),a
   01B7 DD 7E F2            303 	ld	a,-14 (ix)
   01BA DD 77 F2            304 	ld	-14 (ix),a
   01BD DD 7E F0            305 	ld	a,-16 (ix)
   01C0 DD 77 FC            306 	ld	-4 (ix),a
   01C3 DD 7E F1            307 	ld	a,-15 (ix)
   01C6 DD 77 FD            308 	ld	-3 (ix),a
   01C9 DD 7E F2            309 	ld	a,-14 (ix)
   01CC DD 77 FE            310 	ld	-2 (ix),a
   01CF DD 7E F3            311 	ld	a,-13 (ix)
   01D2 DD 77 FF            312 	ld	-1 (ix),a
   01D5 18 49               313 	jr	00105$
   01D7                     314 00104$:
                            315 ;../asincosf.c:78: g = y * y;
   01D7 C5                  316 	push	bc
   01D8 DD 6E FE            317 	ld	l,-2 (ix)
   01DB DD 66 FF            318 	ld	h,-1 (ix)
   01DE E5                  319 	push	hl
   01DF DD 6E FC            320 	ld	l,-4 (ix)
   01E2 DD 66 FD            321 	ld	h,-3 (ix)
   01E5 E5                  322 	push	hl
   01E6 DD 6E FE            323 	ld	l,-2 (ix)
   01E9 DD 66 FF            324 	ld	h,-1 (ix)
   01EC E5                  325 	push	hl
   01ED DD 6E FC            326 	ld	l,-4 (ix)
   01F0 DD 66 FD            327 	ld	h,-3 (ix)
   01F3 E5                  328 	push	hl
   01F4 CDr00s00            329 	call	___fsmul
   01F7 F1                  330 	pop	af
   01F8 F1                  331 	pop	af
   01F9 F1                  332 	pop	af
   01FA F1                  333 	pop	af
   01FB DD 72 F3            334 	ld	-13 (ix),d
   01FE DD 73 F2            335 	ld	-14 (ix),e
   0201 DD 74 F1            336 	ld	-15 (ix),h
   0204 DD 75 F0            337 	ld	-16 (ix),l
   0207 C1                  338 	pop	bc
   0208 DD 7E F0            339 	ld	a,-16 (ix)
   020B DD 77 F8            340 	ld	-8 (ix),a
   020E DD 7E F1            341 	ld	a,-15 (ix)
   0211 DD 77 F9            342 	ld	-7 (ix),a
   0214 DD 7E F2            343 	ld	a,-14 (ix)
   0217 DD 77 FA            344 	ld	-6 (ix),a
   021A DD 7E F3            345 	ld	a,-13 (ix)
   021D DD 77 FB            346 	ld	-5 (ix),a
   0220                     347 00105$:
                            348 ;../asincosf.c:80: r = y + y * ((P(g) * g) / Q(g));
   0220 C5                  349 	push	bc
   0221 DD 6E FA            350 	ld	l,-6 (ix)
   0224 DD 66 FB            351 	ld	h,-5 (ix)
   0227 E5                  352 	push	hl
   0228 DD 6E F8            353 	ld	l,-8 (ix)
   022B DD 66 F9            354 	ld	h,-7 (ix)
   022E E5                  355 	push	hl
   022F 21 01 BF            356 	ld	hl,#0xBF01
   0232 E5                  357 	push	hl
   0233 21 65 20            358 	ld	hl,#0x2065
   0236 E5                  359 	push	hl
   0237 CDr00s00            360 	call	___fsmul
   023A F1                  361 	pop	af
   023B F1                  362 	pop	af
   023C F1                  363 	pop	af
   023D F1                  364 	pop	af
   023E DD 72 F3            365 	ld	-13 (ix),d
   0241 DD 73 F2            366 	ld	-14 (ix),e
   0244 DD 74 F1            367 	ld	-15 (ix),h
   0247 DD 75 F0            368 	ld	-16 (ix),l
   024A 21 6F 3F            369 	ld	hl,#0x3F6F
   024D E5                  370 	push	hl
   024E 21 6B 16            371 	ld	hl,#0x166B
   0251 E5                  372 	push	hl
   0252 DD 6E F2            373 	ld	l,-14 (ix)
   0255 DD 66 F3            374 	ld	h,-13 (ix)
   0258 E5                  375 	push	hl
   0259 DD 6E F0            376 	ld	l,-16 (ix)
   025C DD 66 F1            377 	ld	h,-15 (ix)
   025F E5                  378 	push	hl
   0260 CDr00s00            379 	call	___fsadd
   0263 F1                  380 	pop	af
   0264 F1                  381 	pop	af
   0265 F1                  382 	pop	af
   0266 F1                  383 	pop	af
   0267 DD 72 F3            384 	ld	-13 (ix),d
   026A DD 73 F2            385 	ld	-14 (ix),e
   026D DD 74 F1            386 	ld	-15 (ix),h
   0270 DD 75 F0            387 	ld	-16 (ix),l
   0273 DD 6E FA            388 	ld	l,-6 (ix)
   0276 DD 66 FB            389 	ld	h,-5 (ix)
   0279 E5                  390 	push	hl
   027A DD 6E F8            391 	ld	l,-8 (ix)
   027D DD 66 F9            392 	ld	h,-7 (ix)
   0280 E5                  393 	push	hl
   0281 DD 6E F2            394 	ld	l,-14 (ix)
   0284 DD 66 F3            395 	ld	h,-13 (ix)
   0287 E5                  396 	push	hl
   0288 DD 6E F0            397 	ld	l,-16 (ix)
   028B DD 66 F1            398 	ld	h,-15 (ix)
   028E E5                  399 	push	hl
   028F CDr00s00            400 	call	___fsmul
   0292 F1                  401 	pop	af
   0293 F1                  402 	pop	af
   0294 F1                  403 	pop	af
   0295 F1                  404 	pop	af
   0296 DD 72 F3            405 	ld	-13 (ix),d
   0299 DD 73 F2            406 	ld	-14 (ix),e
   029C DD 74 F1            407 	ld	-15 (ix),h
   029F DD 75 F0            408 	ld	-16 (ix),l
   02A2 21 B1 C0            409 	ld	hl,#0xC0B1
   02A5 E5                  410 	push	hl
   02A6 21 0B 8D            411 	ld	hl,#0x8D0B
   02A9 E5                  412 	push	hl
   02AA DD 6E FA            413 	ld	l,-6 (ix)
   02AD DD 66 FB            414 	ld	h,-5 (ix)
   02B0 E5                  415 	push	hl
   02B1 DD 6E F8            416 	ld	l,-8 (ix)
   02B4 DD 66 F9            417 	ld	h,-7 (ix)
   02B7 E5                  418 	push	hl
   02B8 CDr00s00            419 	call	___fsadd
   02BB F1                  420 	pop	af
   02BC F1                  421 	pop	af
   02BD F1                  422 	pop	af
   02BE F1                  423 	pop	af
   02BF DD 72 EF            424 	ld	-17 (ix),d
   02C2 DD 73 EE            425 	ld	-18 (ix),e
   02C5 DD 74 ED            426 	ld	-19 (ix),h
   02C8 DD 75 EC            427 	ld	-20 (ix),l
   02CB DD 6E FA            428 	ld	l,-6 (ix)
   02CE DD 66 FB            429 	ld	h,-5 (ix)
   02D1 E5                  430 	push	hl
   02D2 DD 6E F8            431 	ld	l,-8 (ix)
   02D5 DD 66 F9            432 	ld	h,-7 (ix)
   02D8 E5                  433 	push	hl
   02D9 DD 6E EE            434 	ld	l,-18 (ix)
   02DC DD 66 EF            435 	ld	h,-17 (ix)
   02DF E5                  436 	push	hl
   02E0 DD 6E EC            437 	ld	l,-20 (ix)
   02E3 DD 66 ED            438 	ld	h,-19 (ix)
   02E6 E5                  439 	push	hl
   02E7 CDr00s00            440 	call	___fsmul
   02EA F1                  441 	pop	af
   02EB F1                  442 	pop	af
   02EC F1                  443 	pop	af
   02ED F1                  444 	pop	af
   02EE DD 72 EF            445 	ld	-17 (ix),d
   02F1 DD 73 EE            446 	ld	-18 (ix),e
   02F4 DD 74 ED            447 	ld	-19 (ix),h
   02F7 DD 75 EC            448 	ld	-20 (ix),l
   02FA 21 B3 40            449 	ld	hl,#0x40B3
   02FD E5                  450 	push	hl
   02FE 21 F0 50            451 	ld	hl,#0x50F0
   0301 E5                  452 	push	hl
   0302 DD 6E EE            453 	ld	l,-18 (ix)
   0305 DD 66 EF            454 	ld	h,-17 (ix)
   0308 E5                  455 	push	hl
   0309 DD 6E EC            456 	ld	l,-20 (ix)
   030C DD 66 ED            457 	ld	h,-19 (ix)
   030F E5                  458 	push	hl
   0310 CDr00s00            459 	call	___fsadd
   0313 F1                  460 	pop	af
   0314 F1                  461 	pop	af
   0315 F1                  462 	pop	af
   0316 F1                  463 	pop	af
   0317 DD 72 EF            464 	ld	-17 (ix),d
   031A DD 73 EE            465 	ld	-18 (ix),e
   031D DD 74 ED            466 	ld	-19 (ix),h
   0320 DD 75 EC            467 	ld	-20 (ix),l
   0323 DD 6E EE            468 	ld	l,-18 (ix)
   0326 DD 66 EF            469 	ld	h,-17 (ix)
   0329 E5                  470 	push	hl
   032A DD 6E EC            471 	ld	l,-20 (ix)
   032D DD 66 ED            472 	ld	h,-19 (ix)
   0330 E5                  473 	push	hl
   0331 DD 6E F2            474 	ld	l,-14 (ix)
   0334 DD 66 F3            475 	ld	h,-13 (ix)
   0337 E5                  476 	push	hl
   0338 DD 6E F0            477 	ld	l,-16 (ix)
   033B DD 66 F1            478 	ld	h,-15 (ix)
   033E E5                  479 	push	hl
   033F CDr00s00            480 	call	___fsdiv
   0342 F1                  481 	pop	af
   0343 F1                  482 	pop	af
   0344 F1                  483 	pop	af
   0345 F1                  484 	pop	af
   0346 DD 72 EF            485 	ld	-17 (ix),d
   0349 DD 73 EE            486 	ld	-18 (ix),e
   034C DD 74 ED            487 	ld	-19 (ix),h
   034F DD 75 EC            488 	ld	-20 (ix),l
   0352 DD 6E EE            489 	ld	l,-18 (ix)
   0355 DD 66 EF            490 	ld	h,-17 (ix)
   0358 E5                  491 	push	hl
   0359 DD 6E EC            492 	ld	l,-20 (ix)
   035C DD 66 ED            493 	ld	h,-19 (ix)
   035F E5                  494 	push	hl
   0360 DD 6E FE            495 	ld	l,-2 (ix)
   0363 DD 66 FF            496 	ld	h,-1 (ix)
   0366 E5                  497 	push	hl
   0367 DD 6E FC            498 	ld	l,-4 (ix)
   036A DD 66 FD            499 	ld	h,-3 (ix)
   036D E5                  500 	push	hl
   036E CDr00s00            501 	call	___fsmul
   0371 F1                  502 	pop	af
   0372 F1                  503 	pop	af
   0373 F1                  504 	pop	af
   0374 F1                  505 	pop	af
   0375 DD 72 EF            506 	ld	-17 (ix),d
   0378 DD 73 EE            507 	ld	-18 (ix),e
   037B DD 74 ED            508 	ld	-19 (ix),h
   037E DD 75 EC            509 	ld	-20 (ix),l
   0381 DD 6E EE            510 	ld	l,-18 (ix)
   0384 DD 66 EF            511 	ld	h,-17 (ix)
   0387 E5                  512 	push	hl
   0388 DD 6E EC            513 	ld	l,-20 (ix)
   038B DD 66 ED            514 	ld	h,-19 (ix)
   038E E5                  515 	push	hl
   038F DD 6E FE            516 	ld	l,-2 (ix)
   0392 DD 66 FF            517 	ld	h,-1 (ix)
   0395 E5                  518 	push	hl
   0396 DD 6E FC            519 	ld	l,-4 (ix)
   0399 DD 66 FD            520 	ld	h,-3 (ix)
   039C E5                  521 	push	hl
   039D CDr00s00            522 	call	___fsadd
   03A0 F1                  523 	pop	af
   03A1 F1                  524 	pop	af
   03A2 F1                  525 	pop	af
   03A3 F1                  526 	pop	af
   03A4 DD 72 EF            527 	ld	-17 (ix),d
   03A7 DD 73 EE            528 	ld	-18 (ix),e
   03AA DD 74 ED            529 	ld	-19 (ix),h
   03AD DD 75 EC            530 	ld	-20 (ix),l
   03B0 C1                  531 	pop	bc
   03B1 DD 7E EC            532 	ld	a,-20 (ix)
   03B4 DD 77 F4            533 	ld	-12 (ix),a
   03B7 DD 7E ED            534 	ld	a,-19 (ix)
   03BA DD 77 F5            535 	ld	-11 (ix),a
   03BD DD 7E EE            536 	ld	a,-18 (ix)
   03C0 DD 77 F6            537 	ld	-10 (ix),a
   03C3 DD 7E EF            538 	ld	a,-17 (ix)
   03C6 DD 77 F7            539 	ld	-9 (ix),a
   03C9                     540 00108$:
                            541 ;../asincosf.c:82: i = quartPI;
                            542 ;../asincosf.c:83: if (isacos)
   03C9 DD CB 08 46         543 	bit	0,8 (ix)
   03CD CArC7s04            544 	jp	Z,00115$
                            545 ;../asincosf.c:85: if (x < 0.0)
   03D0 C5                  546 	push	bc
   03D1 21 00 00            547 	ld	hl,#0x0000
   03D4 E5                  548 	push	hl
   03D5 21 00 00            549 	ld	hl,#0x0000
   03D8 E5                  550 	push	hl
   03D9 DD 6E 06            551 	ld	l,6 (ix)
   03DC DD 66 07            552 	ld	h,7 (ix)
   03DF E5                  553 	push	hl
   03E0 DD 6E 04            554 	ld	l,4 (ix)
   03E3 DD 66 05            555 	ld	h,5 (ix)
   03E6 E5                  556 	push	hl
   03E7 CDr00s00            557 	call	___fslt
   03EA F1                  558 	pop	af
   03EB F1                  559 	pop	af
   03EC F1                  560 	pop	af
   03ED F1                  561 	pop	af
   03EE 4D                  562 	ld	c,l
   03EF F1                  563 	pop	af
   03F0 47                  564 	ld	b,a
   03F1 AF                  565 	xor	a,a
   03F2 B1                  566 	or	a,c
   03F3 28 69               567 	jr	Z,00110$
                            568 ;../asincosf.c:86: r = (b[i] + r) + b[i];
   03F5 78                  569 	ld	a,b
   03F6 87                  570 	add	a,a
   03F7 87                  571 	add	a,a
   03F8 C6r08               572 	add	a,#<(_asincosf_b_1_1)
   03FA 6F                  573 	ld	l, a
   03FB 3Es00               574 	ld	a, #>(_asincosf_b_1_1)
   03FD CE 00               575 	adc	a, #0x00
   03FF 67                  576 	ld	h, a
   0400 7E                  577 	ld	a,(hl)
   0401 DD 77 EC            578 	ld	-20 (ix),a
   0404 23                  579 	inc	hl
   0405 7E                  580 	ld	a,(hl)
   0406 DD 77 ED            581 	ld	-19 (ix),a
   0409 23                  582 	inc	hl
   040A 7E                  583 	ld	a,(hl)
   040B DD 77 EE            584 	ld	-18 (ix),a
   040E 23                  585 	inc	hl
   040F 7E                  586 	ld	a,(hl)
   0410 DD 77 EF            587 	ld	-17 (ix),a
   0413 DD 6E F6            588 	ld	l,-10 (ix)
   0416 DD 66 F7            589 	ld	h,-9 (ix)
   0419 E5                  590 	push	hl
   041A DD 6E F4            591 	ld	l,-12 (ix)
   041D DD 66 F5            592 	ld	h,-11 (ix)
   0420 E5                  593 	push	hl
   0421 DD 6E EE            594 	ld	l,-18 (ix)
   0424 DD 66 EF            595 	ld	h,-17 (ix)
   0427 E5                  596 	push	hl
   0428 DD 6E EC            597 	ld	l,-20 (ix)
   042B DD 66 ED            598 	ld	h,-19 (ix)
   042E E5                  599 	push	hl
   042F CDr00s00            600 	call	___fsadd
   0432 F1                  601 	pop	af
   0433 F1                  602 	pop	af
   0434 F1                  603 	pop	af
   0435 F1                  604 	pop	af
   0436 44                  605 	ld	b,h
   0437 4D                  606 	ld	c,l
   0438 DD 6E EE            607 	ld	l,-18 (ix)
   043B DD 66 EF            608 	ld	h,-17 (ix)
   043E E5                  609 	push	hl
   043F DD 6E EC            610 	ld	l,-20 (ix)
   0442 DD 66 ED            611 	ld	h,-19 (ix)
   0445 E5                  612 	push	hl
   0446 D5                  613 	push	de
   0447 C5                  614 	push	bc
   0448 CDr00s00            615 	call	___fsadd
   044B F1                  616 	pop	af
   044C F1                  617 	pop	af
   044D F1                  618 	pop	af
   044E F1                  619 	pop	af
   044F DD 75 F4            620 	ld	-12 (ix), l
   0452 DD 74 F5            621 	ld	-11 (ix), h
   0455 DD 73 F6            622 	ld	-10 (ix),e
   0458 DD 72 F7            623 	ld	-9 (ix),d
   045B C3r56s05            624 	jp	00116$
   045E                     625 00110$:
                            626 ;../asincosf.c:88: r = (a[i] - r) + a[i];
   045E 78                  627 	ld	a,b
   045F 87                  628 	add	a,a
   0460 87                  629 	add	a,a
   0461 C6r00               630 	add	a,#<(_asincosf_a_1_1)
   0463 6F                  631 	ld	l, a
   0464 3Es00               632 	ld	a, #>(_asincosf_a_1_1)
   0466 CE 00               633 	adc	a, #0x00
   0468 67                  634 	ld	h, a
   0469 7E                  635 	ld	a,(hl)
   046A DD 77 EC            636 	ld	-20 (ix),a
   046D 23                  637 	inc	hl
   046E 7E                  638 	ld	a,(hl)
   046F DD 77 ED            639 	ld	-19 (ix),a
   0472 23                  640 	inc	hl
   0473 7E                  641 	ld	a,(hl)
   0474 DD 77 EE            642 	ld	-18 (ix),a
   0477 23                  643 	inc	hl
   0478 7E                  644 	ld	a,(hl)
   0479 DD 77 EF            645 	ld	-17 (ix),a
   047C DD 6E F6            646 	ld	l,-10 (ix)
   047F DD 66 F7            647 	ld	h,-9 (ix)
   0482 E5                  648 	push	hl
   0483 DD 6E F4            649 	ld	l,-12 (ix)
   0486 DD 66 F5            650 	ld	h,-11 (ix)
   0489 E5                  651 	push	hl
   048A DD 6E EE            652 	ld	l,-18 (ix)
   048D DD 66 EF            653 	ld	h,-17 (ix)
   0490 E5                  654 	push	hl
   0491 DD 6E EC            655 	ld	l,-20 (ix)
   0494 DD 66 ED            656 	ld	h,-19 (ix)
   0497 E5                  657 	push	hl
   0498 CDr00s00            658 	call	___fssub
   049B F1                  659 	pop	af
   049C F1                  660 	pop	af
   049D F1                  661 	pop	af
   049E F1                  662 	pop	af
   049F 44                  663 	ld	b,h
   04A0 4D                  664 	ld	c,l
   04A1 DD 6E EE            665 	ld	l,-18 (ix)
   04A4 DD 66 EF            666 	ld	h,-17 (ix)
   04A7 E5                  667 	push	hl
   04A8 DD 6E EC            668 	ld	l,-20 (ix)
   04AB DD 66 ED            669 	ld	h,-19 (ix)
   04AE E5                  670 	push	hl
   04AF D5                  671 	push	de
   04B0 C5                  672 	push	bc
   04B1 CDr00s00            673 	call	___fsadd
   04B4 F1                  674 	pop	af
   04B5 F1                  675 	pop	af
   04B6 F1                  676 	pop	af
   04B7 F1                  677 	pop	af
   04B8 DD 75 F4            678 	ld	-12 (ix), l
   04BB DD 74 F5            679 	ld	-11 (ix), h
   04BE DD 73 F6            680 	ld	-10 (ix),e
   04C1 DD 72 F7            681 	ld	-9 (ix),d
   04C4 C3r56s05            682 	jp	00116$
   04C7                     683 00115$:
                            684 ;../asincosf.c:92: r = (a[i] + r) + a[i];
   04C7 78                  685 	ld	a,b
   04C8 87                  686 	add	a,a
   04C9 87                  687 	add	a,a
   04CA C6r00               688 	add	a,#<(_asincosf_a_1_1)
   04CC 6F                  689 	ld	l, a
   04CD 3Es00               690 	ld	a, #>(_asincosf_a_1_1)
   04CF CE 00               691 	adc	a, #0x00
   04D1 67                  692 	ld	h, a
   04D2 7E                  693 	ld	a,(hl)
   04D3 DD 77 EC            694 	ld	-20 (ix),a
   04D6 23                  695 	inc	hl
   04D7 7E                  696 	ld	a,(hl)
   04D8 DD 77 ED            697 	ld	-19 (ix),a
   04DB 23                  698 	inc	hl
   04DC 7E                  699 	ld	a,(hl)
   04DD DD 77 EE            700 	ld	-18 (ix),a
   04E0 23                  701 	inc	hl
   04E1 7E                  702 	ld	a,(hl)
   04E2 DD 77 EF            703 	ld	-17 (ix),a
   04E5 DD 6E F6            704 	ld	l,-10 (ix)
   04E8 DD 66 F7            705 	ld	h,-9 (ix)
   04EB E5                  706 	push	hl
   04EC DD 6E F4            707 	ld	l,-12 (ix)
   04EF DD 66 F5            708 	ld	h,-11 (ix)
   04F2 E5                  709 	push	hl
   04F3 DD 6E EE            710 	ld	l,-18 (ix)
   04F6 DD 66 EF            711 	ld	h,-17 (ix)
   04F9 E5                  712 	push	hl
   04FA DD 6E EC            713 	ld	l,-20 (ix)
   04FD DD 66 ED            714 	ld	h,-19 (ix)
   0500 E5                  715 	push	hl
   0501 CDr00s00            716 	call	___fsadd
   0504 F1                  717 	pop	af
   0505 F1                  718 	pop	af
   0506 F1                  719 	pop	af
   0507 F1                  720 	pop	af
   0508 44                  721 	ld	b,h
   0509 4D                  722 	ld	c,l
   050A DD 6E EE            723 	ld	l,-18 (ix)
   050D DD 66 EF            724 	ld	h,-17 (ix)
   0510 E5                  725 	push	hl
   0511 DD 6E EC            726 	ld	l,-20 (ix)
   0514 DD 66 ED            727 	ld	h,-19 (ix)
   0517 E5                  728 	push	hl
   0518 D5                  729 	push	de
   0519 C5                  730 	push	bc
   051A CDr00s00            731 	call	___fsadd
   051D F1                  732 	pop	af
   051E F1                  733 	pop	af
   051F F1                  734 	pop	af
   0520 F1                  735 	pop	af
   0521 DD 75 F4            736 	ld	-12 (ix), l
   0524 DD 74 F5            737 	ld	-11 (ix), h
   0527 DD 73 F6            738 	ld	-10 (ix),e
   052A DD 72 F7            739 	ld	-9 (ix),d
                            740 ;../asincosf.c:93: if (x < 0.0)
   052D 21 00 00            741 	ld	hl,#0x0000
   0530 E5                  742 	push	hl
   0531 21 00 00            743 	ld	hl,#0x0000
   0534 E5                  744 	push	hl
   0535 DD 6E 06            745 	ld	l,6 (ix)
   0538 DD 66 07            746 	ld	h,7 (ix)
   053B E5                  747 	push	hl
   053C DD 6E 04            748 	ld	l,4 (ix)
   053F DD 66 05            749 	ld	h,5 (ix)
   0542 E5                  750 	push	hl
   0543 CDr00s00            751 	call	___fslt
   0546 F1                  752 	pop	af
   0547 F1                  753 	pop	af
   0548 F1                  754 	pop	af
   0549 F1                  755 	pop	af
   054A AF                  756 	xor	a,a
   054B B5                  757 	or	a,l
   054C 28 08               758 	jr	Z,00116$
                            759 ;../asincosf.c:94: r = -r;
   054E DD 7E F7            760 	ld	a,-9 (ix)
   0551 EE 80               761 	xor	a,#0x80
   0553 DD 77 F7            762 	ld	-9 (ix),a
   0556                     763 00116$:
                            764 ;../asincosf.c:96: return r;
   0556 DD 6E F4            765 	ld	l,-12 (ix)
   0559 DD 66 F5            766 	ld	h,-11 (ix)
   055C DD 5E F6            767 	ld	e,-10 (ix)
   055F DD 56 F7            768 	ld	d,-9 (ix)
   0562                     769 00117$:
   0562 DD F9               770 	ld	sp,ix
   0564 DD E1               771 	pop	ix
   0566 C9                  772 	ret
   0567                     773 _asincosf_end::
                            774 	.area _CODE
                            775 	.area _CABS
